Warning[w6]: Type conflict for external/entry "sys_errorcode_runcode", in module uart_config against external/entry in module timer; different basic types
  /* In module uart_config: */
  bool sys_errorcode_runcode;
  /* In module timer: */
  unsigned int sys_errorcode_runcode;
################################################################################
#                                                                              #
#      IAR Universal Linker V6.5.4.100                                         #
#                                                                              #
#           Link time     =  04/Dec/2020  15:18:36                             #
#           Target CPU    =  MSP430                                            #
#           List file     =  \\Mac\Home\work\ETL\Debug\List\RTUtest_GP.map     #
#           Output file 1 =  \\Mac\Home\work\ETL\Debug\Exe\RTUtest_GP.d43      #
#                            Format: ubrof10                                   #
#                            UBROF version 10.0.6                              #
#                            Using library modules for C-SPY (-rt)             #
#           Command line  =  -f C:\Users\83797\AppData\Local\Temp\EWE020.tmp   #
#                            (\\Mac\Home\work\ETL\Debug\Obj\adc10_a.r43        #
#                            \\Mac\Home\work\ETL\Debug\Obj\adc12_a.r43         #
#                            \\Mac\Home\work\ETL\Debug\Obj\aes.r43             #
#                            \\Mac\Home\work\ETL\Debug\Obj\battbak.r43         #
#                            \\Mac\Home\work\ETL\Debug\Obj\common.r43          #
#                            \\Mac\Home\work\ETL\Debug\Obj\comp_b.r43          #
#                            \\Mac\Home\work\ETL\Debug\Obj\Console.r43         #
#                            \\Mac\Home\work\ETL\Debug\Obj\crc.r43             #
#                            \\Mac\Home\work\ETL\Debug\Obj\cstartup.r43        #
#                            \\Mac\Home\work\ETL\Debug\Obj\ctsd16.r43          #
#                            \\Mac\Home\work\ETL\Debug\Obj\dac12_a.r43         #
#                            \\Mac\Home\work\ETL\Debug\Obj\datapage.r43        #
#                            \\Mac\Home\work\ETL\Debug\Obj\debug.r43           #
#                            \\Mac\Home\work\ETL\Debug\Obj\dma.r43             #
#                            \\Mac\Home\work\ETL\Debug\Obj\duallru.r43         #
#                            \\Mac\Home\work\ETL\Debug\Obj\dualpool.r43        #
#                            \\Mac\Home\work\ETL\Debug\Obj\etl.r43             #
#                            \\Mac\Home\work\ETL\Debug\Obj\etltest.r43         #
#                            \\Mac\Home\work\ETL\Debug\Obj\eusci_a_spi.r43     #
#                            \\Mac\Home\work\ETL\Debug\Obj\eusci_a_uart.r43    #
#                            \\Mac\Home\work\ETL\Debug\Obj\eusci_b_i2c.r43     #
#                            \\Mac\Home\work\ETL\Debug\Obj\eusci_b_spi.r43     #
#                            \\Mac\Home\work\ETL\Debug\Obj\flashctl.r43        #
#                            \\Mac\Home\work\ETL\Debug\Obj\gpio.r43            #
#                            \\Mac\Home\work\ETL\Debug\Obj\infopage.r43        #
#                            \\Mac\Home\work\ETL\Debug\Obj\lcd_b.r43           #
#                            \\Mac\Home\work\ETL\Debug\Obj\lcd_c.r43           #
#                            \\Mac\Home\work\ETL\Debug\Obj\ldopwr.r43          #
#                            \\Mac\Home\work\ETL\Debug\Obj\led.r43             #
#                            \\Mac\Home\work\ETL\Debug\Obj\lowpower.r43        #
#                            \\Mac\Home\work\ETL\Debug\Obj\lru.r43             #
#                            \\Mac\Home\work\ETL\Debug\Obj\main.r43            #
#                            \\Mac\Home\work\ETL\Debug\Obj\mathtool.r43        #
#                            \\Mac\Home\work\ETL\Debug\Obj\mpy32.r43           #
#                            \\Mac\Home\work\ETL\Debug\Obj\oa.r43              #
#                            \\Mac\Home\work\ETL\Debug\Obj\pagetable.r43       #
#                            \\Mac\Home\work\ETL\Debug\Obj\pmap.r43            #
#                            \\Mac\Home\work\ETL\Debug\Obj\pmm.r43             #
#                            \\Mac\Home\work\ETL\Debug\Obj\ram.r43             #
#                            \\Mac\Home\work\ETL\Debug\Obj\ref.r43             #
#                            \\Mac\Home\work\ETL\Debug\Obj\rom.r43             #
#                            \\Mac\Home\work\ETL\Debug\Obj\rtc.r43             #
#                            \\Mac\Home\work\ETL\Debug\Obj\rtc_a.r43           #
#                            \\Mac\Home\work\ETL\Debug\Obj\rtc_b.r43           #
#                            \\Mac\Home\work\ETL\Debug\Obj\rtc_c.r43           #
#                            \\Mac\Home\work\ETL\Debug\Obj\sd24_b.r43          #
#                            \\Mac\Home\work\ETL\Debug\Obj\sfr.r43             #
#                            \\Mac\Home\work\ETL\Debug\Obj\sys_status.r43      #
#                            \\Mac\Home\work\ETL\Debug\Obj\sysctl.r43          #
#                            \\Mac\Home\work\ETL\Debug\Obj\tec.r43             #
#                            \\Mac\Home\work\ETL\Debug\Obj\timer.r43           #
#                            \\Mac\Home\work\ETL\Debug\Obj\timer_a.r43         #
#                            \\Mac\Home\work\ETL\Debug\Obj\timer_b.r43         #
#                            \\Mac\Home\work\ETL\Debug\Obj\timer_d.r43         #
#                            \\Mac\Home\work\ETL\Debug\Obj\tlv.r43             #
#                            \\Mac\Home\work\ETL\Debug\Obj\tool.r43            #
#                            \\Mac\Home\work\ETL\Debug\Obj\uart0.r43           #
#                            \\Mac\Home\work\ETL\Debug\Obj\uart1.r43           #
#                            \\Mac\Home\work\ETL\Debug\Obj\uart3.r43           #
#                            \\Mac\Home\work\ETL\Debug\Obj\uart_config.r43     #
#                            \\Mac\Home\work\ETL\Debug\Obj\ucs.r43             #
#                            \\Mac\Home\work\ETL\Debug\Obj\usci_a_spi.r43      #
#                            \\Mac\Home\work\ETL\Debug\Obj\usci_a_uart.r43     #
#                            \\Mac\Home\work\ETL\Debug\Obj\usci_b_i2c.r43      #
#                            \\Mac\Home\work\ETL\Debug\Obj\usci_b_spi.r43      #
#                            \\Mac\Home\work\ETL\Debug\Obj\wdt_a.r43 -o        #
#                            \\Mac\Home\work\ETL\Debug\Exe\RTUtest_GP.d43 -l   #
#                            \\Mac\Home\work\ETL\Debug\List\RTUtest_GP.map     #
#                            -xms                                              #
#                            "-IC:\Program Files (x86)\IAR Systems\Embedded Wo #
#                            rkbench 8.0\430\LIB\"                             #
#                            -f                                                #
#                            "C:\Program Files (x86)\IAR Systems\Embedded Work #
#                            bench 8.0\430\config\linker\lnk430f5438a.xcl"     #
#                            (-cmsp430 -D?CPU30_OFFSET=2 -QCODE_I=CODE_ID      #
#                            -QTLS16_I=TLS16_ID -D__iar_HWMUL=4C0              #
#                            -Z(CONST)INFO=1800-19FF                           #
#                            -Z(CONST)INFOA=1980-19FF                          #
#                            -Z(CONST)INFOB=1900-197F                          #
#                            -Z(CONST)INFOC=1880-18FF                          #
#                            -Z(CONST)INFOD=1800-187F                          #
#                            -Z(DATA)DATA16_I,DATA16_Z,DATA16_N,TLS16_I=1C00-5 #
#                            BFF                                               #
#                            -Z(DATA)DATA16_HEAP+_DATA16_HEAP_SIZE             #
#                            -Z(DATA)CODE_I                                    #
#                            -Z(DATA)DATA20_I,DATA20_Z,DATA20_N,DATA20_HEAP+_D #
#                            ATA20_HEAP_SIZE                                   #
#                            -Z(DATA)CSTACK+_STACK_SIZE#                       #
#                            -Z(CONST)DATA16_C,DATA16_ID,TLS16_ID,DIFUNCT,CHEC #
#                            KSUM=5C00-FF7F                                    #
#                            -Z(CODE)CSTART,ISR_CODE,CODE16=5C00-FF7F          #
#                            -P(CODE)CODE=5C00-FF7F,10000-45BFF                #
#                            -Z(CONST)DATA20_C,DATA20_ID,CODE_ID=5C00-FF7F,100 #
#                            40-45BFF                                          #
#                            -Z(CODE)INTVEC=FF80-FFFF                          #
#                            -Z(CODE)RESET=FFFE-FFFF) -f                       #
#                            "C:\Program Files (x86)\IAR Systems\Embedded Work #
#                            bench 8.0\430\config\linker\multiplier32.xcl"     #
#                            (-e?Mul8Hw=?Mul8 -e?Mul16Hw=?Mul16                #
#                            -e?Mul16to32uHw=?Mul16to32u                       #
#                            -e?Mul16to32sHw=?Mul16to32s -e?Mul32Hw32=?Mul32   #
#                            -e?Mul64Hw32=_Mul64i                              #
#                            -e?Mul32u32uto64iHw32=_Mul32u32uto64i             #
#                            -e?Mul32fHw32=_Mul32f                             #
#                            -e_Mul64fHw32Ptr=_Mul64fPtr) -D_STACK_SIZE=FA0    #
#                            -rt                                               #
#                            "C:\Program Files (x86)\IAR Systems\Embedded Work #
#                            bench 8.0\430\lib\dlib\dl430xlsfn.r43"            #
#                            -D_DATA16_HEAP_SIZE=1F40 -s __program_start       #
#                            -D_DATA20_HEAP_SIZE=50)                           #
#                                                                              #
#                           Copyright (C) 1987-2018 IAR Systems AB.            #
################################################################################





                ****************************************
                *                                      *
                *           CROSS REFERENCE            *
                *                                      *
                ****************************************

       Program entry at :           5F5C  Relocatable, from module : ?cstart




                ****************************************
                *                                      *
                *            RUNTIME MODEL             *
                *                                      *
                ****************************************

  __Heap_Handler             = Basic
  __SystemLibrary            = DLib
  __code_model               = large
  __core                     = 430X
  __data_model               = small
  __dlib_file_descriptor     = 0
  __dlib_full_locale_support = 0
  __double_size              = 32
  __pic                      = no
  __reg_r4                   = free
  __reg_r5                   = free
  __rt_version               = 3

                ****************************************
                *                                      *
                *    AUTOMATIC SYMBOL REDIRECTIONS     *
                *                                      *
                ****************************************

       All references to: _Printf
         were redirected to: _PrintfLargeNoMb



                ****************************************
                *                                      *
                *              MODULE MAP              *
                *                                      *
                ****************************************


  DEFINED ABSOLUTE ENTRIES
    *************************************************************************

  DEFINED ABSOLUTE ENTRIES
  PROGRAM MODULE, NAME : ?ABS_ENTRY_MOD

Absolute parts
           ENTRY                   ADDRESS         REF BY
           =====                   =======         ======
           _DATA20_HEAP_SIZE       0050 
           _DATA16_HEAP_SIZE       1F40 
           _STACK_SIZE             0FA0 
           __iar_HWMUL             04C0            ?Mul16to32sHw (?Mul16to32sHw)
                                                   ?Mul32fHw32 (?Mul32fHw32)
                                                   ETL::ReadDataPage(int, DataPage *) (etl)
                                                   ETL::WriteDataPage(int, DataPage *) (etl)
                                                   Segment part 1 (?Mul8Hw)
           ?CPU30_OFFSET           0002 
    *************************************************************************

  FILE NAME : \\Mac\Home\work\ETL\Debug\Obj\adc10_a.r43
    *************************************************************************

  FILE NAME : \\Mac\Home\work\ETL\Debug\Obj\adc12_a.r43
    *************************************************************************

  FILE NAME : \\Mac\Home\work\ETL\Debug\Obj\aes.r43
    *************************************************************************

  FILE NAME : \\Mac\Home\work\ETL\Debug\Obj\battbak.r43
    *************************************************************************

  FILE NAME : \\Mac\Home\work\ETL\Debug\Obj\common.r43
  PROGRAM MODULE, NAME : common

  SEGMENTS IN THE MODULE
  ======================
DATA16_AN
  Relative segment, address: 021A - 021B (0x2 bytes), align: 0
  Segment part 1. ROOT        Intra module refs:   Restart_Init() (main)
           ENTRY                   ADDRESS         REF BY
           =====                   =======         ======
           _A_PAIE_L               021A 
           LOCAL                   ADDRESS         
           =====                   =======         
           PAIE                    021A 
           PAIE_H                  021B 
           PAIE_L                  021A 
    -------------------------------------------------------------------------
DATA16_AN
  Relative segment, address: 021C - 021D (0x2 bytes), align: 0
  Segment part 2. ROOT 
           ENTRY                   ADDRESS         REF BY
           =====                   =======         ======
           _A_PAIFG_L              021C 
           LOCAL                   ADDRESS         
           =====                   =======         
           PAIFG                   021C 
           PAIFG_H                 021D 
           PAIFG_L                 021C 
    -------------------------------------------------------------------------
DATA16_AN
  Relative segment, address: 024A - 024B (0x2 bytes), align: 0
  Segment part 3. ROOT        Intra module refs:   Clock_Init()
           ENTRY                   ADDRESS         REF BY
           =====                   =======         ======
           _A_PCSEL_L              024A 
           LOCAL                   ADDRESS         
           =====                   =======         
           PCSEL                   024A 
           PCSEL_H                 024B 
           PCSEL_L                 024A 
    -------------------------------------------------------------------------
DATA16_AN
  Relative segment, address: 0262 - 0263 (0x2 bytes), align: 0
  Segment part 4. ROOT        Intra module refs:   Clear_ExternWatchdog()
                                                   Restart_Init() (main)
                                                   TimerB_Init(unsigned int) (timer)
           ENTRY                   ADDRESS         REF BY
           =====                   =======         ======
           _A_PDOUT_L              0262 
           LOCAL                   ADDRESS         
           =====                   =======         
           PDOUT                   0262 
           PDOUT_H                 0263 
           PDOUT_L                 0262 
    -------------------------------------------------------------------------
DATA16_AN
  Relative segment, address: 026A - 026B (0x2 bytes), align: 0
  Segment part 5. ROOT        Intra module refs:   Clock_Init()
           ENTRY                   ADDRESS         REF BY
           =====                   =======         ======
           _A_PDSEL_L              026A 
           LOCAL                   ADDRESS         
           =====                   =======         
           PDSEL                   026A 
           PDSEL_H                 026B 
           PDSEL_L                 026A 
    -------------------------------------------------------------------------
DATA16_AN
  Relative segment, address: 0282 - 0283 (0x2 bytes), align: 0
  Segment part 6. ROOT        Intra module refs:   IIC_SCL_HIGH() (rtc)
                                                   IIC_SCL_LOW() (rtc)
                                                   IIC_SDA_HIGH() (rtc)
                                                   IIC_SDA_LOW() (rtc)
                                                   Max3222_Open()
                                                   Restart_Init() (main)
           ENTRY                   ADDRESS         REF BY
           =====                   =======         ======
           _A_PEOUT_L              0282 
           LOCAL                   ADDRESS         
           =====                   =======         
           PEOUT                   0282 
           PEOUT_H                 0283 
           PEOUT_L                 0282 
    -------------------------------------------------------------------------
DATA16_AN
  Relative segment, address: 0284 - 0285 (0x2 bytes), align: 0
  Segment part 7. ROOT        Intra module refs:   IIC_Ack() (rtc)
                                                   IIC_NAck() (rtc)
                                                   IIC_Read_Byte(unsigned char) (rtc)
                                                   IIC_Send_Byte(unsigned char) (rtc)
                                                   IIC_Start() (rtc)
                                                   IIC_Stop() (rtc)
                                                   IIC_Wait_Ack() (rtc)
                                                   Max3222_Open()
                                                   RTC_Open() (rtc)
                                                   Restart_Init() (main)
                                                   UART3_Open(int) (uart3)
           ENTRY                   ADDRESS         REF BY
           =====                   =======         ======
           _A_PEDIR_L              0284 
           LOCAL                   ADDRESS         
           =====                   =======         
           PEDIR                   0284 
           PEDIR_H                 0285 
           PEDIR_L                 0284 
    -------------------------------------------------------------------------
DATA16_AN
  Relative segment, address: 0120 - 0121 (0x2 bytes), align: 0
  Segment part 8. ROOT        Intra module refs:   Set_Vcore(unsigned int)
           ENTRY                   ADDRESS         REF BY
           =====                   =======         ======
           _A_PMMCTL0_L            0120 
           LOCAL                   ADDRESS         
           =====                   =======         
           PMMCTL0                 0120 
           PMMCTL0_H               0121 
           PMMCTL0_L               0120 
    -------------------------------------------------------------------------
DATA16_AN
  Relative segment, address: 0124 - 0125 (0x2 bytes), align: 0
  Segment part 9. ROOT        Intra module refs:   Set_Vcore(unsigned int)
           ENTRY                   ADDRESS         REF BY
           =====                   =======         ======
           _A_SVSMHCTL_L           0124 
           LOCAL                   ADDRESS         
           =====                   =======         
           SVSMHCTL                0124 
           SVSMHCTL_H              0125 
           SVSMHCTL_L              0124 
    -------------------------------------------------------------------------
DATA16_AN
  Relative segment, address: 0126 - 0127 (0x2 bytes), align: 0
  Segment part 10. ROOT       Intra module refs:   Set_Vcore(unsigned int)
           ENTRY                   ADDRESS         REF BY
           =====                   =======         ======
           _A_SVSMLCTL_L           0126 
           LOCAL                   ADDRESS         
           =====                   =======         
           SVSMLCTL                0126 
           SVSMLCTL_H              0127 
           SVSMLCTL_L              0126 
    -------------------------------------------------------------------------
DATA16_AN
  Relative segment, address: 012C - 012D (0x2 bytes), align: 0
  Segment part 11. ROOT       Intra module refs:   Set_Vcore(unsigned int)
           ENTRY                   ADDRESS         REF BY
           =====                   =======         ======
           _A_PMMIFG_L             012C 
           LOCAL                   ADDRESS         
           =====                   =======         
           PMMIFG                  012C 
           PMMIFG_H                012D 
           PMMIFG_L                012C 
    -------------------------------------------------------------------------
DATA16_AN
  Relative segment, address: 0102 - 0103 (0x2 bytes), align: 0
  Segment part 12. ROOT       Intra module refs:   Clock_ACLK_DIV(int)
                                                   Clock_Init()
                                                   Clock_SMCLK_DIV(int)
           ENTRY                   ADDRESS         REF BY
           =====                   =======         ======
           _A_SFRIFG1_L            0102 
           LOCAL                   ADDRESS         
           =====                   =======         
           SFRIFG1                 0102 
           SFRIFG1_H               0103 
           SFRIFG1_L               0102 
    -------------------------------------------------------------------------
DATA16_AN
  Relative segment, address: 0168 - 0169 (0x2 bytes), align: 0
  Segment part 13. ROOT       Intra module refs:   Clock_Init()
           ENTRY                   ADDRESS         REF BY
           =====                   =======         ======
           _A_UCSCTL4_L            0168 
           LOCAL                   ADDRESS         
           =====                   =======         
           UCSCTL4                 0168 
           UCSCTL4_H               0169 
           UCSCTL4_L               0168 
    -------------------------------------------------------------------------
DATA16_AN
  Relative segment, address: 016A - 016B (0x2 bytes), align: 0
  Segment part 14. ROOT       Intra module refs:   Clock_ACLK_DIV(int)
                                                   Clock_SMCLK_DIV(int)
           ENTRY                   ADDRESS         REF BY
           =====                   =======         ======
           _A_UCSCTL5_L            016A 
           LOCAL                   ADDRESS         
           =====                   =======         
           UCSCTL5                 016A 
           UCSCTL5_H               016B 
           UCSCTL5_L               016A 
    -------------------------------------------------------------------------
DATA16_AN
  Relative segment, address: 016C - 016D (0x2 bytes), align: 0
  Segment part 15. ROOT       Intra module refs:   Clock_Init()
           ENTRY                   ADDRESS         REF BY
           =====                   =======         ======
           _A_UCSCTL6_L            016C 
           LOCAL                   ADDRESS         
           =====                   =======         
           UCSCTL6                 016C 
           UCSCTL6_H               016D 
           UCSCTL6_L               016C 
    -------------------------------------------------------------------------
DATA16_AN
  Relative segment, address: 016E - 016F (0x2 bytes), align: 0
  Segment part 16. ROOT       Intra module refs:   Clock_Init()
           ENTRY                   ADDRESS         REF BY
           =====                   =======         ======
           _A_UCSCTL7_L            016E 
           LOCAL                   ADDRESS         
           =====                   =======         
           UCSCTL7                 016E 
           UCSCTL7_H               016F 
           UCSCTL7_L               016E 
    -------------------------------------------------------------------------
DATA16_AN
  Relative segment, address: 015C - 015D (0x2 bytes), align: 0
  Segment part 17. ROOT       Intra module refs:   Clock_Init()
                                                   WatchDog_Clear() (timer)
                                                   WatchDog_Init() (timer)
           ENTRY                   ADDRESS         REF BY
           =====                   =======         ======
           _A_WDTCTL_L             015C 
           LOCAL                   ADDRESS         
           =====                   =======         
           WDTCTL                  015C 
           WDTCTL_H                015D 
           WDTCTL_L                015C 
    -------------------------------------------------------------------------
DATA16_Z
  Relative segment, address: 1C04 - 1C05 (0x2 bytes), align: 1
  Segment part 36.            Intra module refs:   TraceFunctionLine(char const *, int)
                                                   TraceMsgFuncLine(char *, int, char const *, int)
                                                   TraceOpen()
           ENTRY                   ADDRESS         REF BY
           =====                   =======         ======
           trace_open              1C04 
    -------------------------------------------------------------------------
DATA16_Z
  Relative segment, address: 1C06 - 1C07 (0x2 bytes), align: 1
  Segment part 37.            Intra module refs:   System_Delayms(unsigned int)
           LOCAL                   ADDRESS         
           =====                   =======         
           s_clock                 1C06 
    -------------------------------------------------------------------------
DATA16_Z
  Relative segment, address: 1C08 - 1C09 (0x2 bytes), align: 1
  Segment part 38.            Intra module refs:   DownInt()
                                                   UpInt()
           LOCAL                   ADDRESS         
           =====                   =======         
           _int                    1C08 
    -------------------------------------------------------------------------
DATA16_Z
  Relative segment, address: 1C0A - 1C0B (0x2 bytes), align: 1
  Segment part 39.            Intra module refs:   Clear_ExternWatchdog()
           LOCAL                   ADDRESS         
           =====                   =======         
           s_reset_pin             1C0A 
    -------------------------------------------------------------------------
<CODE> 1 (was CODE)
  Relative segment, address: B79C - B7A9 (0xe bytes), align: 1
  Segment part 40.
           ENTRY                   ADDRESS         REF BY
           =====                   =======         ======
           TraceOpen()             B79C            Main_Init() (main)
               calls direct
    -------------------------------------------------------------------------
<CODE> 1 (was CODE)
  Relative segment, address: AFAE - AFCD (0x20 bytes), align: 1
  Segment part 41.            Intra module refs:   TraceMsgFuncLine(char *, int, char const *, int)
           ENTRY                   ADDRESS         REF BY
           =====                   =======         ======
           TraceFunctionLine(char const *, int)
                                   AFAE 
               calls direct
    -------------------------------------------------------------------------
<CODE> 1 (was CODE)
  Relative segment, address: A7AA - A7DB (0x32 bytes), align: 1
  Segment part 43.
           ENTRY                   ADDRESS         REF BY
           =====                   =======         ======
           TraceMsgFuncLine(char *, int, char const *, int)
                                   A7AA            main (main)
               calls direct
    -------------------------------------------------------------------------
<CODE> 1 (was CODE)
  Relative segment, address: A4C6 - A4FD (0x38 bytes), align: 1
  Segment part 51.            Intra module refs:   Clock_Init()
           ENTRY                   ADDRESS         REF BY
           =====                   =======         ======
           System_Delayms(unsigned int)
                                   A4C6            I2C_STOP() (rom)
                                                   Led_Round() (led)
                                                   RTC_Open() (rtc)
                                                   UART3_Send(char *, int, int) (uart3)
                                                   main (main)
    -------------------------------------------------------------------------
<CODE> 1 (was CODE)
  Relative segment, address: B9A4 - B9AD (0xa bytes), align: 1
  Segment part 53.
           ENTRY                   ADDRESS         REF BY
           =====                   =======         ======
           DownInt()               B9A4            ROM_ReadBytes_Page(unsigned long long, char *, int) (rom)
                                                   ROM_WriteBytes_Page_(unsigned long long, char const *, int) (rom)
                                                   RTC_Open() (rtc)
                                                   UART3_ClearBuffer() (uart3)
    -------------------------------------------------------------------------
<CODE> 1 (was CODE)
  Relative segment, address: B34A - B361 (0x18 bytes), align: 1
  Segment part 54.
           ENTRY                   ADDRESS         REF BY
           =====                   =======         ======
           UpInt()                 B34A            ROM_ReadBytes_Page(unsigned long long, char *, int) (rom)
                                                   ROM_WriteBytes_Page_(unsigned long long, char const *, int) (rom)
                                                   RTC_Open() (rtc)
                                                   UART3_ClearBuffer() (uart3)
    -------------------------------------------------------------------------
<CODE> 1 (was CODE)
  Relative segment, address: BA80 - BA85 (0x6 bytes), align: 1
  Segment part 58.
           ENTRY                   ADDRESS         REF BY
           =====                   =======         ======
           EnInt()                 BA80            Main_Init() (main)
    -------------------------------------------------------------------------
<CODE> 1 (was CODE)
  Relative segment, address: B87C - B889 (0xe bytes), align: 1
  Segment part 59.
           ENTRY                   ADDRESS         REF BY
           =====                   =======         ======
           Max3222_Open()          B87C            main (main)
    -------------------------------------------------------------------------
<CODE> 1 (was CODE)
  Relative segment, address: 94B2 - 9519 (0x68 bytes), align: 1
  Segment part 62.            Intra module refs:   Clock_Init()
           ENTRY                   ADDRESS         REF BY
           =====                   =======         ======
           Clock_SMCLK_DIV(int)    94B2 
    -------------------------------------------------------------------------
<CODE> 1 (was CODE)
  Relative segment, address: 951A - 9581 (0x68 bytes), align: 1
  Segment part 63.            Intra module refs:   Clock_Init()
           ENTRY                   ADDRESS         REF BY
           =====                   =======         ======
           Clock_ACLK_DIV(int)     951A 
    -------------------------------------------------------------------------
<CODE> 1 (was CODE)
  Relative segment, address: 9A46 - 9A9B (0x56 bytes), align: 1
  Segment part 64.            Intra module refs:   Clock_Init()
           ENTRY                   ADDRESS         REF BY
           =====                   =======         ======
           Set_Vcore(unsigned int)
                                   9A46 
    -------------------------------------------------------------------------
<CODE> 1 (was CODE)
  Relative segment, address: 9882 - 98DD (0x5c bytes), align: 1
  Segment part 65.
           ENTRY                   ADDRESS         REF BY
           =====                   =======         ======
           Clock_Init()            9882            Restart_Init() (main)
               calls direct
    -------------------------------------------------------------------------
<CODE> 1 (was CODE)
  Relative segment, address: B3DA - B3EF (0x16 bytes), align: 1
  Segment part 72.
           ENTRY                   ADDRESS         REF BY
           =====                   =======         ======
           Utility_Strlen(char *)
                                   B3DA            Console_WriteString(char *) (Console)
                                                   Console_WriteStringln(char *) (Console)
    -------------------------------------------------------------------------
<CODE> 1 (was CODE)
  Relative segment, address: 93DA - 9445 (0x6c bytes), align: 1
  Segment part 45.
           ENTRY                   ADDRESS         REF BY
           =====                   =======         ======
           Utility_UintToStr4(unsigned int, char *)
                                   93DA            Console_WriteInt(int) (Console)
               calls direct
    -------------------------------------------------------------------------
<CODE> 1 (was CODE)
  Relative segment, address: B02E - B04B (0x1e bytes), align: 1
  Segment part 95.
           ENTRY                   ADDRESS         REF BY
           =====                   =======         ======
           Clear_ExternWatchdog()
                                   B02E            TIMERB1_ISR() (timer)
    -------------------------------------------------------------------------
DATA16_C
  Relative segment, address: 5C1C - 5C1D (0x2 bytes), align: 0
  Segment part 19.            Intra module refs:   TraceFunctionLine(char const *, int)

    *************************************************************************

  FILE NAME : \\Mac\Home\work\ETL\Debug\Obj\comp_b.r43
    *************************************************************************

  FILE NAME : \\Mac\Home\work\ETL\Debug\Obj\Console.r43
  PROGRAM MODULE, NAME : Console

  SEGMENTS IN THE MODULE
  ======================
<CODE> 1 (was CODE)
  Relative segment, address: BC26 - BC29 (0x4 bytes), align: 1
  Segment part 4.             Intra module refs:   DataPage::~DataPage() (dualpool)
                                                   ETL::InitialPhysicalPages() (etl)
                                                   ETL::ReadDataPage(int, DataPage *) (etl)
                                                   ETL::WriteDataPage(int, DataPage *) (etl)
           ENTRY                   ADDRESS         REF BY
           =====                   =======         ======
           free                    BC26 
               calls direct
    -------------------------------------------------------------------------
<CODE> 1 (was CODE)
  Relative segment, address: B986 - B98F (0xa bytes), align: 1
  Segment part 6.
           ENTRY                   ADDRESS         REF BY
           =====                   =======         ======
           Console_Open()          B986            Restart_Init() (main)
                                                   TraceOpen() (common)
               calls direct
    -------------------------------------------------------------------------
<CODE> 1 (was CODE)
  Relative segment, address: BA3E - BA45 (0x8 bytes), align: 1
  Segment part 7.
           ENTRY                   ADDRESS         REF BY
           =====                   =======         ======
           Console_Close()         BA3E            TraceOpen() (common)
               calls direct
    -------------------------------------------------------------------------
<CODE> 1 (was CODE)
  Relative segment, address: AC52 - AC75 (0x24 bytes), align: 1
  Segment part 11.
           ENTRY                   ADDRESS         REF BY
           =====                   =======         ======
           Console_WriteString(char *)
                                   AC52            TraceFunctionLine(char const *, int) (common)
                                                   TraceMsgFuncLine(char *, int, char const *, int) (common)
               calls direct
    -------------------------------------------------------------------------
<CODE> 1 (was CODE)
  Relative segment, address: ABE6 - AC09 (0x24 bytes), align: 1
  Segment part 9.
           ENTRY                   ADDRESS         REF BY
           =====                   =======         ======
           Console_WriteStringln(char *)
                                   ABE6            TraceMsgFuncLine(char *, int, char const *, int) (common)
               calls direct
    -------------------------------------------------------------------------
<CODE> 1 (was CODE)
  Relative segment, address: B4EE - B501 (0x14 bytes), align: 1
  Segment part 8.             Intra module refs:   Console_WriteInt(int)
           ENTRY                   ADDRESS         REF BY
           =====                   =======         ======
           Console_WriteBytesln(char *, int)
                                   B4EE 
               calls direct
    -------------------------------------------------------------------------
<CODE> 1 (was CODE)
  Relative segment, address: B236 - B24F (0x1a bytes), align: 1
  Segment part 13.
           ENTRY                   ADDRESS         REF BY
           =====                   =======         ======
           Console_WriteInt(int)   B236            TraceFunctionLine(char const *, int) (common)
               calls direct

    *************************************************************************

  FILE NAME : \\Mac\Home\work\ETL\Debug\Obj\crc.r43
    *************************************************************************

  FILE NAME : \\Mac\Home\work\ETL\Debug\Obj\cstartup.r43
  LIBRARY MODULE, NAME : ?cstart

Absolute parts
           LOCAL                   ADDRESS         
           =====                   =======         
           __MSP430F5212__         0000 
  SEGMENTS IN THE MODULE
  ======================
CSTACK
  Relative segment, address: 4C60, align: 1
  Segment part 1.
    -------------------------------------------------------------------------
DATA16_Z
  Relative segment, address: 1C0C, align: 1
  Segment part 2.
    -------------------------------------------------------------------------
DATA16_I
  Relative segment, address: 1C00, align: 1
  Segment part 3.
    -------------------------------------------------------------------------
DATA16_ID
  Relative segment, address: 5F58, align: 1
  Segment part 4.
    -------------------------------------------------------------------------
CODE_I
  Relative segment, address: 4452, align: 1
  Segment part 5.
    -------------------------------------------------------------------------
CODE_ID
  Relative segment, address: BCAE, align: 1
  Segment part 6.
    -------------------------------------------------------------------------
DATA20_Z
  Relative segment, address: 4452, align: 1
  Segment part 7.
    -------------------------------------------------------------------------
DATA20_I
  Relative segment, address: 4452, align: 1
  Segment part 8.
    -------------------------------------------------------------------------
DATA20_ID
  Relative segment, address: BCAE, align: 1
  Segment part 9.
    -------------------------------------------------------------------------
DATA20_C
  Relative segment, address: BCAE, align: 1
  Segment part 10.
    -------------------------------------------------------------------------
DATA20_N
  Relative segment, address: 4452, align: 1
  Segment part 12.
    -------------------------------------------------------------------------
CSTART
  Relative segment, address: 5F5C - 5F65 (0xa bytes), align: 1
  Segment part 15.
           ENTRY                   ADDRESS         REF BY
           =====                   =======         ======
           __program_start         5F5C            ?reset_vector (?reset_vector)
                                                   Absolute parts (?ABS_ENTRY_MOD)
           ?cstart_begin           5F5C 
    -------------------------------------------------------------------------
CSTART
  Relative segment, address: 5F66 - 5F71 (0xc bytes), align: 1
  Segment part 20.
           ENTRY                   ADDRESS         REF BY
           =====                   =======         ======
           ?cstart_init_zero       5F66            GetCharSelBitCnt(char)::dict (tool)
                                                   GetCharSelBitCnt(char)::static guard for dict (tool)
                                                   IsGetInput (uart0)
                                                   Is_RS485_1 (main)
                                                   Is_uart1_RX_INT (main)
                                                   Is_uart3_RX_INT (uart3)
                                                   Segment part 2 (?xgetmemchunk)
                                                   UART0_Rx_BufLen (uart0)
                                                   UART0_Rx_Buffer (uart0)
                                                   UART0_Rx_INTIndex (uart0)
                                                   UART0_Rx_INTLen (uart0)
                                                   UART1_Rx_BufLen (uart1)
                                                   UART1_Rx_Buffer (uart1)
                                                   UART1_Rx_INTIndex (uart1)
                                                   UART1_Rx_INTLen (uart1)
                                                   UART3_Rx_BufLen (uart3)
                                                   UART3_Rx_Buffer (uart3)
                                                   UART3_Rx_INTIndex (uart3)
                                                   UART3_Rx_INTLen (uart3)
                                                   UART3_Rx_RecvIndex (uart3)
                                                   UART3_Tx_Buf (uart3)
                                                   UART3_Tx_Flag (uart3)
                                                   UART3_Tx_Len (uart3)
                                                   __data16_Aldata (?xxmemxmalloc)
                                                   __iar_New_hand (?new)
                                                   _int (common)
                                                   s_ClockTicks (timer)
                                                   s_clock (common)
                                                   s_reset_count (timer)
                                                   s_reset_pin (common)
                                                   s_uart1_type (uart1)
                                                   s_uart3_type (uart3)
                                                   trace_open (common)
    -------------------------------------------------------------------------
CSTART
  Relative segment, address: 5F72 - 5F81 (0x10 bytes), align: 1
  Segment part 21.
           ENTRY                   ADDRESS         REF BY
           =====                   =======         ======
           ?cstart_init_copy       5F72            IsDebug (main)
                                                   Opened (main)
    -------------------------------------------------------------------------
CSTART
  Relative segment, address: 5F82 - 5F89 (0x8 bytes), align: 1
  Segment part 27.            Intra module refs:   Segment part 15
           ENTRY                   ADDRESS         REF BY
           =====                   =======         ======
           ?cstart_call_main       5F82 
           ?cstart_end             5F8A 
    -------------------------------------------------------------------------
CODE_ID
  Relative segment, address: BCAE, align: 1
  Segment part 28.            Intra module refs:   Segment part 5

    -------------------------------------------------------------------------
  LIBRARY MODULE, NAME : ?reset_vector

  SEGMENTS IN THE MODULE
  ======================
RESET
  Relative segment, address: FFFE - FFFF (0x2 bytes), align: 1
  Segment part 0.
           ENTRY                   ADDRESS         REF BY
           =====                   =======         ======
           ?reset_vector           FFFE            Segment part 15 (?cstart)

    *************************************************************************

  FILE NAME : \\Mac\Home\work\ETL\Debug\Obj\ctsd16.r43
    *************************************************************************

  FILE NAME : \\Mac\Home\work\ETL\Debug\Obj\dac12_a.r43
    *************************************************************************

  FILE NAME : \\Mac\Home\work\ETL\Debug\Obj\datapage.r43
    *************************************************************************

  FILE NAME : \\Mac\Home\work\ETL\Debug\Obj\debug.r43
    *************************************************************************

  FILE NAME : \\Mac\Home\work\ETL\Debug\Obj\dma.r43
    *************************************************************************

  FILE NAME : \\Mac\Home\work\ETL\Debug\Obj\duallru.r43
  PROGRAM MODULE, NAME : duallru

  SEGMENTS IN THE MODULE
  ======================
<CODE> 1 (was CODE)
  Relative segment, address: BAA4 - BAA9 (0x6 bytes), align: 1
  Segment part 2.             Intra module refs:   void _ClassUtil::_MemHolder<pair<int const, list<pair<int, int>>::iterator>, less<int>>::_MemHolder(_Ty1 const &)[with _Ty1=less<int>]
           ENTRY                   ADDRESS         REF BY
           =====                   =======         ======
           void _ClassUtil::_MemHolder<pair<int const, list<pair<int, int>>::iterator>, less<int>>::_Helper<less<int>, 0>::_Helper(_Ty2 const &)[with _Ty2=less<int>]
                                   BAA4 
    -------------------------------------------------------------------------
<CODE> 1 (was CODE)
  Relative segment, address: BC9C - BC9D (0x2 bytes), align: 1
  Segment part 21.            Intra module refs:   _ClassUtil::_MemHolder<pair<int const, list<pair<int, int>>::iterator>, less<int>>::operator less<int> const &() const
           ENTRY                   ADDRESS         REF BY
           =====                   =======         ======
           _ClassUtil::_MemHolder<pair<int const, list<pair<int, int>>::iterator>, less<int>>::_Helper<less<int>, 0>::Ref() const
                                   BC9C 
    -------------------------------------------------------------------------
<CODE> 1 (was CODE)
  Relative segment, address: BC9A - BC9B (0x2 bytes), align: 1
  Segment part 22.            Intra module refs:   _ClassUtil::_MemHolder<pair<int const, list<pair<int, int>>::iterator>, less<int>>::operator less<int> &()
           ENTRY                   ADDRESS         REF BY
           =====                   =======         ======
           _ClassUtil::_MemHolder<pair<int const, list<pair<int, int>>::iterator>, less<int>>::_Helper<less<int>, 0>::Ref()
                                   BC9A 
    -------------------------------------------------------------------------
<CODE> 1 (was CODE)
  Relative segment, address: B6BE - B6CD (0x10 bytes), align: 1
  Segment part 3.             Intra module refs:   _Tree_nod<_Tmap_traits<int, list<pair<int, int>>::iterator, less<int>, allocator<pair<int const, list<pair<int, int>>::iterator>>, 0>>::_Tree_nod(less<int> const &, allocator<pair<int const, list<pair<int, int>>::iterator>>)
           ENTRY                   ADDRESS         REF BY
           =====                   =======         ======
           void _ClassUtil::_MemHolder<pair<int const, list<pair<int, int>>::iterator>, less<int>>::_MemHolder(_Ty1 const &)[with _Ty1=less<int>]
                                   B6BE 
               calls direct
    -------------------------------------------------------------------------
<CODE> 1 (was CODE)
  Relative segment, address: BB66 - BB69 (0x4 bytes), align: 1
  Segment part 23.            Intra module refs:   _Tree_nod<_Tmap_traits<int, list<pair<int, int>>::iterator, less<int>, allocator<pair<int const, list<pair<int, int>>::iterator>>, 0>>::comp() const
           ENTRY                   ADDRESS         REF BY
           =====                   =======         ======
           _ClassUtil::_MemHolder<pair<int const, list<pair<int, int>>::iterator>, less<int>>::operator less<int> const &() const
                                   BB66 
               calls direct
    -------------------------------------------------------------------------
<CODE> 1 (was CODE)
  Relative segment, address: BB56 - BB59 (0x4 bytes), align: 1
  Segment part 24.            Intra module refs:   _Tree_nod<_Tmap_traits<int, list<pair<int, int>>::iterator, less<int>, allocator<pair<int const, list<pair<int, int>>::iterator>>, 0>>::comp()
           ENTRY                   ADDRESS         REF BY
           =====                   =======         ======
           _ClassUtil::_MemHolder<pair<int const, list<pair<int, int>>::iterator>, less<int>>::operator less<int> &()
                                   BB56 
               calls direct
    -------------------------------------------------------------------------
<CODE> 1 (was CODE)
  Relative segment, address: BC94 - BC95 (0x2 bytes), align: 1
  Segment part 5.             Intra module refs:   _Tree_algobase<allocator<void>>::_Tree_algobase(allocator<void> const &)
           ENTRY                   ADDRESS         REF BY
           =====                   =======         ======
           _ClassUtil::_AllocHolder<><_Alloc, false>[with _Alloc=allocator<void>]::_AllocHolder(allocator<void>)
                                   BC94 
    -------------------------------------------------------------------------
<CODE> 1 (was CODE)
  Relative segment, address: BC92 - BC93 (0x2 bytes), align: 1
  Segment part 25.            Intra module refs:   _List_value<allocator<void>>::_Alty()
                                                   _Vector_impl<unsigned char, allocator<unsigned char>>::_Make_room(unsigned char *, unsigned int) (dualpool)
                                                   _Vector_impl<unsigned char, allocator<unsigned char>>::_Ucopy(unsigned char const *, unsigned char const *, unsigned char *) (dualpool)
                                                   _Vector_impl<unsigned char, allocator<unsigned char>>::_Ufill(unsigned char *, unsigned int, unsigned char) (dualpool)
                                                   _Vector_impl<unsigned short, allocator<unsigned short>>::_Make_room(unsigned short *, unsigned int) (tool)
                                                   _Vector_impl<unsigned short, allocator<unsigned short>>::_Ucopy(unsigned short const *, unsigned short const *, unsigned short *) (tool)
                                                   _Vector_impl<unsigned short, allocator<unsigned short>>::_Ufill(unsigned short *, unsigned int, unsigned short) (tool)
           ENTRY                   ADDRESS         REF BY
           =====                   =======         ======
           _ClassUtil::_AllocHolder<><_Alloc, false>[with _Alloc=allocator<void>]::_Alval()
                                   BC92 
    -------------------------------------------------------------------------
<CODE> 1 (was CODE)
  Relative segment, address: BC90 - BC91 (0x2 bytes), align: 1
  Segment part 26.            Intra module refs:   _Tree<_Tmap_traits<int, list<pair<int, int>>::iterator, less<int>, allocator<pair<int const, list<pair<int, int>>::iterator>>, 0>>::_Alnod() const
                                                   _Tree<_Tmap_traits<unsigned int, unsigned int, less<unsigned int>, allocator<pair<unsigned int const, unsigned int>>, 0>>::_Alnod() const (etl)
                                                   _Vector_impl<unsigned char, allocator<unsigned char>>::_Altyval() const (dualpool)
                                                   _Vector_impl<unsigned short, allocator<unsigned short>>::_Altyval() const (tool)
                                                   list<pair<int, int>>::_Alnod() const
           ENTRY                   ADDRESS         REF BY
           =====                   =======         ======
           _ClassUtil::_AllocHolder<><_Alloc, false>[with _Alloc=allocator<void>]::_Alval() const
                                   BC90 
    -------------------------------------------------------------------------
<CODE> 1 (was CODE)
  Relative segment, address: B8A2 - B8AD (0xc bytes), align: 1
  Segment part 27.            Intra module refs:   _Tree<_Tmap_traits<int, list<pair<int, int>>::iterator, less<int>, allocator<pair<int const, list<pair<int, int>>::iterator>>, 0>>::_Lbound(int) const
                                                   _Tree<_Tmap_traits<int, list<pair<int, int>>::iterator, less<int>, allocator<pair<int const, list<pair<int, int>>::iterator>>, 0>>::_Ubound(int) const
                                                   _Tree<_Tmap_traits<int, list<pair<int, int>>::iterator, less<int>, allocator<pair<int const, list<pair<int, int>>::iterator>>, 0>>::insert(pair<int const, list<pair<int, int>>::iterator> const &)
           ENTRY                   ADDRESS         REF BY
           =====                   =======         ======
           less<int>::operator()(int, int) const
                                   B8A2 
    -------------------------------------------------------------------------
<CODE> 1 (was CODE)
  Relative segment, address: B8BA - B8C5 (0xc bytes), align: 1
  Segment part 28.            Intra module refs:   _Tree_algobase<allocator<void>>::_Erase(_Genptr)
           ENTRY                   ADDRESS         REF BY
           =====                   =======         ======
           void swap(_Ty &, _Ty &)[with _Ty=char]
                                   B8BA 
    -------------------------------------------------------------------------
<CODE> 1 (was CODE)
  Relative segment, address: B3F0 - B405 (0x16 bytes), align: 1
  Segment part 31.            Intra module refs:   map<int, list<pair<int, int>>::iterator>::operator[](int)
           ENTRY                   ADDRESS         REF BY
           =====                   =======         ======
           pair<int const, list<pair<int, int>>::iterator>::pair(int)
                                   B3F0 
               calls direct
    -------------------------------------------------------------------------
<CODE> 1 (was CODE)
  Relative segment, address: B95E - B967 (0xa bytes), align: 1
  Segment part 32.            Intra module refs:   DualLRU::PutIntoSubCache(int, int)
                                                   LRUCache::Get(int) (lru)
                                                   LRUCache::Put(int, int) (lru)
           ENTRY                   ADDRESS         REF BY
           =====                   =======         ======
           pair<int, int>::pair(int, int)
                                   B95E 
    -------------------------------------------------------------------------
<CODE> 1 (was CODE)
  Relative segment, address: B90E - B917 (0xa bytes), align: 1
  Segment part 33.            Intra module refs:   _Tree<_Tmap_traits<int, list<pair<int, int>>::iterator, less<int>, allocator<pair<int const, list<pair<int, int>>::iterator>>, 0>>::equal_range(int) const
           ENTRY                   ADDRESS         REF BY
           =====                   =======         ======
           pair<_Tree<_Tmap_traits<int, list<pair<int, int>>::iterator, less<int>, allocator<pair<int const, list<pair<int, int>>::iterator>>, 0>>::const_iterator, _Tree<_Tmap_traits<int, list<pair<int, int>>::iterator, less<int>, allocator<pair<int const, list<pair<int, int>>::iterator>>, 0>>::const_iterator>::pair(_TypeUtil::_ParameterType<_Tree<_Tmap_traits<int, list<pair<int, int>>::iterator, less<int>, allocator<pair<int const, list<pair<int, int>>::iterator>>, 0>>::const_iterator>::_Type, _TypeUtil::_ParameterType<_Tree<_Tmap_traits<int, list<pair<int, int>>::iterator, less<int>, allocator<pair<int const, list<pair<int, int>>::iterator>>, 0>>::const_iterator>::_Type)
                                   B90E 
    -------------------------------------------------------------------------
<CODE> 1 (was CODE)
  Relative segment, address: B954 - B95D (0xa bytes), align: 1
  Segment part 34.            Intra module refs:   _Tree<_Tmap_traits<int, list<pair<int, int>>::iterator, less<int>, allocator<pair<int const, list<pair<int, int>>::iterator>>, 0>>::insert(pair<int const, list<pair<int, int>>::iterator> const &)
           ENTRY                   ADDRESS         REF BY
           =====                   =======         ======
           pair<_Tree<_Tmap_traits<int, list<pair<int, int>>::iterator, less<int>, allocator<pair<int const, list<pair<int, int>>::iterator>>, 0>>::iterator, bool>::pair(_ParamTy1, bool)
                                   B954 
    -------------------------------------------------------------------------
<CODE> 1 (was CODE)
  Relative segment, address: B968 - B971 (0xa bytes), align: 1
  Segment part 35.            Intra module refs:   _Tree<_Tmap_traits<int, list<pair<int, int>>::iterator, less<int>, allocator<pair<int const, list<pair<int, int>>::iterator>>, 0>>::equal_range(int)
           ENTRY                   ADDRESS         REF BY
           =====                   =======         ======
           pair<_Tree<_Tmap_traits<int, list<pair<int, int>>::iterator, less<int>, allocator<pair<int const, list<pair<int, int>>::iterator>>, 0>>::iterator, _Tree<_Tmap_traits<int, list<pair<int, int>>::iterator, less<int>, allocator<pair<int const, list<pair<int, int>>::iterator>>, 0>>::iterator>::pair(_TypeUtil::_ParameterType<_Tree<_Tmap_traits<int, list<pair<int, int>>::iterator, less<int>, allocator<pair<int const, list<pair<int, int>>::iterator>>, 0>>::iterator>::_Type, _TypeUtil::_ParameterType<_Tree<_Tmap_traits<int, list<pair<int, int>>::iterator, less<int>, allocator<pair<int const, list<pair<int, int>>::iterator>>, 0>>::iterator>::_Type)
                                   B968 
    -------------------------------------------------------------------------
<CODE> 1 (was CODE)
  Relative segment, address: AA32 - AA5B (0x2a bytes), align: 1
  Segment part 44.            Intra module refs:   iterator_traits<_InIt>::difference_type distance(_InIt, _InIt)[with _InIt=_TypeUtil::_StripMemory<_Tree<_Tmap_traits<int, list<pair<int, int>>::iterator, less<int>, allocator<pair<int const, list<pair<int, int>>::iterator>>, 0>>::const_iterator>::_Type]
           ENTRY                   ADDRESS         REF BY
           =====                   =======         ======
           iterator_traits<_InIt>::difference_type _DistanceHelper<bidirectional_iterator_tag>::_Distance(_InIt, _InIt)[with _InIt=_TypeUtil::_StripMemory<_Tree<_Tmap_traits<int, list<pair<int, int>>::iterator, less<int>, allocator<pair<int const, list<pair<int, int>>::iterator>>, 0>>::const_iterator>::_Type]
                                   AA32 
               calls direct
    -------------------------------------------------------------------------
<CODE> 1 (was CODE)
  Relative segment, address: AA5C - AA85 (0x2a bytes), align: 1
  Segment part 46.            Intra module refs:   iterator_traits<_InIt>::difference_type distance(_InIt, _InIt)[with _InIt=_TypeUtil::_StripMemory<_Tree<_Tmap_traits<int, list<pair<int, int>>::iterator, less<int>, allocator<pair<int const, list<pair<int, int>>::iterator>>, 0>>::iterator>::_Type]
           ENTRY                   ADDRESS         REF BY
           =====                   =======         ======
           iterator_traits<_InIt>::difference_type _DistanceHelper<bidirectional_iterator_tag>::_Distance(_InIt, _InIt)[with _InIt=_TypeUtil::_StripMemory<_Tree<_Tmap_traits<int, list<pair<int, int>>::iterator, less<int>, allocator<pair<int const, list<pair<int, int>>::iterator>>, 0>>::iterator>::_Type]
                                   AA5C 
               calls direct
    -------------------------------------------------------------------------
<CODE> 1 (was CODE)
  Relative segment, address: B582 - B593 (0x12 bytes), align: 1
  Segment part 47.            Intra module refs:   _Tree<_Tmap_traits<int, list<pair<int, int>>::iterator, less<int>, allocator<pair<int const, list<pair<int, int>>::iterator>>, 0>>::count(int) const
           ENTRY                   ADDRESS         REF BY
           =====                   =======         ======
           iterator_traits<_InIt>::difference_type distance(_InIt, _InIt)[with _InIt=_TypeUtil::_StripMemory<_Tree<_Tmap_traits<int, list<pair<int, int>>::iterator, less<int>, allocator<pair<int const, list<pair<int, int>>::iterator>>, 0>>::const_iterator>::_Type]
                                   B582 
               calls direct
    -------------------------------------------------------------------------
<CODE> 1 (was CODE)
  Relative segment, address: B5A6 - B5B7 (0x12 bytes), align: 1
  Segment part 48.            Intra module refs:   _Tree<_Tmap_traits<int, list<pair<int, int>>::iterator, less<int>, allocator<pair<int const, list<pair<int, int>>::iterator>>, 0>>::erase(int)
           ENTRY                   ADDRESS         REF BY
           =====                   =======         ======
           iterator_traits<_InIt>::difference_type distance(_InIt, _InIt)[with _InIt=_TypeUtil::_StripMemory<_Tree<_Tmap_traits<int, list<pair<int, int>>::iterator, less<int>, allocator<pair<int const, list<pair<int, int>>::iterator>>, 0>>::iterator>::_Type]
                                   B5A6 
               calls direct
    -------------------------------------------------------------------------
<CODE> 1 (was CODE)
  Relative segment, address: BC3A - BC3D (0x4 bytes), align: 1
  Segment part 49.            Intra module refs:   _Tree<_Tmap_traits<int, list<pair<int, int>>::iterator, less<int>, allocator<pair<int const, list<pair<int, int>>::iterator>>, 0>>::_Buynode(_Nodeptr, _Nodeptr, _Nodeptr, pair<int const, list<pair<int, int>>::iterator> const &, char)
                                                   _Tree<_Tmap_traits<unsigned int, unsigned int, less<unsigned int>, allocator<pair<unsigned int const, unsigned int>>, 0>>::_Buynode(_Nodeptr, _Nodeptr, _Nodeptr, pair<unsigned int const, unsigned int> const &, char) (etl)
                                                   list<pair<int, int>>::_Buynode(_Nodeptr, _Nodeptr, _ParamTy)
           ENTRY                   ADDRESS         REF BY
           =====                   =======         ======
           operator new(unsigned int, void *)
                                   BC3A 
    -------------------------------------------------------------------------
<CODE> 1 (was CODE)
  Relative segment, address: BC62 - BC65 (0x4 bytes), align: 1
  Segment part 50.            Intra module refs:   allocator<_Tree_nod<_Tmap_traits<int, list<pair<int, int>>::iterator, less<int>, allocator<pair<int const, list<pair<int, int>>::iterator>>, 0>>::_Node>::allocate(unsigned int)
                                                   allocator<_Tree_nod<_Tmap_traits<unsigned int, unsigned int, less<unsigned int>, allocator<pair<unsigned int const, unsigned int>>, 0>>::_Node>::allocate(unsigned int) (etl)
                                                   allocator<list<pair<int, int>>::_Node>::allocate(unsigned int)
                                                   allocator<unsigned char>::allocate(unsigned int) (dualpool)
                                                   allocator<unsigned short>::allocate(unsigned int) (tool)
           ENTRY                   ADDRESS         REF BY
           =====                   =======         ======
           _Allocator<void>::allocate(unsigned int)
                                   BC62 
               calls direct
    -------------------------------------------------------------------------
<CODE> 1 (was CODE)
  Relative segment, address: BC66 - BC69 (0x4 bytes), align: 1
  Segment part 51.            Intra module refs:   allocator<_Tree_nod<_Tmap_traits<int, list<pair<int, int>>::iterator, less<int>, allocator<pair<int const, list<pair<int, int>>::iterator>>, 0>>::_Node>::deallocate(pointer, unsigned int)
                                                   allocator<list<pair<int, int>>::_Node>::deallocate(list<pair<int, int>>::_Node *, unsigned int)
                                                   allocator<unsigned char>::deallocate(unsigned char *, unsigned int) (dualpool)
                                                   allocator<unsigned short>::deallocate(unsigned short *, unsigned int) (tool)
           ENTRY                   ADDRESS         REF BY
           =====                   =======         ======
           _Allocator<void>::deallocate(void *)
                                   BC66 
               calls direct
    -------------------------------------------------------------------------
<CODE> 1 (was CODE)
  Relative segment, address: BC6A - BC6D (0x4 bytes), align: 1
  Segment part 53.            Intra module refs:   allocator<_Tree_nod<_Tmap_traits<int, list<pair<int, int>>::iterator, less<int>, allocator<pair<int const, list<pair<int, int>>::iterator>>, 0>>::_Node>::destroy(pointer)
           ENTRY                   ADDRESS         REF BY
           =====                   =======         ======
           void _Destroy(_Ty *)[with _Ty=allocator<_Tree_nod<_Tmap_traits<int, list<pair<int, int>>::iterator, less<int>, allocator<pair<int const, list<pair<int, int>>::iterator>>, 0>>::_Node>::value_type]
                                   BC6A 
               calls direct
    -------------------------------------------------------------------------
<CODE> 1 (was CODE)
  Relative segment, address: BC6E - BC71 (0x4 bytes), align: 1
  Segment part 55.            Intra module refs:   allocator<list<pair<int, int>>::_Node>::destroy(list<pair<int, int>>::_Node *)
           ENTRY                   ADDRESS         REF BY
           =====                   =======         ======
           void _Destroy(_Ty *)[with _Ty=list<pair<int, int>>::_Node]
                                   BC6E 
               calls direct
    -------------------------------------------------------------------------
<CODE> 1 (was CODE)
  Relative segment, address: BC76 - BC77 (0x2 bytes), align: 1
  Segment part 56.            Intra module refs:   _List_value<allocator<void>>::_Alty()
           ENTRY                   ADDRESS         REF BY
           =====                   =======         ======
           void allocator<_List_value<allocator<void>>::_GenNode>::allocator(allocator<_Other> const &)[with _Other=void]
                                   BC76 
    -------------------------------------------------------------------------
<CODE> 1 (was CODE)
  Relative segment, address: BC78 - BC79 (0x2 bytes), align: 1
  Segment part 57.            Intra module refs:   _Tree<_Tmap_traits<int, list<pair<int, int>>::iterator, less<int>, allocator<pair<int const, list<pair<int, int>>::iterator>>, 0>>::_Alnod() const
           ENTRY                   ADDRESS         REF BY
           =====                   =======         ======
           void allocator<_Tree_nod<_Tmap_traits<int, list<pair<int, int>>::iterator, less<int>, allocator<pair<int const, list<pair<int, int>>::iterator>>, 0>>::_Node>::allocator(allocator<_Other> const &)[with _Other=void]
                                   BC78 
    -------------------------------------------------------------------------
<CODE> 1 (was CODE)
  Relative segment, address: BC7A - BC7B (0x2 bytes), align: 1
  Segment part 58.            Intra module refs:   list<pair<int, int>>::_Alnod() const
           ENTRY                   ADDRESS         REF BY
           =====                   =======         ======
           void allocator<list<pair<int, int>>::_Node>::allocator(allocator<_Other> const &)[with _Other=void]
                                   BC7A 
    -------------------------------------------------------------------------
<CODE> 1 (was CODE)
  Relative segment, address: BB40 - BB45 (0x6 bytes), align: 1
  Segment part 59.            Intra module refs:   _Tree<_Tmap_traits<int, list<pair<int, int>>::iterator, less<int>, allocator<pair<int const, list<pair<int, int>>::iterator>>, 0>>::_Erase(_Nodeptr)
                                                   _Tree<_Tmap_traits<int, list<pair<int, int>>::iterator, less<int>, allocator<pair<int const, list<pair<int, int>>::iterator>>, 0>>::erase(iterator)
           ENTRY                   ADDRESS         REF BY
           =====                   =======         ======
           allocator<_Tree_nod<_Tmap_traits<int, list<pair<int, int>>::iterator, less<int>, allocator<pair<int const, list<pair<int, int>>::iterator>>, 0>>::_Node>::deallocate(pointer, unsigned int)
                                   BB40 
               calls direct
    -------------------------------------------------------------------------
<CODE> 1 (was CODE)
  Relative segment, address: BB16 - BB1B (0x6 bytes), align: 1
  Segment part 60.            Intra module refs:   list<pair<int, int>>::erase(iterator)
           ENTRY                   ADDRESS         REF BY
           =====                   =======         ======
           allocator<list<pair<int, int>>::_Node>::deallocate(list<pair<int, int>>::_Node *, unsigned int)
                                   BB16 
               calls direct
    -------------------------------------------------------------------------
<CODE> 1 (was CODE)
  Relative segment, address: B86E - B87B (0xe bytes), align: 1
  Segment part 61.            Intra module refs:   _Tree<_Tmap_traits<int, list<pair<int, int>>::iterator, less<int>, allocator<pair<int const, list<pair<int, int>>::iterator>>, 0>>::_Buynode(_Nodeptr, _Nodeptr, _Nodeptr, pair<int const, list<pair<int, int>>::iterator> const &, char)
           ENTRY                   ADDRESS         REF BY
           =====                   =======         ======
           allocator<_Tree_nod<_Tmap_traits<int, list<pair<int, int>>::iterator, less<int>, allocator<pair<int const, list<pair<int, int>>::iterator>>, 0>>::_Node>::allocate(unsigned int)
                                   B86E 
               calls direct
    -------------------------------------------------------------------------
<CODE> 1 (was CODE)
  Relative segment, address: BA36 - BA3D (0x8 bytes), align: 1
  Segment part 62.            Intra module refs:   list<pair<int, int>>::_Buynode(_Nodeptr, _Nodeptr, _ParamTy)
           ENTRY                   ADDRESS         REF BY
           =====                   =======         ======
           allocator<list<pair<int, int>>::_Node>::allocate(unsigned int)
                                   BA36 
               calls direct
    -------------------------------------------------------------------------
<CODE> 1 (was CODE)
  Relative segment, address: BA9E - BAA3 (0x6 bytes), align: 1
  Segment part 63.            Intra module refs:   _Tree<_Tmap_traits<int, list<pair<int, int>>::iterator, less<int>, allocator<pair<int const, list<pair<int, int>>::iterator>>, 0>>::_Erase(_Nodeptr)
                                                   _Tree<_Tmap_traits<int, list<pair<int, int>>::iterator, less<int>, allocator<pair<int const, list<pair<int, int>>::iterator>>, 0>>::erase(iterator)
           ENTRY                   ADDRESS         REF BY
           =====                   =======         ======
           allocator<_Tree_nod<_Tmap_traits<int, list<pair<int, int>>::iterator, less<int>, allocator<pair<int const, list<pair<int, int>>::iterator>>, 0>>::_Node>::destroy(pointer)
                                   BA9E 
               calls direct
    -------------------------------------------------------------------------
<CODE> 1 (was CODE)
  Relative segment, address: BA8C - BA91 (0x6 bytes), align: 1
  Segment part 64.            Intra module refs:   list<pair<int, int>>::erase(iterator)
           ENTRY                   ADDRESS         REF BY
           =====                   =======         ======
           allocator<list<pair<int, int>>::_Node>::destroy(list<pair<int, int>>::_Node *)
                                   BA8C 
               calls direct
    -------------------------------------------------------------------------
<CODE> 1 (was CODE)
  Relative segment, address: B8F6 - B901 (0xc bytes), align: 1
  Segment part 65.            Intra module refs:   _List_value<allocator<void>>::_Incsize(unsigned int)
           ENTRY                   ADDRESS         REF BY
           =====                   =======         ======
           allocator<_List_value<allocator<void>>::_GenNode>::max_size() const
                                   B8F6 
    -------------------------------------------------------------------------
<CODE> 1 (was CODE)
  Relative segment, address: B8EA - B8F5 (0xc bytes), align: 1
  Segment part 66.            Intra module refs:   _Tree<_Tmap_traits<int, list<pair<int, int>>::iterator, less<int>, allocator<pair<int const, list<pair<int, int>>::iterator>>, 0>>::max_size() const
           ENTRY                   ADDRESS         REF BY
           =====                   =======         ======
           allocator<_Tree_nod<_Tmap_traits<int, list<pair<int, int>>::iterator, less<int>, allocator<pair<int const, list<pair<int, int>>::iterator>>, 0>>::_Node>::max_size() const
                                   B8EA 
    -------------------------------------------------------------------------
<CODE> 1 (was CODE)
  Relative segment, address: B922 - B92B (0xa bytes), align: 1
  Segment part 11.            Intra module refs:   _List_value<allocator<void>>::_List_value()
                                                   list<pair<int, int>>::_Node::_Node(list<pair<int, int>>::_Genptr, list<pair<int, int>>::_Genptr, list<pair<int, int>>::_ParamTy)
           ENTRY                   ADDRESS         REF BY
           =====                   =======         ======
           _List_value<allocator<void>>::_GenNode::_GenNode(_List_value<allocator<void>>::_Genptr, _List_value<allocator<void>>::_Genptr)
                                   B922 
    -------------------------------------------------------------------------
<CODE> 1 (was CODE)
  Relative segment, address: B3C2 - B3D9 (0x18 bytes), align: 1
  Segment part 12.            Intra module refs:   list<pair<int, int>>::list()
           ENTRY                   ADDRESS         REF BY
           =====                   =======         ======
           _List_value<allocator<void>>::_List_value()
                                   B3C2 
               calls direct
    -------------------------------------------------------------------------
<CODE> 1 (was CODE)
  Relative segment, address: B1E8 - B201 (0x1a bytes), align: 1
  Segment part 67.            Intra module refs:   _List_value<allocator<void>>::_Incsize(unsigned int)
           ENTRY                   ADDRESS         REF BY
           =====                   =======         ======
           _List_value<allocator<void>>::_Alty()
                                   B1E8 
               calls direct
    -------------------------------------------------------------------------
<CODE> 1 (was CODE)
  Relative segment, address: B45E - B473 (0x16 bytes), align: 1
  Segment part 68.            Intra module refs:   list<pair<int, int>>::erase(iterator)
           ENTRY                   ADDRESS         REF BY
           =====                   =======         ======
           _List_value<allocator<void>>::_Disconnect(_Genptr)
                                   B45E 
    -------------------------------------------------------------------------
<CODE> 1 (was CODE)
  Relative segment, address: AB02 - AB27 (0x26 bytes), align: 1
  Segment part 69.            Intra module refs:   list<pair<int, int>>::_Incsize(unsigned int)
           ENTRY                   ADDRESS         REF BY
           =====                   =======         ======
           _List_value<allocator<void>>::_Incsize(unsigned int)
                                   AB02 
               calls direct
    -------------------------------------------------------------------------
<CODE> 1 (was CODE)
  Relative segment, address: BC7C - BC7D (0x2 bytes), align: 1
  Segment part 54.            Intra module refs:   void _Destroy(_Ty *)[with _Ty=list<pair<int, int>>::_Node]
           ENTRY                   ADDRESS         REF BY
           =====                   =======         ======
           list<pair<int, int>>::_Node::~_Node()
                                   BC7C 
    -------------------------------------------------------------------------
<CODE> 1 (was CODE)
  Relative segment, address: B14A - B165 (0x1c bytes), align: 1
  Segment part 70.            Intra module refs:   list<pair<int, int>>::_Buynode(_Nodeptr, _Nodeptr, _ParamTy)
           ENTRY                   ADDRESS         REF BY
           =====                   =======         ======
           list<pair<int, int>>::_Node::_Node(list<pair<int, int>>::_Genptr, list<pair<int, int>>::_Genptr, list<pair<int, int>>::_ParamTy)
                                   B14A 
               calls direct
    -------------------------------------------------------------------------
<CODE> 1 (was CODE)
  Relative segment, address: BC7E - BC7F (0x2 bytes), align: 1
  Segment part 71.            Intra module refs:   list<pair<int, int>>::begin()
                                                   list<pair<int, int>>::end()
           ENTRY                   ADDRESS         REF BY
           =====                   =======         ======
           list<pair<int, int>>::_Head()
                                   BC7E 
    -------------------------------------------------------------------------
<CODE> 1 (was CODE)
  Relative segment, address: BC80 - BC81 (0x2 bytes), align: 1
  Segment part 72.            Intra module refs:   list<pair<int, int>>::_Insert0(iterator, _ParamTy)
                                                   list<pair<int, int>>::begin()
                                                   list<pair<int, int>>::iterator::operator++()
           ENTRY                   ADDRESS         REF BY
           =====                   =======         ======
           list<pair<int, int>>::_Next(_Genptr)
                                   BC80 
    -------------------------------------------------------------------------
<CODE> 1 (was CODE)
  Relative segment, address: BC32 - BC35 (0x4 bytes), align: 1
  Segment part 73.            Intra module refs:   list<pair<int, int>>::_Insert0(iterator, _ParamTy)
                                                   list<pair<int, int>>::iterator::operator--()
           ENTRY                   ADDRESS         REF BY
           =====                   =======         ======
           list<pair<int, int>>::_Prev(_Genptr)
                                   BC32 
    -------------------------------------------------------------------------
<CODE> 1 (was CODE)
  Relative segment, address: BC2E - BC31 (0x4 bytes), align: 1
  Segment part 74.            Intra module refs:   list<pair<int, int>>::iterator::operator*() const
           ENTRY                   ADDRESS         REF BY
           =====                   =======         ======
           list<pair<int, int>>::_Myval(_Genptr)
                                   BC2E 
    -------------------------------------------------------------------------
<CODE> 1 (was CODE)
  Relative segment, address: B202 - B21B (0x1a bytes), align: 1
  Segment part 75.            Intra module refs:   list<pair<int, int>>::_Buynode(_Nodeptr, _Nodeptr, _ParamTy)
                                                   list<pair<int, int>>::erase(iterator)
           ENTRY                   ADDRESS         REF BY
           =====                   =======         ======
           list<pair<int, int>>::_Alnod() const
                                   B202 
               calls direct
    -------------------------------------------------------------------------
<CODE> 1 (was CODE)
  Relative segment, address: BB1C - BB21 (0x6 bytes), align: 1
  Segment part 29.            Intra module refs:   list<pair<int, int>>::iterator::iterator()
                                                   list<pair<int, int>>::iterator::iterator(list<pair<int, int>>::_Nodeptr)
           ENTRY                   ADDRESS         REF BY
           =====                   =======         ======
           list<pair<int, int>>::const_iterator::const_iterator(list<pair<int, int>>::_Nodeptr)
                                   BB1C 
    -------------------------------------------------------------------------
<CODE> 1 (was CODE)
  Relative segment, address: BC22 - BC25 (0x4 bytes), align: 1
  Segment part 76.            Intra module refs:   list<pair<int, int>>::_Insert0(iterator, _ParamTy)
                                                   list<pair<int, int>>::erase(iterator)
           ENTRY                   ADDRESS         REF BY
           =====                   =======         ======
           list<pair<int, int>>::const_iterator::_Mynode() const
                                   BC22 
    -------------------------------------------------------------------------
<CODE> 1 (was CODE)
  Relative segment, address: B594 - B5A5 (0x12 bytes), align: 1
  Segment part 30.            Intra module refs:   pair<int const, list<pair<int, int>>::iterator>::pair(int)
           ENTRY                   ADDRESS         REF BY
           =====                   =======         ======
           list<pair<int, int>>::iterator::iterator()
                                   B594 
               calls direct
    -------------------------------------------------------------------------
<CODE> 1 (was CODE)
  Relative segment, address: B69E - B6AD (0x10 bytes), align: 1
  Segment part 77.            Intra module refs:   list<pair<int, int>>::begin()
                                                   list<pair<int, int>>::end()
           ENTRY                   ADDRESS         REF BY
           =====                   =======         ======
           list<pair<int, int>>::iterator::iterator(list<pair<int, int>>::_Nodeptr)
                                   B69E 
               calls direct
    -------------------------------------------------------------------------
<CODE> 1 (was CODE)
  Relative segment, address: BB22 - BB27 (0x6 bytes), align: 1
  Segment part 78.            Intra module refs:   list<pair<int, int>>::back()
                                                   list<pair<int, int>>::iterator::operator->() const
           ENTRY                   ADDRESS         REF BY
           =====                   =======         ======
           list<pair<int, int>>::iterator::operator*() const
                                   BB22 
               calls direct
    -------------------------------------------------------------------------
<CODE> 1 (was CODE)
  Relative segment, address: BC16 - BC19 (0x4 bytes), align: 1
  Segment part 79.            Intra module refs:   DualLRU::PutIntoSubCache(int, int)
                                                   LRUCache::Get(int) (lru)
                                                   LRUCache::Put(int, int) (lru)
           ENTRY                   ADDRESS         REF BY
           =====                   =======         ======
           list<pair<int, int>>::iterator::operator->() const
                                   BC16 
               calls direct
    -------------------------------------------------------------------------
<CODE> 1 (was CODE)
  Relative segment, address: B4DA - B4ED (0x14 bytes), align: 1
  Segment part 80.            Intra module refs:   list<pair<int, int>>::erase(iterator)
                                                   list<pair<int, int>>::iterator::operator++(int)
           ENTRY                   ADDRESS         REF BY
           =====                   =======         ======
           list<pair<int, int>>::iterator::operator++()
                                   B4DA 
               calls direct
    -------------------------------------------------------------------------
<CODE> 1 (was CODE)
  Relative segment, address: B12E - B149 (0x1c bytes), align: 1
  Segment part 81.            Intra module refs:   DualLRU::GetSubCacheHead()
           ENTRY                   ADDRESS         REF BY
           =====                   =======         ======
           list<pair<int, int>>::iterator::operator++(int)
                                   B12E 
               calls direct
    -------------------------------------------------------------------------
<CODE> 1 (was CODE)
  Relative segment, address: B4C6 - B4D9 (0x14 bytes), align: 1
  Segment part 82.            Intra module refs:   list<pair<int, int>>::back()
                                                   list<pair<int, int>>::insert(iterator, _ParamTy)
                                                   list<pair<int, int>>::pop_back()
           ENTRY                   ADDRESS         REF BY
           =====                   =======         ======
           list<pair<int, int>>::iterator::operator--()
                                   B4C6 
               calls direct
    -------------------------------------------------------------------------
<CODE> 1 (was CODE)
  Relative segment, address: B64E - B65D (0x10 bytes), align: 1
  Segment part 13.            Intra module refs:   LRUCache::LRUCache(int)
           ENTRY                   ADDRESS         REF BY
           =====                   =======         ======
           list<pair<int, int>>::list()
                                   B64E 
               calls direct
    -------------------------------------------------------------------------
<CODE> 1 (was CODE)
  Relative segment, address: ADBA - ADDD (0x24 bytes), align: 1
  Segment part 83.            Intra module refs:   DualLRU::GetSubCacheHead()
                                                   LRUCache::Get(int) (lru)
                                                   LRUCache::Put(int, int) (lru)
                                                   list<pair<int, int>>::push_front(_ParamTy) (lru)
           ENTRY                   ADDRESS         REF BY
           =====                   =======         ======
           list<pair<int, int>>::begin()
                                   ADBA 
               calls direct
    -------------------------------------------------------------------------
<CODE> 1 (was CODE)
  Relative segment, address: AF4E - AF6D (0x20 bytes), align: 1
  Segment part 84.            Intra module refs:   list<pair<int, int>>::back()
                                                   list<pair<int, int>>::pop_back()
           ENTRY                   ADDRESS         REF BY
           =====                   =======         ======
           list<pair<int, int>>::end()
                                   AF4E 
               calls direct
    -------------------------------------------------------------------------
<CODE> 1 (was CODE)
  Relative segment, address: BB28 - BB2D (0x6 bytes), align: 1
  Segment part 85.            Intra module refs:   DualLRU::GetSubCacheHead()
                                                   DualLRU::PutIntoSubCache(int, int)
                                                   LRUCache::Put(int, int) (lru)
           ENTRY                   ADDRESS         REF BY
           =====                   =======         ======
           list<pair<int, int>>::size() const
                                   BB28 
    -------------------------------------------------------------------------
<CODE> 1 (was CODE)
  Relative segment, address: B2EA - B301 (0x18 bytes), align: 1
  Segment part 86.            Intra module refs:   DualLRU::PutIntoSubCache(int, int)
                                                   LRUCache::Put(int, int) (lru)
           ENTRY                   ADDRESS         REF BY
           =====                   =======         ======
           list<pair<int, int>>::back()
                                   B2EA 
               calls direct
    -------------------------------------------------------------------------
<CODE> 1 (was CODE)
  Relative segment, address: A9DE - AA07 (0x2a bytes), align: 1
  Segment part 88.            Intra module refs:   DualLRU::PutIntoSubCache(int, int)
                                                   LRUCache::Put(int, int) (lru)
           ENTRY                   ADDRESS         REF BY
           =====                   =======         ======
           list<pair<int, int>>::pop_back()
                                   A9DE 
               calls direct
    -------------------------------------------------------------------------
<CODE> 1 (was CODE)
  Relative segment, address: AD96 - ADB9 (0x24 bytes), align: 1
  Segment part 93.            Intra module refs:   DualLRU::PutIntoSubCache(int, int)
           ENTRY                   ADDRESS         REF BY
           =====                   =======         ======
           list<pair<int, int>>::insert(iterator, _ParamTy)
                                   AD96 
               calls direct
    -------------------------------------------------------------------------
<CODE> 1 (was CODE)
  Relative segment, address: 9C8C - 9CD7 (0x4c bytes), align: 1
  Segment part 91.            Intra module refs:   list<pair<int, int>>::_Insert(iterator, _ParamTy)
           ENTRY                   ADDRESS         REF BY
           =====                   =======         ======
           list<pair<int, int>>::_Insert0(iterator, _ParamTy)
                                   9C8C 
               calls direct
    -------------------------------------------------------------------------
<CODE> 1 (was CODE)
  Relative segment, address: B896 - B8A1 (0xc bytes), align: 1
  Segment part 92.            Intra module refs:   list<pair<int, int>>::insert(iterator, _ParamTy)
                                                   list<pair<int, int>>::push_front(_ParamTy) (lru)
           ENTRY                   ADDRESS         REF BY
           =====                   =======         ======
           list<pair<int, int>>::_Insert(iterator, _ParamTy)
                                   B896 
               calls direct
    -------------------------------------------------------------------------
<CODE> 1 (was CODE)
  Relative segment, address: 97C8 - 9825 (0x5e bytes), align: 1
  Segment part 87.            Intra module refs:   LRUCache::Get(int) (lru)
                                                   list<pair<int, int>>::pop_back()
           ENTRY                   ADDRESS         REF BY
           =====                   =======         ======
           list<pair<int, int>>::erase(iterator)
                                   97C8 
               calls direct
    -------------------------------------------------------------------------
<CODE> 1 (was CODE)
  Relative segment, address: A2C0 - A2FB (0x3c bytes), align: 1
  Segment part 90.            Intra module refs:   list<pair<int, int>>::_Insert0(iterator, _ParamTy)
           ENTRY                   ADDRESS         REF BY
           =====                   =======         ======
           list<pair<int, int>>::_Buynode(_Nodeptr, _Nodeptr, _ParamTy)
                                   A2C0 
               calls direct
    -------------------------------------------------------------------------
<CODE> 1 (was CODE)
  Relative segment, address: BC02 - BC05 (0x4 bytes), align: 1
  Segment part 89.            Intra module refs:   list<pair<int, int>>::_Insert0(iterator, _ParamTy)
           ENTRY                   ADDRESS         REF BY
           =====                   =======         ======
           list<pair<int, int>>::_Incsize(unsigned int)
                                   BC02 
               calls direct
    -------------------------------------------------------------------------
<CODE> 1 (was CODE)
  Relative segment, address: B37A - B391 (0x18 bytes), align: 1
  Segment part 94.            Intra module refs:   _Tree_nod<_Tmap_traits<int, list<pair<int, int>>::iterator, less<int>, allocator<pair<int const, list<pair<int, int>>::iterator>>, 0>>::_Node::_Node(_Tree_nod<_Tmap_traits<int, list<pair<int, int>>::iterator, less<int>, allocator<pair<int const, list<pair<int, int>>::iterator>>, 0>>::_MyGenptr, _Tree_nod<_Tmap_traits<int, list<pair<int, int>>::iterator, less<int>, allocator<pair<int const, list<pair<int, int>>::iterator>>, 0>>::_MyGenptr, _Tree_nod<_Tmap_traits<int, list<pair<int, int>>::iterator, less<int>, allocator<pair<int const, list<pair<int, int>>::iterator>>, 0>>::_MyGenptr, pair<int const, list<pair<int, int>>::iterator> const &, char)
                                                   _Tree_nod<_Tmap_traits<unsigned int, unsigned int, less<unsigned int>, allocator<pair<unsigned int const, unsigned int>>, 0>>::_Node::_Node(_Tree_nod<_Tmap_traits<unsigned int, unsigned int, less<unsigned int>, allocator<pair<unsigned int const, unsigned int>>, 0>>::_MyGenptr, _Tree_nod<_Tmap_traits<unsigned int, unsigned int, less<unsigned int>, allocator<pair<unsigned int const, unsigned int>>, 0>>::_MyGenptr, _Tree_nod<_Tmap_traits<unsigned int, unsigned int, less<unsigned int>, allocator<pair<unsigned int const, unsigned int>>, 0>>::_MyGenptr, pair<unsigned int const, unsigned int> const &, char) (etl)
           ENTRY                   ADDRESS         REF BY
           =====                   =======         ======
           _Tree_algobase<allocator<void>>::_GenNode::_GenNode(_Tree_algobase<allocator<void>>::_Genptr, _Tree_algobase<allocator<void>>::_Genptr, _Tree_algobase<allocator<void>>::_Genptr, char)
                                   B37A 
    -------------------------------------------------------------------------
<CODE> 1 (was CODE)
  Relative segment, address: BB04 - BB09 (0x6 bytes), align: 1
  Segment part 95.            Intra module refs:   _Tree_algobase<allocator<void>>::_Erase(_Genptr)
                                                   _Tree_algobase<allocator<void>>::_Insert(bool, _Genptr, _Genptr)
           ENTRY                   ADDRESS         REF BY
           =====                   =======         ======
           _Tree_algobase<allocator<void>>::_Color(_Genptr)
                                   BB04 
    -------------------------------------------------------------------------
<CODE> 1 (was CODE)
  Relative segment, address: BAF8 - BAFD (0x6 bytes), align: 1
  Segment part 37.            Intra module refs:   _Tree<_Tmap_traits<int, list<pair<int, int>>::iterator, less<int>, allocator<pair<int const, list<pair<int, int>>::iterator>>, 0>>::_Isnil(_Tree_algobase<allocator<void>>::_Genptr)
                                                   _Tree<_Tmap_traits<unsigned int, unsigned int, less<unsigned int>, allocator<pair<unsigned int const, unsigned int>>, 0>>::_Isnil(_Tree_algobase<allocator<void>>::_Genptr) (etl)
                                                   _Tree_algobase<allocator<void>>::_DecP(_Genptr)
                                                   _Tree_algobase<allocator<void>>::_Erase(_Genptr)
                                                   _Tree_algobase<allocator<void>>::_IncP(_Genptr)
                                                   _Tree_algobase<allocator<void>>::_Lrotate(_Genptr)
                                                   _Tree_algobase<allocator<void>>::_Max(_Genptr)
                                                   _Tree_algobase<allocator<void>>::_Min(_Genptr)
                                                   _Tree_algobase<allocator<void>>::_Rrotate(_Genptr)
           ENTRY                   ADDRESS         REF BY
           =====                   =======         ======
           _Tree_algobase<allocator<void>>::_Isnil(_Genptr)
                                   BAF8 
    -------------------------------------------------------------------------
<CODE> 1 (was CODE)
  Relative segment, address: BC84 - BC85 (0x2 bytes), align: 1
  Segment part 38.            Intra module refs:   _Tree_algobase<allocator<void>>::_DecP(_Genptr)
                                                   _Tree_algobase<allocator<void>>::_Erase(_Genptr)
                                                   _Tree_algobase<allocator<void>>::_Insert(bool, _Genptr, _Genptr)
                                                   _Tree_algobase<allocator<void>>::_Lmost()
                                                   _Tree_algobase<allocator<void>>::_Lrotate(_Genptr)
                                                   _Tree_algobase<allocator<void>>::_Min(_Genptr)
                                                   _Tree_algobase<allocator<void>>::_Rrotate(_Genptr)
           ENTRY                   ADDRESS         REF BY
           =====                   =======         ======
           _Tree_algobase<allocator<void>>::_Left(_Genptr)
                                   BC84 
    -------------------------------------------------------------------------
<CODE> 1 (was CODE)
  Relative segment, address: BBE6 - BBE9 (0x4 bytes), align: 1
  Segment part 36.            Intra module refs:   _Tree_algobase<allocator<void>>::_DecP(_Genptr)
                                                   _Tree_algobase<allocator<void>>::_Erase(_Genptr)
                                                   _Tree_algobase<allocator<void>>::_IncP(_Genptr)
                                                   _Tree_algobase<allocator<void>>::_Insert(bool, _Genptr, _Genptr)
                                                   _Tree_algobase<allocator<void>>::_Lrotate(_Genptr)
                                                   _Tree_algobase<allocator<void>>::_Root()
                                                   _Tree_algobase<allocator<void>>::_Rrotate(_Genptr)
           ENTRY                   ADDRESS         REF BY
           =====                   =======         ======
           _Tree_algobase<allocator<void>>::_Parent(_Genptr)
                                   BBE6 
    -------------------------------------------------------------------------
<CODE> 1 (was CODE)
  Relative segment, address: BBE2 - BBE5 (0x4 bytes), align: 1
  Segment part 40.            Intra module refs:   _Tree_algobase<allocator<void>>::_DecP(_Genptr)
                                                   _Tree_algobase<allocator<void>>::_Erase(_Genptr)
                                                   _Tree_algobase<allocator<void>>::_IncP(_Genptr)
                                                   _Tree_algobase<allocator<void>>::_Insert(bool, _Genptr, _Genptr)
                                                   _Tree_algobase<allocator<void>>::_Lrotate(_Genptr)
                                                   _Tree_algobase<allocator<void>>::_Max(_Genptr)
                                                   _Tree_algobase<allocator<void>>::_Rmost()
                                                   _Tree_algobase<allocator<void>>::_Rrotate(_Genptr)
           ENTRY                   ADDRESS         REF BY
           =====                   =======         ======
           _Tree_algobase<allocator<void>>::_Right(_Genptr)
                                   BBE2 
    -------------------------------------------------------------------------
<CODE> 1 (was CODE)
  Relative segment, address: AB4E - AB73 (0x26 bytes), align: 1
  Segment part 96.            Intra module refs:   _Tree_algobase<allocator<void>>::_DecP(_Genptr)
                                                   _Tree_algobase<allocator<void>>::_Erase(_Genptr)
           ENTRY                   ADDRESS         REF BY
           =====                   =======         ======
           _Tree_algobase<allocator<void>>::_Max(_Genptr)
                                   AB4E 
               calls direct
    -------------------------------------------------------------------------
<CODE> 1 (was CODE)
  Relative segment, address: AB9A - ABBF (0x26 bytes), align: 1
  Segment part 39.            Intra module refs:   _Tree_algobase<allocator<void>>::_Erase(_Genptr)
                                                   _Tree_algobase<allocator<void>>::_IncP(_Genptr)
           ENTRY                   ADDRESS         REF BY
           =====                   =======         ======
           _Tree_algobase<allocator<void>>::_Min(_Genptr)
                                   AB9A 
               calls direct
    -------------------------------------------------------------------------
<CODE> 1 (was CODE)
  Relative segment, address: 92FE - 936B (0x6e bytes), align: 1
  Segment part 97.            Intra module refs:   _Tree_algobase<allocator<void>>::_GenIter::_Dec()
           ENTRY                   ADDRESS         REF BY
           =====                   =======         ======
           _Tree_algobase<allocator<void>>::_DecP(_Genptr)
                                   92FE 
               calls direct
    -------------------------------------------------------------------------
<CODE> 1 (was CODE)
  Relative segment, address: 99EE - 9A45 (0x58 bytes), align: 1
  Segment part 41.            Intra module refs:   _Tree_algobase<allocator<void>>::_Erase(_Genptr)
                                                   _Tree_algobase<allocator<void>>::_GenIter::_Inc()
           ENTRY                   ADDRESS         REF BY
           =====                   =======         ======
           _Tree_algobase<allocator<void>>::_IncP(_Genptr)
                                   99EE 
               calls direct
    -------------------------------------------------------------------------
<CODE> 1 (was CODE)
  Relative segment, address: BA74 - BA79 (0x6 bytes), align: 1
  Segment part 98.            Intra module refs:   _Tree<_Tmap_traits<int, list<pair<int, int>>::iterator, less<int>, allocator<pair<int const, list<pair<int, int>>::iterator>>, 0>>::const_iterator::const_iterator(_Tree_algobase<allocator<void>>::_Genptr)
                                                   _Tree<_Tmap_traits<unsigned int, unsigned int, less<unsigned int>, allocator<pair<unsigned int const, unsigned int>>, 0>>::const_iterator::const_iterator(_Tree_algobase<allocator<void>>::_Genptr) (etl)
           ENTRY                   ADDRESS         REF BY
           =====                   =======         ======
           _Tree_algobase<allocator<void>>::_GenIter::_GenIter(_Tree_algobase<allocator<void>>::_Genptr)
                                   BA74 
    -------------------------------------------------------------------------
<CODE> 1 (was CODE)
  Relative segment, address: B852 - B85F (0xe bytes), align: 1
  Segment part 99.            Intra module refs:   _Tree<_Tmap_traits<int, list<pair<int, int>>::iterator, less<int>, allocator<pair<int const, list<pair<int, int>>::iterator>>, 0>>::const_iterator::operator==(_Tree<_Tmap_traits<int, list<pair<int, int>>::iterator, less<int>, allocator<pair<int const, list<pair<int, int>>::iterator>>, 0>>::const_iterator const &) const
                                                   _Tree<_Tmap_traits<unsigned int, unsigned int, less<unsigned int>, allocator<pair<unsigned int const, unsigned int>>, 0>>::const_iterator::operator==(_Tree<_Tmap_traits<unsigned int, unsigned int, less<unsigned int>, allocator<pair<unsigned int const, unsigned int>>, 0>>::const_iterator const &) const (etl)
           ENTRY                   ADDRESS         REF BY
           =====                   =======         ======
           _Tree_algobase<allocator<void>>::_GenIter::operator==(_Tree_algobase<allocator<void>>::_GenIter const &) const
                                   B852 
    -------------------------------------------------------------------------
<CODE> 1 (was CODE)
  Relative segment, address: B5DC - B5ED (0x12 bytes), align: 1
  Segment part 100.           Intra module refs:   _Tree<_Tmap_traits<int, list<pair<int, int>>::iterator, less<int>, allocator<pair<int const, list<pair<int, int>>::iterator>>, 0>>::iterator::operator--()
                                                   _Tree<_Tmap_traits<unsigned int, unsigned int, less<unsigned int>, allocator<pair<unsigned int const, unsigned int>>, 0>>::iterator::operator--() (etl)
           ENTRY                   ADDRESS         REF BY
           =====                   =======         ======
           _Tree_algobase<allocator<void>>::_GenIter::_Dec()
                                   B5DC 
               calls direct
    -------------------------------------------------------------------------
<CODE> 1 (was CODE)
  Relative segment, address: B5CA - B5DB (0x12 bytes), align: 1
  Segment part 42.            Intra module refs:   _Tree<_Tmap_traits<int, list<pair<int, int>>::iterator, less<int>, allocator<pair<int const, list<pair<int, int>>::iterator>>, 0>>::const_iterator::operator++()
                                                   _Tree<_Tmap_traits<int, list<pair<int, int>>::iterator, less<int>, allocator<pair<int const, list<pair<int, int>>::iterator>>, 0>>::iterator::operator++()
           ENTRY                   ADDRESS         REF BY
           =====                   =======         ======
           _Tree_algobase<allocator<void>>::_GenIter::_Inc()
                                   B5CA 
               calls direct
    -------------------------------------------------------------------------
<CODE> 1 (was CODE)
  Relative segment, address: BBDA - BBDD (0x4 bytes), align: 1
  Segment part 101.           Intra module refs:   _Tree<_Tmap_traits<int, list<pair<int, int>>::iterator, less<int>, allocator<pair<int const, list<pair<int, int>>::iterator>>, 0>>::const_iterator::_Mynode() const
                                                   _Tree<_Tmap_traits<int, list<pair<int, int>>::iterator, less<int>, allocator<pair<int const, list<pair<int, int>>::iterator>>, 0>>::iterator::operator*() const
                                                   _Tree<_Tmap_traits<unsigned int, unsigned int, less<unsigned int>, allocator<pair<unsigned int const, unsigned int>>, 0>>::const_iterator::_Mynode() const (etl)
                                                   _Tree<_Tmap_traits<unsigned int, unsigned int, less<unsigned int>, allocator<pair<unsigned int const, unsigned int>>, 0>>::iterator::operator*() const (etl)
           ENTRY                   ADDRESS         REF BY
           =====                   =======         ======
           _Tree_algobase<allocator<void>>::_GenIter::_Mynode() const
                                   BBDA 
    -------------------------------------------------------------------------
<CODE> 1 (was CODE)
  Relative segment, address: B0A2 - B0BD (0x1c bytes), align: 1
  Segment part 6.             Intra module refs:   _Tree_nod<_Tmap_traits<int, list<pair<int, int>>::iterator, less<int>, allocator<pair<int const, list<pair<int, int>>::iterator>>, 0>>::_Tree_nod(less<int> const &, allocator<pair<int const, list<pair<int, int>>::iterator>>)
                                                   _Tree_nod<_Tmap_traits<unsigned int, unsigned int, less<unsigned int>, allocator<pair<unsigned int const, unsigned int>>, 0>>::_Tree_nod(less<unsigned int> const &, allocator<pair<unsigned int const, unsigned int>>) (etl)
           ENTRY                   ADDRESS         REF BY
           =====                   =======         ======
           _Tree_algobase<allocator<void>>::_Tree_algobase(allocator<void> const &)
                                   B0A2 
               calls direct
    -------------------------------------------------------------------------
<CODE> 1 (was CODE)
  Relative segment, address: B26A - B283 (0x1a bytes), align: 1
  Segment part 4.             Intra module refs:   _Tree<_Tmap_traits<int, list<pair<int, int>>::iterator, less<int>, allocator<pair<int const, list<pair<int, int>>::iterator>>, 0>>::clear()
                                                   _Tree_algobase<allocator<void>>::_Tree_algobase(allocator<void> const &)
           ENTRY                   ADDRESS         REF BY
           =====                   =======         ======
           _Tree_algobase<allocator<void>>::_Clear()
                                   B26A 
    -------------------------------------------------------------------------
<CODE> 1 (was CODE)
  Relative segment, address: BBD6 - BBD9 (0x4 bytes), align: 1
  Segment part 102.           Intra module refs:   _Tree_algobase<allocator<void>>::_Erase(_Genptr)
                                                   _Tree_algobase<allocator<void>>::_Insert(bool, _Genptr, _Genptr)
                                                   _Tree_algobase<allocator<void>>::_Lrotate(_Genptr)
                                                   _Tree_algobase<allocator<void>>::_Rrotate(_Genptr)
           ENTRY                   ADDRESS         REF BY
           =====                   =======         ======
           _Tree_algobase<allocator<void>>::_Root()
                                   BBD6 
               calls direct
    -------------------------------------------------------------------------
<CODE> 1 (was CODE)
  Relative segment, address: BBD2 - BBD5 (0x4 bytes), align: 1
  Segment part 103.           Intra module refs:   _Tree_algobase<allocator<void>>::_Erase(_Genptr)
                                                   _Tree_algobase<allocator<void>>::_Insert(bool, _Genptr, _Genptr)
           ENTRY                   ADDRESS         REF BY
           =====                   =======         ======
           _Tree_algobase<allocator<void>>::_Lmost()
                                   BBD2 
               calls direct
    -------------------------------------------------------------------------
<CODE> 1 (was CODE)
  Relative segment, address: BBCE - BBD1 (0x4 bytes), align: 1
  Segment part 104.           Intra module refs:   _Tree_algobase<allocator<void>>::_Erase(_Genptr)
                                                   _Tree_algobase<allocator<void>>::_Insert(bool, _Genptr, _Genptr)
           ENTRY                   ADDRESS         REF BY
           =====                   =======         ======
           _Tree_algobase<allocator<void>>::_Rmost()
                                   BBCE 
               calls direct
    -------------------------------------------------------------------------
<CODE> 1 (was CODE)
  Relative segment, address: 8996 - 8A49 (0xb4 bytes), align: 1
  Segment part 105.           Intra module refs:   _Tree_algobase<allocator<void>>::_Erase(_Genptr)
                                                   _Tree_algobase<allocator<void>>::_Insert(bool, _Genptr, _Genptr)
           ENTRY                   ADDRESS         REF BY
           =====                   =======         ======
           _Tree_algobase<allocator<void>>::_Rrotate(_Genptr)
                                   8996 
               calls direct
    -------------------------------------------------------------------------
<CODE> 1 (was CODE)
  Relative segment, address: 8A4A - 8AFD (0xb4 bytes), align: 1
  Segment part 106.           Intra module refs:   _Tree_algobase<allocator<void>>::_Erase(_Genptr)
                                                   _Tree_algobase<allocator<void>>::_Insert(bool, _Genptr, _Genptr)
           ENTRY                   ADDRESS         REF BY
           =====                   =======         ======
           _Tree_algobase<allocator<void>>::_Lrotate(_Genptr)
                                   8A4A 
               calls direct
    -------------------------------------------------------------------------
<CODE> 1 (was CODE)
  Relative segment, address: 6EF8 - 731F (0x428 bytes), align: 1
  Segment part 107.           Intra module refs:   _Tree<_Tmap_traits<int, list<pair<int, int>>::iterator, less<int>, allocator<pair<int const, list<pair<int, int>>::iterator>>, 0>>::erase(iterator)
           ENTRY                   ADDRESS         REF BY
           =====                   =======         ======
           _Tree_algobase<allocator<void>>::_Erase(_Genptr)
                                   6EF8 
               calls direct
    -------------------------------------------------------------------------
<CODE> 1 (was CODE)
  Relative segment, address: 7320 - 754F (0x230 bytes), align: 1
  Segment part 108.           Intra module refs:   _Tree<_Tmap_traits<int, list<pair<int, int>>::iterator, less<int>, allocator<pair<int const, list<pair<int, int>>::iterator>>, 0>>::_Insert(bool, _Nodeptr, pair<int const, list<pair<int, int>>::iterator> const &)
                                                   _Tree<_Tmap_traits<unsigned int, unsigned int, less<unsigned int>, allocator<pair<unsigned int const, unsigned int>>, 0>>::_Insert(bool, _Nodeptr, pair<unsigned int const, unsigned int> const &) (etl)
           ENTRY                   ADDRESS         REF BY
           =====                   =======         ======
           _Tree_algobase<allocator<void>>::_Insert(bool, _Genptr, _Genptr)
                                   7320 
               calls direct
    -------------------------------------------------------------------------
<CODE> 1 (was CODE)
  Relative segment, address: BC86 - BC87 (0x2 bytes), align: 1
  Segment part 52.            Intra module refs:   void _Destroy(_Ty *)[with _Ty=allocator<_Tree_nod<_Tmap_traits<int, list<pair<int, int>>::iterator, less<int>, allocator<pair<int const, list<pair<int, int>>::iterator>>, 0>>::_Node>::value_type]
           ENTRY                   ADDRESS         REF BY
           =====                   =======         ======
           _Tree_nod<_Tmap_traits<int, list<pair<int, int>>::iterator, less<int>, allocator<pair<int const, list<pair<int, int>>::iterator>>, 0>>::_Node::~_Node()
                                   BC86 
    -------------------------------------------------------------------------
<CODE> 1 (was CODE)
  Relative segment, address: B392 - B3A9 (0x18 bytes), align: 1
  Segment part 109.           Intra module refs:   _Tree<_Tmap_traits<int, list<pair<int, int>>::iterator, less<int>, allocator<pair<int const, list<pair<int, int>>::iterator>>, 0>>::_Lbound(int) const
                                                   _Tree<_Tmap_traits<int, list<pair<int, int>>::iterator, less<int>, allocator<pair<int const, list<pair<int, int>>::iterator>>, 0>>::_Ubound(int) const
           ENTRY                   ADDRESS         REF BY
           =====                   =======         ======
           _Tree_nod<_Tmap_traits<int, list<pair<int, int>>::iterator, less<int>, allocator<pair<int const, list<pair<int, int>>::iterator>>, 0>>::comp() const
                                   B392 
               calls direct
    -------------------------------------------------------------------------
<CODE> 1 (was CODE)
  Relative segment, address: BA56 - BA5D (0x8 bytes), align: 1
  Segment part 110.           Intra module refs:   _Tree<_Tmap_traits<int, list<pair<int, int>>::iterator, less<int>, allocator<pair<int const, list<pair<int, int>>::iterator>>, 0>>::insert(pair<int const, list<pair<int, int>>::iterator> const &)
           ENTRY                   ADDRESS         REF BY
           =====                   =======         ======
           _Tree_nod<_Tmap_traits<int, list<pair<int, int>>::iterator, less<int>, allocator<pair<int const, list<pair<int, int>>::iterator>>, 0>>::comp()
                                   BA56 
               calls direct
    -------------------------------------------------------------------------
<CODE> 1 (was CODE)
  Relative segment, address: AC2E - AC51 (0x24 bytes), align: 1
  Segment part 111.           Intra module refs:   _Tree<_Tmap_traits<int, list<pair<int, int>>::iterator, less<int>, allocator<pair<int const, list<pair<int, int>>::iterator>>, 0>>::_Buynode(_Nodeptr, _Nodeptr, _Nodeptr, pair<int const, list<pair<int, int>>::iterator> const &, char)
           ENTRY                   ADDRESS         REF BY
           =====                   =======         ======
           _Tree_nod<_Tmap_traits<int, list<pair<int, int>>::iterator, less<int>, allocator<pair<int const, list<pair<int, int>>::iterator>>, 0>>::_Node::_Node(_Tree_nod<_Tmap_traits<int, list<pair<int, int>>::iterator, less<int>, allocator<pair<int const, list<pair<int, int>>::iterator>>, 0>>::_MyGenptr, _Tree_nod<_Tmap_traits<int, list<pair<int, int>>::iterator, less<int>, allocator<pair<int const, list<pair<int, int>>::iterator>>, 0>>::_MyGenptr, _Tree_nod<_Tmap_traits<int, list<pair<int, int>>::iterator, less<int>, allocator<pair<int const, list<pair<int, int>>::iterator>>, 0>>::_MyGenptr, pair<int const, list<pair<int, int>>::iterator> const &, char)
                                   AC2E 
               calls direct
    -------------------------------------------------------------------------
<CODE> 1 (was CODE)
  Relative segment, address: AD2A - AD4D (0x24 bytes), align: 1
  Segment part 7.             Intra module refs:   _Tree_val<_Tmap_traits<int, list<pair<int, int>>::iterator, less<int>, allocator<pair<int const, list<pair<int, int>>::iterator>>, 0>>::_Tree_val(less<int> const &, allocator<pair<int const, list<pair<int, int>>::iterator>>)
           ENTRY                   ADDRESS         REF BY
           =====                   =======         ======
           _Tree_nod<_Tmap_traits<int, list<pair<int, int>>::iterator, less<int>, allocator<pair<int const, list<pair<int, int>>::iterator>>, 0>>::_Tree_nod(less<int> const &, allocator<pair<int const, list<pair<int, int>>::iterator>>)
                                   AD2A 
               calls direct
    -------------------------------------------------------------------------
<CODE> 1 (was CODE)
  Relative segment, address: B406 - B41B (0x16 bytes), align: 1
  Segment part 8.             Intra module refs:   _Tree<_Tmap_traits<int, list<pair<int, int>>::iterator, less<int>, allocator<pair<int const, list<pair<int, int>>::iterator>>, 0>>::_Tree(less<int> const &, allocator<pair<int const, list<pair<int, int>>::iterator>> const &)
           ENTRY                   ADDRESS         REF BY
           =====                   =======         ======
           _Tree_val<_Tmap_traits<int, list<pair<int, int>>::iterator, less<int>, allocator<pair<int const, list<pair<int, int>>::iterator>>, 0>>::_Tree_val(less<int> const &, allocator<pair<int const, list<pair<int, int>>::iterator>>)
                                   B406 
               calls direct
    -------------------------------------------------------------------------
<CODE> 1 (was CODE)
  Relative segment, address: BBBE - BBC1 (0x4 bytes), align: 1
  Segment part 113.           Intra module refs:   _Tree<_Tmap_traits<int, list<pair<int, int>>::iterator, less<int>, allocator<pair<int const, list<pair<int, int>>::iterator>>, 0>>::_Key(_Tree_algobase<allocator<void>>::_Genptr)
                                                   _Tree<_Tmap_traits<int, list<pair<int, int>>::iterator, less<int>, allocator<pair<int const, list<pair<int, int>>::iterator>>, 0>>::insert(pair<int const, list<pair<int, int>>::iterator> const &)
           ENTRY                   ADDRESS         REF BY
           =====                   =======         ======
           _Tree_val<_Tmap_traits<int, list<pair<int, int>>::iterator, less<int>, allocator<pair<int const, list<pair<int, int>>::iterator>>, 0>>::_Kfn(pair<int const, list<pair<int, int>>::iterator> const &)
                                   BBBE 
               calls direct
    -------------------------------------------------------------------------
<CODE> 1 (was CODE)
  Relative segment, address: B19A - B1B3 (0x1a bytes), align: 1
  Segment part 114.           Intra module refs:   _Tree<_Tmap_traits<int, list<pair<int, int>>::iterator, less<int>, allocator<pair<int const, list<pair<int, int>>::iterator>>, 0>>::_Buynode(_Nodeptr, _Nodeptr, _Nodeptr, pair<int const, list<pair<int, int>>::iterator> const &, char)
                                                   _Tree<_Tmap_traits<int, list<pair<int, int>>::iterator, less<int>, allocator<pair<int const, list<pair<int, int>>::iterator>>, 0>>::_Erase(_Nodeptr)
                                                   _Tree<_Tmap_traits<int, list<pair<int, int>>::iterator, less<int>, allocator<pair<int const, list<pair<int, int>>::iterator>>, 0>>::erase(iterator)
                                                   _Tree<_Tmap_traits<int, list<pair<int, int>>::iterator, less<int>, allocator<pair<int const, list<pair<int, int>>::iterator>>, 0>>::max_size() const
           ENTRY                   ADDRESS         REF BY
           =====                   =======         ======
           _Tree<_Tmap_traits<int, list<pair<int, int>>::iterator, less<int>, allocator<pair<int const, list<pair<int, int>>::iterator>>, 0>>::_Alnod() const
                                   B19A 
               calls direct
    -------------------------------------------------------------------------
<CODE> 1 (was CODE)
  Relative segment, address: BBAE - BBB1 (0x4 bytes), align: 1
  Segment part 115.           Intra module refs:   _Tree<_Tmap_traits<int, list<pair<int, int>>::iterator, less<int>, allocator<pair<int const, list<pair<int, int>>::iterator>>, 0>>::_Erase(_Nodeptr)
                                                   _Tree<_Tmap_traits<int, list<pair<int, int>>::iterator, less<int>, allocator<pair<int const, list<pair<int, int>>::iterator>>, 0>>::_Lbound(int) const
                                                   _Tree<_Tmap_traits<int, list<pair<int, int>>::iterator, less<int>, allocator<pair<int const, list<pair<int, int>>::iterator>>, 0>>::_Ubound(int) const
                                                   _Tree<_Tmap_traits<int, list<pair<int, int>>::iterator, less<int>, allocator<pair<int const, list<pair<int, int>>::iterator>>, 0>>::insert(pair<int const, list<pair<int, int>>::iterator> const &)
           ENTRY                   ADDRESS         REF BY
           =====                   =======         ======
           _Tree<_Tmap_traits<int, list<pair<int, int>>::iterator, less<int>, allocator<pair<int const, list<pair<int, int>>::iterator>>, 0>>::_Isnil(_Tree_algobase<allocator<void>>::_Genptr)
                                   BBAE 
               calls direct
    -------------------------------------------------------------------------
<CODE> 1 (was CODE)
  Relative segment, address: BA46 - BA4D (0x8 bytes), align: 1
  Segment part 117.           Intra module refs:   _Tree<_Tmap_traits<int, list<pair<int, int>>::iterator, less<int>, allocator<pair<int const, list<pair<int, int>>::iterator>>, 0>>::_Lbound(int) const
                                                   _Tree<_Tmap_traits<int, list<pair<int, int>>::iterator, less<int>, allocator<pair<int const, list<pair<int, int>>::iterator>>, 0>>::_Ubound(int) const
                                                   _Tree<_Tmap_traits<int, list<pair<int, int>>::iterator, less<int>, allocator<pair<int const, list<pair<int, int>>::iterator>>, 0>>::insert(pair<int const, list<pair<int, int>>::iterator> const &)
           ENTRY                   ADDRESS         REF BY
           =====                   =======         ======
           _Tree<_Tmap_traits<int, list<pair<int, int>>::iterator, less<int>, allocator<pair<int const, list<pair<int, int>>::iterator>>, 0>>::_Key(_Tree_algobase<allocator<void>>::_Genptr)
                                   BA46 
               calls direct
    -------------------------------------------------------------------------
<CODE> 1 (was CODE)
  Relative segment, address: BC8A - BC8B (0x2 bytes), align: 1
  Segment part 118.           Intra module refs:   _Tree<_Tmap_traits<int, list<pair<int, int>>::iterator, less<int>, allocator<pair<int const, list<pair<int, int>>::iterator>>, 0>>::_Erase(_Nodeptr)
                                                   _Tree<_Tmap_traits<int, list<pair<int, int>>::iterator, less<int>, allocator<pair<int const, list<pair<int, int>>::iterator>>, 0>>::_Lbound(int) const
                                                   _Tree<_Tmap_traits<int, list<pair<int, int>>::iterator, less<int>, allocator<pair<int const, list<pair<int, int>>::iterator>>, 0>>::_Lmost()
                                                   _Tree<_Tmap_traits<int, list<pair<int, int>>::iterator, less<int>, allocator<pair<int const, list<pair<int, int>>::iterator>>, 0>>::_Ubound(int) const
                                                   _Tree<_Tmap_traits<int, list<pair<int, int>>::iterator, less<int>, allocator<pair<int const, list<pair<int, int>>::iterator>>, 0>>::insert(pair<int const, list<pair<int, int>>::iterator> const &)
           ENTRY                   ADDRESS         REF BY
           =====                   =======         ======
           _Tree<_Tmap_traits<int, list<pair<int, int>>::iterator, less<int>, allocator<pair<int const, list<pair<int, int>>::iterator>>, 0>>::_Left(_Tree_algobase<allocator<void>>::_Genptr)
                                   BC8A 
    -------------------------------------------------------------------------
<CODE> 1 (was CODE)
  Relative segment, address: BBA2 - BBA5 (0x4 bytes), align: 1
  Segment part 119.           Intra module refs:   _Tree<_Tmap_traits<int, list<pair<int, int>>::iterator, less<int>, allocator<pair<int const, list<pair<int, int>>::iterator>>, 0>>::_Root()
                                                   _Tree<_Tmap_traits<int, list<pair<int, int>>::iterator, less<int>, allocator<pair<int const, list<pair<int, int>>::iterator>>, 0>>::_Root() const
           ENTRY                   ADDRESS         REF BY
           =====                   =======         ======
           _Tree<_Tmap_traits<int, list<pair<int, int>>::iterator, less<int>, allocator<pair<int const, list<pair<int, int>>::iterator>>, 0>>::_Parent(_Tree_algobase<allocator<void>>::_Genptr)
                                   BBA2 
    -------------------------------------------------------------------------
<CODE> 1 (was CODE)
  Relative segment, address: BB9E - BBA1 (0x4 bytes), align: 1
  Segment part 120.           Intra module refs:   _Tree<_Tmap_traits<int, list<pair<int, int>>::iterator, less<int>, allocator<pair<int const, list<pair<int, int>>::iterator>>, 0>>::_Erase(_Nodeptr)
                                                   _Tree<_Tmap_traits<int, list<pair<int, int>>::iterator, less<int>, allocator<pair<int const, list<pair<int, int>>::iterator>>, 0>>::_Lbound(int) const
                                                   _Tree<_Tmap_traits<int, list<pair<int, int>>::iterator, less<int>, allocator<pair<int const, list<pair<int, int>>::iterator>>, 0>>::_Ubound(int) const
                                                   _Tree<_Tmap_traits<int, list<pair<int, int>>::iterator, less<int>, allocator<pair<int const, list<pair<int, int>>::iterator>>, 0>>::insert(pair<int const, list<pair<int, int>>::iterator> const &)
           ENTRY                   ADDRESS         REF BY
           =====                   =======         ======
           _Tree<_Tmap_traits<int, list<pair<int, int>>::iterator, less<int>, allocator<pair<int const, list<pair<int, int>>::iterator>>, 0>>::_Right(_Tree_algobase<allocator<void>>::_Genptr)
                                   BB9E 
    -------------------------------------------------------------------------
<CODE> 1 (was CODE)
  Relative segment, address: BB9A - BB9D (0x4 bytes), align: 1
  Segment part 116.           Intra module refs:   _Tree<_Tmap_traits<int, list<pair<int, int>>::iterator, less<int>, allocator<pair<int const, list<pair<int, int>>::iterator>>, 0>>::_Key(_Tree_algobase<allocator<void>>::_Genptr)
                                                   _Tree<_Tmap_traits<int, list<pair<int, int>>::iterator, less<int>, allocator<pair<int const, list<pair<int, int>>::iterator>>, 0>>::iterator::operator*() const
           ENTRY                   ADDRESS         REF BY
           =====                   =======         ======
           _Tree<_Tmap_traits<int, list<pair<int, int>>::iterator, less<int>, allocator<pair<int const, list<pair<int, int>>::iterator>>, 0>>::_Myval(_Tree_algobase<allocator<void>>::_Genptr)
                                   BB9A 
    -------------------------------------------------------------------------
<CODE> 1 (was CODE)
  Relative segment, address: B63E - B64D (0x10 bytes), align: 1
  Segment part 121.           Intra module refs:   _Tree<_Tmap_traits<int, list<pair<int, int>>::iterator, less<int>, allocator<pair<int const, list<pair<int, int>>::iterator>>, 0>>::iterator::iterator(_Tree_algobase<allocator<void>>::_Genptr)
                                                   _Tree<_Tmap_traits<int, list<pair<int, int>>::iterator, less<int>, allocator<pair<int const, list<pair<int, int>>::iterator>>, 0>>::lower_bound(int) const
                                                   _Tree<_Tmap_traits<int, list<pair<int, int>>::iterator, less<int>, allocator<pair<int const, list<pair<int, int>>::iterator>>, 0>>::upper_bound(int) const
           ENTRY                   ADDRESS         REF BY
           =====                   =======         ======
           _Tree<_Tmap_traits<int, list<pair<int, int>>::iterator, less<int>, allocator<pair<int const, list<pair<int, int>>::iterator>>, 0>>::const_iterator::const_iterator(_Tree_algobase<allocator<void>>::_Genptr)
                                   B63E 
               calls direct
    -------------------------------------------------------------------------
<CODE> 1 (was CODE)
  Relative segment, address: B65E - B66D (0x10 bytes), align: 1
  Segment part 43.            Intra module refs:   iterator_traits<_InIt>::difference_type _DistanceHelper<bidirectional_iterator_tag>::_Distance(_InIt, _InIt)[with _InIt=_TypeUtil::_StripMemory<_Tree<_Tmap_traits<int, list<pair<int, int>>::iterator, less<int>, allocator<pair<int const, list<pair<int, int>>::iterator>>, 0>>::const_iterator>::_Type]
           ENTRY                   ADDRESS         REF BY
           =====                   =======         ======
           _Tree<_Tmap_traits<int, list<pair<int, int>>::iterator, less<int>, allocator<pair<int const, list<pair<int, int>>::iterator>>, 0>>::const_iterator::operator++()
                                   B65E 
               calls direct
    -------------------------------------------------------------------------
<CODE> 1 (was CODE)
  Relative segment, address: BB8E - BB91 (0x4 bytes), align: 1
  Segment part 122.           Intra module refs:   _Tree<_Tmap_traits<int, list<pair<int, int>>::iterator, less<int>, allocator<pair<int const, list<pair<int, int>>::iterator>>, 0>>::const_iterator::operator!=(_Tree<_Tmap_traits<int, list<pair<int, int>>::iterator, less<int>, allocator<pair<int const, list<pair<int, int>>::iterator>>, 0>>::const_iterator const &) const
                                                   _Tree<_Tmap_traits<int, list<pair<int, int>>::iterator, less<int>, allocator<pair<int const, list<pair<int, int>>::iterator>>, 0>>::erase(iterator, iterator)
                                                   _Tree<_Tmap_traits<int, list<pair<int, int>>::iterator, less<int>, allocator<pair<int const, list<pair<int, int>>::iterator>>, 0>>::insert(pair<int const, list<pair<int, int>>::iterator> const &)
           ENTRY                   ADDRESS         REF BY
           =====                   =======         ======
           _Tree<_Tmap_traits<int, list<pair<int, int>>::iterator, less<int>, allocator<pair<int const, list<pair<int, int>>::iterator>>, 0>>::const_iterator::operator==(_Tree<_Tmap_traits<int, list<pair<int, int>>::iterator, less<int>, allocator<pair<int const, list<pair<int, int>>::iterator>>, 0>>::const_iterator const &) const
                                   BB8E 
               calls direct
    -------------------------------------------------------------------------
<CODE> 1 (was CODE)
  Relative segment, address: B97C - B985 (0xa bytes), align: 1
  Segment part 123.           Intra module refs:   _Tree<_Tmap_traits<int, list<pair<int, int>>::iterator, less<int>, allocator<pair<int const, list<pair<int, int>>::iterator>>, 0>>::erase(iterator, iterator)
                                                   iterator_traits<_InIt>::difference_type _DistanceHelper<bidirectional_iterator_tag>::_Distance(_InIt, _InIt)[with _InIt=_TypeUtil::_StripMemory<_Tree<_Tmap_traits<int, list<pair<int, int>>::iterator, less<int>, allocator<pair<int const, list<pair<int, int>>::iterator>>, 0>>::const_iterator>::_Type]
                                                   iterator_traits<_InIt>::difference_type _DistanceHelper<bidirectional_iterator_tag>::_Distance(_InIt, _InIt)[with _InIt=_TypeUtil::_StripMemory<_Tree<_Tmap_traits<int, list<pair<int, int>>::iterator, less<int>, allocator<pair<int const, list<pair<int, int>>::iterator>>, 0>>::iterator>::_Type]
           ENTRY                   ADDRESS         REF BY
           =====                   =======         ======
           _Tree<_Tmap_traits<int, list<pair<int, int>>::iterator, less<int>, allocator<pair<int const, list<pair<int, int>>::iterator>>, 0>>::const_iterator::operator!=(_Tree<_Tmap_traits<int, list<pair<int, int>>::iterator, less<int>, allocator<pair<int const, list<pair<int, int>>::iterator>>, 0>>::const_iterator const &) const
                                   B97C 
               calls direct
    -------------------------------------------------------------------------
<CODE> 1 (was CODE)
  Relative segment, address: BB6A - BB6D (0x4 bytes), align: 1
  Segment part 124.           Intra module refs:   _Tree<_Tmap_traits<int, list<pair<int, int>>::iterator, less<int>, allocator<pair<int const, list<pair<int, int>>::iterator>>, 0>>::erase(iterator)
                                                   _Tree<_Tmap_traits<int, list<pair<int, int>>::iterator, less<int>, allocator<pair<int const, list<pair<int, int>>::iterator>>, 0>>::insert(pair<int const, list<pair<int, int>>::iterator> const &)
           ENTRY                   ADDRESS         REF BY
           =====                   =======         ======
           _Tree<_Tmap_traits<int, list<pair<int, int>>::iterator, less<int>, allocator<pair<int const, list<pair<int, int>>::iterator>>, 0>>::const_iterator::_Mynode() const
                                   BB6A 
               calls direct
    -------------------------------------------------------------------------
<CODE> 1 (was CODE)
  Relative segment, address: B66E - B67D (0x10 bytes), align: 1
  Segment part 125.           Intra module refs:   _Tree<_Tmap_traits<int, list<pair<int, int>>::iterator, less<int>, allocator<pair<int const, list<pair<int, int>>::iterator>>, 0>>::_Insert(bool, _Nodeptr, pair<int const, list<pair<int, int>>::iterator> const &)
                                                   _Tree<_Tmap_traits<int, list<pair<int, int>>::iterator, less<int>, allocator<pair<int const, list<pair<int, int>>::iterator>>, 0>>::begin()
                                                   _Tree<_Tmap_traits<int, list<pair<int, int>>::iterator, less<int>, allocator<pair<int const, list<pair<int, int>>::iterator>>, 0>>::end()
                                                   _Tree<_Tmap_traits<int, list<pair<int, int>>::iterator, less<int>, allocator<pair<int const, list<pair<int, int>>::iterator>>, 0>>::insert(pair<int const, list<pair<int, int>>::iterator> const &)
                                                   _Tree<_Tmap_traits<int, list<pair<int, int>>::iterator, less<int>, allocator<pair<int const, list<pair<int, int>>::iterator>>, 0>>::lower_bound(int)
                                                   _Tree<_Tmap_traits<int, list<pair<int, int>>::iterator, less<int>, allocator<pair<int const, list<pair<int, int>>::iterator>>, 0>>::upper_bound(int)
           ENTRY                   ADDRESS         REF BY
           =====                   =======         ======
           _Tree<_Tmap_traits<int, list<pair<int, int>>::iterator, less<int>, allocator<pair<int const, list<pair<int, int>>::iterator>>, 0>>::iterator::iterator(_Tree_algobase<allocator<void>>::_Genptr)
                                   B66E 
               calls direct
    -------------------------------------------------------------------------
<CODE> 1 (was CODE)
  Relative segment, address: BA1E - BA25 (0x8 bytes), align: 1
  Segment part 126.           Intra module refs:   map<int, list<pair<int, int>>::iterator>::operator[](int)
           ENTRY                   ADDRESS         REF BY
           =====                   =======         ======
           _Tree<_Tmap_traits<int, list<pair<int, int>>::iterator, less<int>, allocator<pair<int const, list<pair<int, int>>::iterator>>, 0>>::iterator::operator*() const
                                   BA1E 
               calls direct
    -------------------------------------------------------------------------
<CODE> 1 (was CODE)
  Relative segment, address: B68E - B69D (0x10 bytes), align: 1
  Segment part 45.            Intra module refs:   _Tree<_Tmap_traits<int, list<pair<int, int>>::iterator, less<int>, allocator<pair<int const, list<pair<int, int>>::iterator>>, 0>>::erase(iterator)
                                                   _Tree<_Tmap_traits<int, list<pair<int, int>>::iterator, less<int>, allocator<pair<int const, list<pair<int, int>>::iterator>>, 0>>::iterator::operator++(int)
                                                   iterator_traits<_InIt>::difference_type _DistanceHelper<bidirectional_iterator_tag>::_Distance(_InIt, _InIt)[with _InIt=_TypeUtil::_StripMemory<_Tree<_Tmap_traits<int, list<pair<int, int>>::iterator, less<int>, allocator<pair<int const, list<pair<int, int>>::iterator>>, 0>>::iterator>::_Type]
           ENTRY                   ADDRESS         REF BY
           =====                   =======         ======
           _Tree<_Tmap_traits<int, list<pair<int, int>>::iterator, less<int>, allocator<pair<int const, list<pair<int, int>>::iterator>>, 0>>::iterator::operator++()
                                   B68E 
               calls direct
    -------------------------------------------------------------------------
<CODE> 1 (was CODE)
  Relative segment, address: B0BE - B0D9 (0x1c bytes), align: 1
  Segment part 127.           Intra module refs:   _Tree<_Tmap_traits<int, list<pair<int, int>>::iterator, less<int>, allocator<pair<int const, list<pair<int, int>>::iterator>>, 0>>::erase(iterator, iterator)
           ENTRY                   ADDRESS         REF BY
           =====                   =======         ======
           _Tree<_Tmap_traits<int, list<pair<int, int>>::iterator, less<int>, allocator<pair<int const, list<pair<int, int>>::iterator>>, 0>>::iterator::operator++(int)
                                   B0BE 
               calls direct
    -------------------------------------------------------------------------
<CODE> 1 (was CODE)
  Relative segment, address: B77E - B78D (0x10 bytes), align: 1
  Segment part 128.           Intra module refs:   _Tree<_Tmap_traits<int, list<pair<int, int>>::iterator, less<int>, allocator<pair<int const, list<pair<int, int>>::iterator>>, 0>>::insert(pair<int const, list<pair<int, int>>::iterator> const &)
           ENTRY                   ADDRESS         REF BY
           =====                   =======         ======
           _Tree<_Tmap_traits<int, list<pair<int, int>>::iterator, less<int>, allocator<pair<int const, list<pair<int, int>>::iterator>>, 0>>::iterator::operator--()
                                   B77E 
               calls direct
    -------------------------------------------------------------------------
<CODE> 1 (was CODE)
  Relative segment, address: B448 - B45D (0x16 bytes), align: 1
  Segment part 9.             Intra module refs:   map<int, list<pair<int, int>>::iterator>::map()
           ENTRY                   ADDRESS         REF BY
           =====                   =======         ======
           _Tree<_Tmap_traits<int, list<pair<int, int>>::iterator, less<int>, allocator<pair<int const, list<pair<int, int>>::iterator>>, 0>>::_Tree(less<int> const &, allocator<pair<int const, list<pair<int, int>>::iterator>> const &)
                                   B448 
               calls direct
    -------------------------------------------------------------------------
<CODE> 1 (was CODE)
  Relative segment, address: AF8E - AFAD (0x20 bytes), align: 1
  Segment part 131.           Intra module refs:   _Tree<_Tmap_traits<int, list<pair<int, int>>::iterator, less<int>, allocator<pair<int const, list<pair<int, int>>::iterator>>, 0>>::erase(iterator, iterator)
                                                   _Tree<_Tmap_traits<int, list<pair<int, int>>::iterator, less<int>, allocator<pair<int const, list<pair<int, int>>::iterator>>, 0>>::insert(pair<int const, list<pair<int, int>>::iterator> const &)
           ENTRY                   ADDRESS         REF BY
           =====                   =======         ======
           _Tree<_Tmap_traits<int, list<pair<int, int>>::iterator, less<int>, allocator<pair<int const, list<pair<int, int>>::iterator>>, 0>>::begin()
                                   AF8E 
               calls direct
    -------------------------------------------------------------------------
<CODE> 1 (was CODE)
  Relative segment, address: B362 - B379 (0x18 bytes), align: 1
  Segment part 132.           Intra module refs:   _Tree<_Tmap_traits<int, list<pair<int, int>>::iterator, less<int>, allocator<pair<int const, list<pair<int, int>>::iterator>>, 0>>::erase(iterator, iterator)
           ENTRY                   ADDRESS         REF BY
           =====                   =======         ======
           _Tree<_Tmap_traits<int, list<pair<int, int>>::iterator, less<int>, allocator<pair<int const, list<pair<int, int>>::iterator>>, 0>>::end()
                                   B362 
               calls direct
    -------------------------------------------------------------------------
<CODE> 1 (was CODE)
  Relative segment, address: B54C - B55D (0x12 bytes), align: 1
  Segment part 133.           Intra module refs:   _Tree<_Tmap_traits<int, list<pair<int, int>>::iterator, less<int>, allocator<pair<int const, list<pair<int, int>>::iterator>>, 0>>::_Insert(bool, _Nodeptr, pair<int const, list<pair<int, int>>::iterator> const &)
           ENTRY                   ADDRESS         REF BY
           =====                   =======         ======
           _Tree<_Tmap_traits<int, list<pair<int, int>>::iterator, less<int>, allocator<pair<int const, list<pair<int, int>>::iterator>>, 0>>::max_size() const
                                   B54C 
               calls direct
    -------------------------------------------------------------------------
<CODE> 1 (was CODE)
  Relative segment, address: 79EA - 7B25 (0x13c bytes), align: 1
  Segment part 137.           Intra module refs:   map<int, list<pair<int, int>>::iterator>::operator[](int)
           ENTRY                   ADDRESS         REF BY
           =====                   =======         ======
           _Tree<_Tmap_traits<int, list<pair<int, int>>::iterator, less<int>, allocator<pair<int const, list<pair<int, int>>::iterator>>, 0>>::insert(pair<int const, list<pair<int, int>>::iterator> const &)
                                   79EA 
               calls direct
    -------------------------------------------------------------------------
<CODE> 1 (was CODE)
  Relative segment, address: 95E6 - 9647 (0x62 bytes), align: 1
  Segment part 138.           Intra module refs:   _Tree<_Tmap_traits<int, list<pair<int, int>>::iterator, less<int>, allocator<pair<int const, list<pair<int, int>>::iterator>>, 0>>::erase(iterator, iterator)
           ENTRY                   ADDRESS         REF BY
           =====                   =======         ======
           _Tree<_Tmap_traits<int, list<pair<int, int>>::iterator, less<int>, allocator<pair<int const, list<pair<int, int>>::iterator>>, 0>>::erase(iterator)
                                   95E6 
               calls direct
    -------------------------------------------------------------------------
<CODE> 1 (was CODE)
  Relative segment, address: 8E30 - 8EC7 (0x98 bytes), align: 1
  Segment part 141.           Intra module refs:   _Tree<_Tmap_traits<int, list<pair<int, int>>::iterator, less<int>, allocator<pair<int const, list<pair<int, int>>::iterator>>, 0>>::erase(int)
           ENTRY                   ADDRESS         REF BY
           =====                   =======         ======
           _Tree<_Tmap_traits<int, list<pair<int, int>>::iterator, less<int>, allocator<pair<int const, list<pair<int, int>>::iterator>>, 0>>::erase(iterator, iterator)
                                   8E30 
               calls direct
    -------------------------------------------------------------------------
<CODE> 1 (was CODE)
  Relative segment, address: A11A - A157 (0x3e bytes), align: 1
  Segment part 148.           Intra module refs:   DualLRU::PutIntoSubCache(int, int)
                                                   LRUCache::Put(int, int) (lru)
           ENTRY                   ADDRESS         REF BY
           =====                   =======         ======
           _Tree<_Tmap_traits<int, list<pair<int, int>>::iterator, less<int>, allocator<pair<int const, list<pair<int, int>>::iterator>>, 0>>::erase(int)
                                   A11A 
               calls direct
    -------------------------------------------------------------------------
<CODE> 1 (was CODE)
  Relative segment, address: B112 - B12D (0x1c bytes), align: 1
  Segment part 140.           Intra module refs:   _Tree<_Tmap_traits<int, list<pair<int, int>>::iterator, less<int>, allocator<pair<int const, list<pair<int, int>>::iterator>>, 0>>::erase(iterator, iterator)
           ENTRY                   ADDRESS         REF BY
           =====                   =======         ======
           _Tree<_Tmap_traits<int, list<pair<int, int>>::iterator, less<int>, allocator<pair<int const, list<pair<int, int>>::iterator>>, 0>>::clear()
                                   B112 
               calls direct
    -------------------------------------------------------------------------
<CODE> 1 (was CODE)
  Relative segment, address: AFEE - B00D (0x20 bytes), align: 1
  Segment part 152.           Intra module refs:   DualLRU::PutIntoSubCache(int, int)
                                                   LRUCache::Get(int) (lru)
                                                   LRUCache::Put(int, int) (lru)
           ENTRY                   ADDRESS         REF BY
           =====                   =======         ======
           _Tree<_Tmap_traits<int, list<pair<int, int>>::iterator, less<int>, allocator<pair<int const, list<pair<int, int>>::iterator>>, 0>>::count(int) const
                                   AFEE 
               calls direct
    -------------------------------------------------------------------------
<CODE> 1 (was CODE)
  Relative segment, address: AE24 - AE45 (0x22 bytes), align: 1
  Segment part 146.           Intra module refs:   _Tree<_Tmap_traits<int, list<pair<int, int>>::iterator, less<int>, allocator<pair<int const, list<pair<int, int>>::iterator>>, 0>>::equal_range(int)
           ENTRY                   ADDRESS         REF BY
           =====                   =======         ======
           _Tree<_Tmap_traits<int, list<pair<int, int>>::iterator, less<int>, allocator<pair<int const, list<pair<int, int>>::iterator>>, 0>>::lower_bound(int)
                                   AE24 
               calls direct
    -------------------------------------------------------------------------
<CODE> 1 (was CODE)
  Relative segment, address: AE02 - AE23 (0x22 bytes), align: 1
  Segment part 150.           Intra module refs:   _Tree<_Tmap_traits<int, list<pair<int, int>>::iterator, less<int>, allocator<pair<int const, list<pair<int, int>>::iterator>>, 0>>::equal_range(int) const
           ENTRY                   ADDRESS         REF BY
           =====                   =======         ======
           _Tree<_Tmap_traits<int, list<pair<int, int>>::iterator, less<int>, allocator<pair<int const, list<pair<int, int>>::iterator>>, 0>>::lower_bound(int) const
                                   AE02 
               calls direct
    -------------------------------------------------------------------------
<CODE> 1 (was CODE)
  Relative segment, address: AEAC - AECD (0x22 bytes), align: 1
  Segment part 144.           Intra module refs:   _Tree<_Tmap_traits<int, list<pair<int, int>>::iterator, less<int>, allocator<pair<int const, list<pair<int, int>>::iterator>>, 0>>::equal_range(int)
           ENTRY                   ADDRESS         REF BY
           =====                   =======         ======
           _Tree<_Tmap_traits<int, list<pair<int, int>>::iterator, less<int>, allocator<pair<int const, list<pair<int, int>>::iterator>>, 0>>::upper_bound(int)
                                   AEAC 
               calls direct
    -------------------------------------------------------------------------
<CODE> 1 (was CODE)
  Relative segment, address: AE8A - AEAB (0x22 bytes), align: 1
  Segment part 149.           Intra module refs:   _Tree<_Tmap_traits<int, list<pair<int, int>>::iterator, less<int>, allocator<pair<int const, list<pair<int, int>>::iterator>>, 0>>::equal_range(int) const
           ENTRY                   ADDRESS         REF BY
           =====                   =======         ======
           _Tree<_Tmap_traits<int, list<pair<int, int>>::iterator, less<int>, allocator<pair<int const, list<pair<int, int>>::iterator>>, 0>>::upper_bound(int) const
                                   AE8A 
               calls direct
    -------------------------------------------------------------------------
<CODE> 1 (was CODE)
  Relative segment, address: 9ED2 - 9F15 (0x44 bytes), align: 1
  Segment part 147.           Intra module refs:   _Tree<_Tmap_traits<int, list<pair<int, int>>::iterator, less<int>, allocator<pair<int const, list<pair<int, int>>::iterator>>, 0>>::erase(int)
           ENTRY                   ADDRESS         REF BY
           =====                   =======         ======
           _Tree<_Tmap_traits<int, list<pair<int, int>>::iterator, less<int>, allocator<pair<int const, list<pair<int, int>>::iterator>>, 0>>::equal_range(int)
                                   9ED2 
               calls direct
    -------------------------------------------------------------------------
<CODE> 1 (was CODE)
  Relative segment, address: 9F16 - 9F59 (0x44 bytes), align: 1
  Segment part 151.           Intra module refs:   _Tree<_Tmap_traits<int, list<pair<int, int>>::iterator, less<int>, allocator<pair<int const, list<pair<int, int>>::iterator>>, 0>>::count(int) const
           ENTRY                   ADDRESS         REF BY
           =====                   =======         ======
           _Tree<_Tmap_traits<int, list<pair<int, int>>::iterator, less<int>, allocator<pair<int const, list<pair<int, int>>::iterator>>, 0>>::equal_range(int) const
                                   9F16 
               calls direct
    -------------------------------------------------------------------------
<CODE> 1 (was CODE)
  Relative segment, address: 9826 - 9881 (0x5c bytes), align: 1
  Segment part 139.           Intra module refs:   _Tree<_Tmap_traits<int, list<pair<int, int>>::iterator, less<int>, allocator<pair<int const, list<pair<int, int>>::iterator>>, 0>>::clear()
           ENTRY                   ADDRESS         REF BY
           =====                   =======         ======
           _Tree<_Tmap_traits<int, list<pair<int, int>>::iterator, less<int>, allocator<pair<int const, list<pair<int, int>>::iterator>>, 0>>::_Erase(_Nodeptr)
                                   9826 
               calls direct
    -------------------------------------------------------------------------
<CODE> 1 (was CODE)
  Relative segment, address: 96A8 - 9707 (0x60 bytes), align: 1
  Segment part 135.           Intra module refs:   _Tree<_Tmap_traits<int, list<pair<int, int>>::iterator, less<int>, allocator<pair<int const, list<pair<int, int>>::iterator>>, 0>>::insert(pair<int const, list<pair<int, int>>::iterator> const &)
           ENTRY                   ADDRESS         REF BY
           =====                   =======         ======
           _Tree<_Tmap_traits<int, list<pair<int, int>>::iterator, less<int>, allocator<pair<int const, list<pair<int, int>>::iterator>>, 0>>::_Insert(bool, _Nodeptr, pair<int const, list<pair<int, int>>::iterator> const &)
                                   96A8 
               calls direct
    -------------------------------------------------------------------------
<CODE> 1 (was CODE)
  Relative segment, address: 9708 - 9767 (0x60 bytes), align: 1
  Segment part 145.           Intra module refs:   _Tree<_Tmap_traits<int, list<pair<int, int>>::iterator, less<int>, allocator<pair<int const, list<pair<int, int>>::iterator>>, 0>>::lower_bound(int)
                                                   _Tree<_Tmap_traits<int, list<pair<int, int>>::iterator, less<int>, allocator<pair<int const, list<pair<int, int>>::iterator>>, 0>>::lower_bound(int) const
           ENTRY                   ADDRESS         REF BY
           =====                   =======         ======
           _Tree<_Tmap_traits<int, list<pair<int, int>>::iterator, less<int>, allocator<pair<int const, list<pair<int, int>>::iterator>>, 0>>::_Lbound(int) const
                                   9708 
               calls direct
    -------------------------------------------------------------------------
<CODE> 1 (was CODE)
  Relative segment, address: BA4E - BA55 (0x8 bytes), align: 1
  Segment part 130.           Intra module refs:   _Tree<_Tmap_traits<int, list<pair<int, int>>::iterator, less<int>, allocator<pair<int const, list<pair<int, int>>::iterator>>, 0>>::begin()
           ENTRY                   ADDRESS         REF BY
           =====                   =======         ======
           _Tree<_Tmap_traits<int, list<pair<int, int>>::iterator, less<int>, allocator<pair<int const, list<pair<int, int>>::iterator>>, 0>>::_Lmost()
                                   BA4E 
               calls direct
    -------------------------------------------------------------------------
<CODE> 1 (was CODE)
  Relative segment, address: B9FE - BA05 (0x8 bytes), align: 1
  Segment part 136.           Intra module refs:   _Tree<_Tmap_traits<int, list<pair<int, int>>::iterator, less<int>, allocator<pair<int const, list<pair<int, int>>::iterator>>, 0>>::clear()
                                                   _Tree<_Tmap_traits<int, list<pair<int, int>>::iterator, less<int>, allocator<pair<int const, list<pair<int, int>>::iterator>>, 0>>::insert(pair<int const, list<pair<int, int>>::iterator> const &)
           ENTRY                   ADDRESS         REF BY
           =====                   =======         ======
           _Tree<_Tmap_traits<int, list<pair<int, int>>::iterator, less<int>, allocator<pair<int const, list<pair<int, int>>::iterator>>, 0>>::_Root()
                                   B9FE 
               calls direct
    -------------------------------------------------------------------------
<CODE> 1 (was CODE)
  Relative segment, address: BA16 - BA1D (0x8 bytes), align: 1
  Segment part 142.           Intra module refs:   _Tree<_Tmap_traits<int, list<pair<int, int>>::iterator, less<int>, allocator<pair<int const, list<pair<int, int>>::iterator>>, 0>>::_Lbound(int) const
                                                   _Tree<_Tmap_traits<int, list<pair<int, int>>::iterator, less<int>, allocator<pair<int const, list<pair<int, int>>::iterator>>, 0>>::_Ubound(int) const
           ENTRY                   ADDRESS         REF BY
           =====                   =======         ======
           _Tree<_Tmap_traits<int, list<pair<int, int>>::iterator, less<int>, allocator<pair<int const, list<pair<int, int>>::iterator>>, 0>>::_Root() const
                                   BA16 
               calls direct
    -------------------------------------------------------------------------
<CODE> 1 (was CODE)
  Relative segment, address: BC98 - BC99 (0x2 bytes), align: 1
  Segment part 129.           Intra module refs:   _Tree<_Tmap_traits<int, list<pair<int, int>>::iterator, less<int>, allocator<pair<int const, list<pair<int, int>>::iterator>>, 0>>::_Insert(bool, _Nodeptr, pair<int const, list<pair<int, int>>::iterator> const &)
                                                   _Tree<_Tmap_traits<int, list<pair<int, int>>::iterator, less<int>, allocator<pair<int const, list<pair<int, int>>::iterator>>, 0>>::_Lbound(int) const
                                                   _Tree<_Tmap_traits<int, list<pair<int, int>>::iterator, less<int>, allocator<pair<int const, list<pair<int, int>>::iterator>>, 0>>::_Lmost()
                                                   _Tree<_Tmap_traits<int, list<pair<int, int>>::iterator, less<int>, allocator<pair<int const, list<pair<int, int>>::iterator>>, 0>>::_Root()
                                                   _Tree<_Tmap_traits<int, list<pair<int, int>>::iterator, less<int>, allocator<pair<int const, list<pair<int, int>>::iterator>>, 0>>::_Root() const
                                                   _Tree<_Tmap_traits<int, list<pair<int, int>>::iterator, less<int>, allocator<pair<int const, list<pair<int, int>>::iterator>>, 0>>::_Ubound(int) const
                                                   _Tree<_Tmap_traits<int, list<pair<int, int>>::iterator, less<int>, allocator<pair<int const, list<pair<int, int>>::iterator>>, 0>>::insert(pair<int const, list<pair<int, int>>::iterator> const &)
           ENTRY                   ADDRESS         REF BY
           =====                   =======         ======
           _Tree<_Tmap_traits<int, list<pair<int, int>>::iterator, less<int>, allocator<pair<int const, list<pair<int, int>>::iterator>>, 0>>::_Head() const
                                   BC98 
    -------------------------------------------------------------------------
<CODE> 1 (was CODE)
  Relative segment, address: 9768 - 97C7 (0x60 bytes), align: 1
  Segment part 143.           Intra module refs:   _Tree<_Tmap_traits<int, list<pair<int, int>>::iterator, less<int>, allocator<pair<int const, list<pair<int, int>>::iterator>>, 0>>::upper_bound(int)
                                                   _Tree<_Tmap_traits<int, list<pair<int, int>>::iterator, less<int>, allocator<pair<int const, list<pair<int, int>>::iterator>>, 0>>::upper_bound(int) const
           ENTRY                   ADDRESS         REF BY
           =====                   =======         ======
           _Tree<_Tmap_traits<int, list<pair<int, int>>::iterator, less<int>, allocator<pair<int const, list<pair<int, int>>::iterator>>, 0>>::_Ubound(int) const
                                   9768 
               calls direct
    -------------------------------------------------------------------------
<CODE> 1 (was CODE)
  Relative segment, address: 9D24 - 9D6F (0x4c bytes), align: 1
  Segment part 134.           Intra module refs:   _Tree<_Tmap_traits<int, list<pair<int, int>>::iterator, less<int>, allocator<pair<int const, list<pair<int, int>>::iterator>>, 0>>::_Insert(bool, _Nodeptr, pair<int const, list<pair<int, int>>::iterator> const &)
           ENTRY                   ADDRESS         REF BY
           =====                   =======         ======
           _Tree<_Tmap_traits<int, list<pair<int, int>>::iterator, less<int>, allocator<pair<int const, list<pair<int, int>>::iterator>>, 0>>::_Buynode(_Nodeptr, _Nodeptr, _Nodeptr, pair<int const, list<pair<int, int>>::iterator> const &, char)
                                   9D24 
               calls direct
    -------------------------------------------------------------------------
<CODE> 1 (was CODE)
  Relative segment, address: BB6E - BB71 (0x4 bytes), align: 1
  Segment part 112.           Intra module refs:   _Tree_val<_Tmap_traits<int, list<pair<int, int>>::iterator, less<int>, allocator<pair<int const, list<pair<int, int>>::iterator>>, 0>>::_Kfn(pair<int const, list<pair<int, int>>::iterator> const &)
           ENTRY                   ADDRESS         REF BY
           =====                   =======         ======
           _Tmap_traits<int, list<pair<int, int>>::iterator, less<int>, allocator<pair<int const, list<pair<int, int>>::iterator>>, 0>::_Kfn(pair<int const, list<pair<int, int>>::iterator> const &)
                                   BB6E 
    -------------------------------------------------------------------------
<CODE> 1 (was CODE)
  Relative segment, address: B180 - B199 (0x1a bytes), align: 1
  Segment part 10.            Intra module refs:   LRUCache::LRUCache(int)
           ENTRY                   ADDRESS         REF BY
           =====                   =======         ======
           map<int, list<pair<int, int>>::iterator>::map()
                                   B180 
               calls direct
    -------------------------------------------------------------------------
<CODE> 1 (was CODE)
  Relative segment, address: A5D8 - A60D (0x36 bytes), align: 1
  Segment part 153.           Intra module refs:   DualLRU::PutIntoSubCache(int, int)
                                                   LRUCache::Get(int) (lru)
                                                   LRUCache::Put(int, int) (lru)
           ENTRY                   ADDRESS         REF BY
           =====                   =======         ======
           map<int, list<pair<int, int>>::iterator>::operator[](int)
                                   A5D8 
               calls direct
    -------------------------------------------------------------------------
<CODE> 1 (was CODE)
  Relative segment, address: B00E - B02D (0x20 bytes), align: 1
  Segment part 14.            Intra module refs:   DualLRU::DualLRU(int, float)
           ENTRY                   ADDRESS         REF BY
           =====                   =======         ======
           LRUCache::LRUCache(int)
                                   B00E 
               calls direct
    -------------------------------------------------------------------------
<CODE> 1 (was CODE)
  Relative segment, address: B0F6 - B111 (0x1c bytes), align: 1
  Segment part 15.
           ENTRY                   ADDRESS         REF BY
           =====                   =======         ======
           DualLRU::DualLRU(int, float)
                                   B0F6            PageTable::PageTable(ETL *) (pagetable)
               calls direct
    -------------------------------------------------------------------------
<CODE> 1 (was CODE)
  Relative segment, address: 9B46 - 9B99 (0x54 bytes), align: 1
  Segment part 17.            Intra module refs:   DualLRU::PutIntoSubCache(int, int)
           ENTRY                   ADDRESS         REF BY
           =====                   =======         ======
           DualLRU::GetSubCacheHead()
                                   9B46 
               calls direct
    -------------------------------------------------------------------------
<CODE> 1 (was CODE)
  Relative segment, address: 8CF4 - 8D93 (0xa0 bytes), align: 1
  Segment part 18.
           ENTRY                   ADDRESS         REF BY
           =====                   =======         ======
           DualLRU::PutIntoSubCache(int, int)
                                   8CF4            PageTable::GetPPN(int) (pagetable)
               calls direct
    -------------------------------------------------------------------------
<CODE> 1 (was CODE)
  Relative segment, address: BB72 - BB75 (0x4 bytes), align: 1
  Segment part 19.
           ENTRY                   ADDRESS         REF BY
           =====                   =======         ======
           DualLRU::PutIntoMainCache(int, int)
                                   BB72            PageTable::GetPPN(int) (pagetable)
                                                   PageTable::Set(int, int) (pagetable)
               calls direct

    *************************************************************************

  FILE NAME : \\Mac\Home\work\ETL\Debug\Obj\dualpool.r43
  PROGRAM MODULE, NAME : dualpool

  SEGMENTS IN THE MODULE
  ======================
<CODE> 1 (was CODE)
  Relative segment, address: BB76 - BB79 (0x4 bytes), align: 1
  Segment part 87.            Intra module refs:   DataPage::DataPage(int)
                                                   ETL::InitialPhysicalPages() (etl)
                                                   ETL::ReadDataPage(int, DataPage *) (etl)
                                                   ETL::WriteDataPage(int, DataPage *) (etl)
           ENTRY                   ADDRESS         REF BY
           =====                   =======         ======
           calloc                  BB76 
               calls direct
    -------------------------------------------------------------------------
<CODE> 1 (was CODE)
  Relative segment, address: A83E - A86D (0x30 bytes), align: 1
  Segment part 88.            Intra module refs:   DualPool::InitialPoolBorder()
                                                   ETL::InitLpnToPpnTable() (etl)
                                                   ETL::InitialDualpool() (etl)
                                                   ETL::InitialPhysicalPages() (etl)
                                                   PageTable::GetPPN(int) (pagetable)
           ENTRY                   ADDRESS         REF BY
           =====                   =======         ======
           DataPage::DataPage(int)
                                   A83E 
               calls direct
    -------------------------------------------------------------------------
<CODE> 1 (was CODE)
  Relative segment, address: B6DE - B6ED (0x10 bytes), align: 1
  Segment part 89.            Intra module refs:   DualPool::InitialPoolBorder()
                                                   ETL::InitLpnToPpnTable() (etl)
                                                   ETL::InitialPhysicalPages() (etl)
                                                   PageTable::GetPPN(int) (pagetable)
           ENTRY                   ADDRESS         REF BY
           =====                   =======         ======
           DataPage::~DataPage()   B6DE 
               calls direct
    -------------------------------------------------------------------------
<CODE> 1 (was CODE)
  Relative segment, address: B31A - B331 (0x18 bytes), align: 1
  Segment part 43.            Intra module refs:   _Ty *_Copy_opt(_Ty const *, _Ty const *, _Ty *)[with _Ty=unsigned char]
           ENTRY                   ADDRESS         REF BY
           =====                   =======         ======
           _Copier<><_Ty, true>[with _Ty=unsigned char]::_Copy(unsigned char const *, unsigned char const *, unsigned char *)
                                   B31A 
               calls direct
    -------------------------------------------------------------------------
<CODE> 1 (was CODE)
  Relative segment, address: BB7A - BB7D (0x4 bytes), align: 1
  Segment part 44.            Intra module refs:   _Ty1 *_Copy_opt(_Ty1 *, _Ty1 *, _Ty1 *)[with _Ty1=unsigned char]
           ENTRY                   ADDRESS         REF BY
           =====                   =======         ======
           _Ty *_Copy_opt(_Ty const *, _Ty const *, _Ty *)[with _Ty=unsigned char]
                                   BB7A 
               calls direct
    -------------------------------------------------------------------------
<CODE> 1 (was CODE)
  Relative segment, address: BB7E - BB81 (0x4 bytes), align: 1
  Segment part 45.            Intra module refs:   _OutIt copy(_InIt, _InIt, _OutIt)[with _InIt=unsigned char *, _OutIt=unsigned char *]
           ENTRY                   ADDRESS         REF BY
           =====                   =======         ======
           _Ty1 *_Copy_opt(_Ty1 *, _Ty1 *, _Ty1 *)[with _Ty1=unsigned char]
                                   BB7E 
               calls direct
    -------------------------------------------------------------------------
<CODE> 1 (was CODE)
  Relative segment, address: BB86 - BB89 (0x4 bytes), align: 1
  Segment part 46.            Intra module refs:   _Vector_impl<unsigned char, allocator<unsigned char>>::_Erase(unsigned char *, unsigned char *)
           ENTRY                   ADDRESS         REF BY
           =====                   =======         ======
           _OutIt copy(_InIt, _InIt, _OutIt)[with _InIt=unsigned char *, _OutIt=unsigned char *]
                                   BB86 
               calls direct
    -------------------------------------------------------------------------
<CODE> 1 (was CODE)
  Relative segment, address: B3AA - B3C1 (0x18 bytes), align: 1
  Segment part 57.            Intra module refs:   _Ty *_Copy_backward_opt(_Ty const *, _Ty const *, _Ty *)[with _Ty=unsigned char]
           ENTRY                   ADDRESS         REF BY
           =====                   =======         ======
           _Backward_copier<><_Ty, true>[with _Ty=unsigned char]::_Copy(unsigned char const *, unsigned char const *, unsigned char *)
                                   B3AA 
               calls direct
    -------------------------------------------------------------------------
<CODE> 1 (was CODE)
  Relative segment, address: BB8A - BB8D (0x4 bytes), align: 1
  Segment part 58.            Intra module refs:   _Ty1 *_Copy_backward_opt(_Ty1 *, _Ty1 *, _Ty1 *)[with _Ty1=unsigned char]
           ENTRY                   ADDRESS         REF BY
           =====                   =======         ======
           _Ty *_Copy_backward_opt(_Ty const *, _Ty const *, _Ty *)[with _Ty=unsigned char]
                                   BB8A 
               calls direct
    -------------------------------------------------------------------------
<CODE> 1 (was CODE)
  Relative segment, address: BBA6 - BBA9 (0x4 bytes), align: 1
  Segment part 59.            Intra module refs:   _BidIt2 copy_backward(_BidIt1, _BidIt1, _BidIt2)[with _BidIt1=unsigned char *, _BidIt2=unsigned char *]
           ENTRY                   ADDRESS         REF BY
           =====                   =======         ======
           _Ty1 *_Copy_backward_opt(_Ty1 *, _Ty1 *, _Ty1 *)[with _Ty1=unsigned char]
                                   BBA6 
               calls direct
    -------------------------------------------------------------------------
<CODE> 1 (was CODE)
  Relative segment, address: BBAA - BBAD (0x4 bytes), align: 1
  Segment part 60.            Intra module refs:   _Vector_impl<unsigned char, allocator<unsigned char>>::_Make_room(unsigned char *, unsigned int)
           ENTRY                   ADDRESS         REF BY
           =====                   =======         ======
           _BidIt2 copy_backward(_BidIt1, _BidIt1, _BidIt2)[with _BidIt1=unsigned char *, _BidIt2=unsigned char *]
                                   BBAA 
               calls direct
    -------------------------------------------------------------------------
<CODE> 1 (was CODE)
  Relative segment, address: BC9E - BC9F (0x2 bytes), align: 1
  Segment part 54.            Intra module refs:   _Vector_impl<unsigned char, allocator<unsigned char>>::_Altyval() const
                                                   _Vector_impl<unsigned char, allocator<unsigned char>>::_Make_room(unsigned char *, unsigned int)
                                                   _Vector_impl<unsigned char, allocator<unsigned char>>::_Ucopy(unsigned char const *, unsigned char const *, unsigned char *)
                                                   _Vector_impl<unsigned char, allocator<unsigned char>>::_Ufill(unsigned char *, unsigned int, unsigned char)
           ENTRY                   ADDRESS         REF BY
           =====                   =======         ======
           void allocator<unsigned char>::allocator(allocator<_Other> const &)[with _Other=void]
                                   BC9E 
    -------------------------------------------------------------------------
<CODE> 1 (was CODE)
  Relative segment, address: BB2E - BB33 (0x6 bytes), align: 1
  Segment part 62.            Intra module refs:   _Vector_impl<unsigned char, allocator<unsigned char>>::_Tidy0()
           ENTRY                   ADDRESS         REF BY
           =====                   =======         ======
           allocator<unsigned char>::deallocate(unsigned char *, unsigned int)
                                   BB2E 
               calls direct
    -------------------------------------------------------------------------
<CODE> 1 (was CODE)
  Relative segment, address: BA92 - BA97 (0x6 bytes), align: 1
  Segment part 74.            Intra module refs:   _Vector_impl<unsigned char, allocator<unsigned char>>::_Make_room(unsigned char *, unsigned int)
           ENTRY                   ADDRESS         REF BY
           =====                   =======         ======
           allocator<unsigned char>::allocate(unsigned int)
                                   BA92 
               calls direct
    -------------------------------------------------------------------------
<CODE> 1 (was CODE)
  Relative segment, address: B918 - B921 (0xa bytes), align: 1
  Segment part 91.            Intra module refs:   _Vector_impl<unsigned char, allocator<unsigned char>>::_Make_room(unsigned char *, unsigned int)
           ENTRY                   ADDRESS         REF BY
           =====                   =======         ======
           allocator<unsigned char>::max_size() const
                                   B918 
    -------------------------------------------------------------------------
<CODE> 1 (was CODE)
  Relative segment, address: B332 - B349 (0x18 bytes), align: 1
  Segment part 92.            Intra module refs:   _Uninit_copier<><_Ty, true>[with _Ty=unsigned char]::_Copy(unsigned char const *, unsigned char const *, unsigned char *)
           ENTRY                   ADDRESS         REF BY
           =====                   =======         ======
           _Uninit_copy(char const *, char const *, char *)
                                   B332 
               calls direct
    -------------------------------------------------------------------------
<CODE> 1 (was CODE)
  Relative segment, address: BBC2 - BBC5 (0x4 bytes), align: 1
  Segment part 69.            Intra module refs:   _Ty *_Uninit_copy(_Ty const *, _Ty const *, _Ty *)[with _Ty=unsigned char]
           ENTRY                   ADDRESS         REF BY
           =====                   =======         ======
           _Uninit_copier<><_Ty, true>[with _Ty=unsigned char]::_Copy(unsigned char const *, unsigned char const *, unsigned char *)
                                   BBC2 
               calls direct
    -------------------------------------------------------------------------
<CODE> 1 (was CODE)
  Relative segment, address: BBC6 - BBC9 (0x4 bytes), align: 1
  Segment part 70.            Intra module refs:   _FwdIt _Uninit_copy(_InIt, _InIt, _FwdIt, _Alloc &)[with _InIt=unsigned char const *, _FwdIt=unsigned char *, _Alloc=allocator<unsigned char>]
           ENTRY                   ADDRESS         REF BY
           =====                   =======         ======
           _Ty *_Uninit_copy(_Ty const *, _Ty const *, _Ty *)[with _Ty=unsigned char]
                                   BBC6 
               calls direct
    -------------------------------------------------------------------------
<CODE> 1 (was CODE)
  Relative segment, address: BBCA - BBCD (0x4 bytes), align: 1
  Segment part 71.            Intra module refs:   _FwdIt _Uninitialized_copy(_InIt, _InIt, _FwdIt, _Alloc &)[with _InIt=unsigned char const *, _FwdIt=unsigned char *, _Alloc=allocator<unsigned char>]
           ENTRY                   ADDRESS         REF BY
           =====                   =======         ======
           _FwdIt _Uninit_copy(_InIt, _InIt, _FwdIt, _Alloc &)[with _InIt=unsigned char const *, _FwdIt=unsigned char *, _Alloc=allocator<unsigned char>]
                                   BBCA 
               calls direct
    -------------------------------------------------------------------------
<CODE> 1 (was CODE)
  Relative segment, address: BBDE - BBE1 (0x4 bytes), align: 1
  Segment part 72.            Intra module refs:   _Vector_impl<unsigned char, allocator<unsigned char>>::_Ucopy(unsigned char const *, unsigned char const *, unsigned char *)
           ENTRY                   ADDRESS         REF BY
           =====                   =======         ======
           _FwdIt _Uninitialized_copy(_InIt, _InIt, _FwdIt, _Alloc &)[with _InIt=unsigned char const *, _FwdIt=unsigned char *, _Alloc=allocator<unsigned char>]
                                   BBDE 
               calls direct
    -------------------------------------------------------------------------
<CODE> 1 (was CODE)
  Relative segment, address: B70E - B71D (0x10 bytes), align: 1
  Segment part 53.            Intra module refs:   _Vector_impl<unsigned char, allocator<unsigned char>>::_Ufill(unsigned char *, unsigned int, unsigned char)
           ENTRY                   ADDRESS         REF BY
           =====                   =======         ======
           void _Uninitialized_fill_n(_FwdIt, _Diff, _Tval const &, _Alloc &)[with _FwdIt=unsigned char *, _Diff=unsigned int, _Tval=unsigned char, _Alloc=allocator<unsigned char>]
                                   B70E 
    -------------------------------------------------------------------------
<CODE> 1 (was CODE)
  Relative segment, address: B80C - B819 (0xe bytes), align: 1
  Segment part 10.            Intra module refs:   vector<char>::vector()
                                                   vector<int>::vector() (tool)
           ENTRY                   ADDRESS         REF BY
           =====                   =======         ======
           _Vector_value<allocator<void>>::_Zero()
                                   B80C 
    -------------------------------------------------------------------------
<CODE> 1 (was CODE)
  Relative segment, address: BBEA - BBED (0x4 bytes), align: 1
  Segment part 93.            Intra module refs:   _Vector_impl<unsigned short, allocator<unsigned short>>::_Insert0(unsigned short *, unsigned short) (tool)
                                                   _Vector_value<allocator<void>>::_Bcapacity() const
                                                   _Vector_value<allocator<void>>::_Bsize() const
           ENTRY                   ADDRESS         REF BY
           =====                   =======         ======
           _Vector_value<allocator<void>>::_Bfirst() const
                                   BBEA 
    -------------------------------------------------------------------------
<CODE> 1 (was CODE)
  Relative segment, address: BA6E - BA73 (0x6 bytes), align: 1
  Segment part 94.            Intra module refs:   _Vector_value<allocator<void>>::_Bsize() const
           ENTRY                   ADDRESS         REF BY
           =====                   =======         ======
           _Vector_value<allocator<void>>::_Blast() const
                                   BA6E 
    -------------------------------------------------------------------------
<CODE> 1 (was CODE)
  Relative segment, address: BA7A - BA7F (0x6 bytes), align: 1
  Segment part 95.            Intra module refs:   _Vector_value<allocator<void>>::_Bcapacity() const
           ENTRY                   ADDRESS         REF BY
           =====                   =======         ======
           _Vector_value<allocator<void>>::_Bend() const
                                   BA7A 
    -------------------------------------------------------------------------
<CODE> 1 (was CODE)
  Relative segment, address: B250 - B269 (0x1a bytes), align: 1
  Segment part 96.            Intra module refs:   _Vector_value<_Alloc>::size_type _Vector_value<_Alloc>::_Size<_Sz>() const[with _Alloc=allocator<void>, _Sz=1]
                                                   _Vector_value<_Alloc>::size_type _Vector_value<_Alloc>::_Size<_Sz>() const[with _Alloc=allocator<void>, _Sz=2] (tool)
           ENTRY                   ADDRESS         REF BY
           =====                   =======         ======
           _Vector_value<allocator<void>>::_Bsize() const
                                   B250 
               calls direct
    -------------------------------------------------------------------------
<CODE> 1 (was CODE)
  Relative segment, address: B21C - B235 (0x1a bytes), align: 1
  Segment part 97.            Intra module refs:   _Vector_value<_Alloc>::size_type _Vector_value<_Alloc>::_Capacity<_Sz>() const[with _Alloc=allocator<void>, _Sz=1]
                                                   _Vector_value<_Alloc>::size_type _Vector_value<_Alloc>::_Capacity<_Sz>() const[with _Alloc=allocator<void>, _Sz=2] (tool)
           ENTRY                   ADDRESS         REF BY
           =====                   =======         ======
           _Vector_value<allocator<void>>::_Bcapacity() const
                                   B21C 
               calls direct
    -------------------------------------------------------------------------
<CODE> 1 (was CODE)
  Relative segment, address: B940 - B949 (0xa bytes), align: 1
  Segment part 78.            Intra module refs:   _Vector_impl<unsigned char, allocator<unsigned char>>::capacity() const
           ENTRY                   ADDRESS         REF BY
           =====                   =======         ======
           _Vector_value<_Alloc>::size_type _Vector_value<_Alloc>::_Capacity<_Sz>() const[with _Alloc=allocator<void>, _Sz=1]
                                   B940 
               calls direct
    -------------------------------------------------------------------------
<CODE> 1 (was CODE)
  Relative segment, address: B94A - B953 (0xa bytes), align: 1
  Segment part 76.            Intra module refs:   _Vector_impl<unsigned char, allocator<unsigned char>>::size() const
                                                   vector<char>::size() const
           ENTRY                   ADDRESS         REF BY
           =====                   =======         ======
           _Vector_value<_Alloc>::size_type _Vector_value<_Alloc>::_Size<_Sz>() const[with _Alloc=allocator<void>, _Sz=1]
                                   B94A 
               calls direct
    -------------------------------------------------------------------------
<CODE> 1 (was CODE)
  Relative segment, address: BCA0 - BCA1 (0x2 bytes), align: 1
  Segment part 75.            Intra module refs:   _Vector_impl<unsigned char, allocator<unsigned char>>::_Make_room(unsigned char *, unsigned int)
                                                   _Vector_impl<unsigned short, allocator<unsigned short>>::_Make_room(unsigned short *, unsigned int) (tool)
           ENTRY                   ADDRESS         REF BY
           =====                   =======         ======
           _Vector_value<allocator<void>>::_Xlen() const
                                   BCA0 
    -------------------------------------------------------------------------
<CODE> 1 (was CODE)
  Relative segment, address: B1B4 - B1CD (0x1a bytes), align: 1
  Segment part 66.            Intra module refs:   _Vector_impl<unsigned char, allocator<unsigned char>>::_Tidy0()
           ENTRY                   ADDRESS         REF BY
           =====                   =======         ======
           _Vector_impl<unsigned char, allocator<unsigned char>>::_Altyval() const
                                   B1B4 
               calls direct
    -------------------------------------------------------------------------
<CODE> 1 (was CODE)
  Relative segment, address: AC9A - ACBD (0x24 bytes), align: 1
  Segment part 67.            Intra module refs:   _Vector_impl<unsigned char, allocator<unsigned char>>::_Tidy0()
           ENTRY                   ADDRESS         REF BY
           =====                   =======         ======
           _Vector_impl<unsigned char, allocator<unsigned char>>::_EraseAll()
                                   AC9A 
               calls direct
    -------------------------------------------------------------------------
<CODE> 1 (was CODE)
  Relative segment, address: 9F9C - 9FDD (0x42 bytes), align: 1
  Segment part 68.            Intra module refs:   _Vector_impl<unsigned char, allocator<unsigned char>>::_Make_room(unsigned char *, unsigned int)
           ENTRY                   ADDRESS         REF BY
           =====                   =======         ======
           _Vector_impl<unsigned char, allocator<unsigned char>>::_Tidy0()
                                   9F9C 
               calls direct
    -------------------------------------------------------------------------
<CODE> 1 (was CODE)
  Relative segment, address: BCA2 - BCA3 (0x2 bytes), align: 1
  Segment part 42.            Intra module refs:   _Vector_impl<unsigned char, allocator<unsigned char>>::_Erase(unsigned char *, unsigned char *)
                                                   _Vector_impl<unsigned char, allocator<unsigned char>>::_EraseAll()
           ENTRY                   ADDRESS         REF BY
           =====                   =======         ======
           _Vector_impl<unsigned char, allocator<unsigned char>>::_Destroy(unsigned char *, unsigned char *)
                                   BCA2 
    -------------------------------------------------------------------------
<CODE> 1 (was CODE)
  Relative segment, address: BAC2 - BAC7 (0x6 bytes), align: 1
  Segment part 82.            Intra module refs:   vector<char>::_Append(unsigned int, char)
           ENTRY                   ADDRESS         REF BY
           =====                   =======         ======
           void _Vector_impl<_Ty, _Alloc>::_Insert_n(_Vector_impl<_Ty, _Alloc>::pointer, _Vector_impl<_Ty, _Alloc>::size_type, _Ty1 const &)[with _Ty=unsigned char, _Alloc=allocator<unsigned char>, _Ty1=char]
                                   BAC2 
               calls direct
    -------------------------------------------------------------------------
<CODE> 1 (was CODE)
  Relative segment, address: A4FE - A535 (0x38 bytes), align: 1
  Segment part 48.            Intra module refs:   vector<char>::erase(char *, char *)
           ENTRY                   ADDRESS         REF BY
           =====                   =======         ======
           _Vector_impl<unsigned char, allocator<unsigned char>>::_Erase(unsigned char *, unsigned char *)
                                   A4FE 
               calls direct
    -------------------------------------------------------------------------
<CODE> 1 (was CODE)
  Relative segment, address: BBEE - BBF1 (0x4 bytes), align: 1
  Segment part 63.            Intra module refs:   _Vector_impl<unsigned char, allocator<unsigned char>>::_EraseAll()
                                                   _Vector_impl<unsigned char, allocator<unsigned char>>::_Make_room(unsigned char *, unsigned int)
                                                   _Vector_impl<unsigned char, allocator<unsigned char>>::_Tidy0()
           ENTRY                   ADDRESS         REF BY
           =====                   =======         ======
           _Vector_impl<unsigned char, allocator<unsigned char>>::_Mytyfirst() const
                                   BBEE 
    -------------------------------------------------------------------------
<CODE> 1 (was CODE)
  Relative segment, address: BAEC - BAF1 (0x6 bytes), align: 1
  Segment part 47.            Intra module refs:   _Vector_impl<unsigned char, allocator<unsigned char>>::_Erase(unsigned char *, unsigned char *)
                                                   _Vector_impl<unsigned char, allocator<unsigned char>>::_EraseAll()
                                                   _Vector_impl<unsigned char, allocator<unsigned char>>::_Make_room(unsigned char *, unsigned int)
                                                   vector<char>::_Append(unsigned int, char)
           ENTRY                   ADDRESS         REF BY
           =====                   =======         ======
           _Vector_impl<unsigned char, allocator<unsigned char>>::_Mytylast() const
                                   BAEC 
    -------------------------------------------------------------------------
<CODE> 1 (was CODE)
  Relative segment, address: BAF2 - BAF7 (0x6 bytes), align: 1
  Segment part 64.            Intra module refs:   _Vector_impl<unsigned char, allocator<unsigned char>>::_Tidy0()
           ENTRY                   ADDRESS         REF BY
           =====                   =======         ======
           _Vector_impl<unsigned char, allocator<unsigned char>>::_Mytyend() const
                                   BAF2 
    -------------------------------------------------------------------------
<CODE> 1 (was CODE)
  Relative segment, address: 82E2 - 83E3 (0x102 bytes), align: 1
  Segment part 80.            Intra module refs:   _Vector_impl<unsigned char, allocator<unsigned char>>::_Insert_n0(unsigned char *, unsigned int, unsigned char)
           ENTRY                   ADDRESS         REF BY
           =====                   =======         ======
           _Vector_impl<unsigned char, allocator<unsigned char>>::_Make_room(unsigned char *, unsigned int)
                                   82E2 
               calls direct
    -------------------------------------------------------------------------
<CODE> 1 (was CODE)
  Relative segment, address: BBF2 - BBF5 (0x4 bytes), align: 1
  Segment part 77.            Intra module refs:   _Vector_impl<unsigned char, allocator<unsigned char>>::_Make_room(unsigned char *, unsigned int)
           ENTRY                   ADDRESS         REF BY
           =====                   =======         ======
           _Vector_impl<unsigned char, allocator<unsigned char>>::size() const
                                   BBF2 
               calls direct
    -------------------------------------------------------------------------
<CODE> 1 (was CODE)
  Relative segment, address: BBF6 - BBF9 (0x4 bytes), align: 1
  Segment part 79.            Intra module refs:   _Vector_impl<unsigned char, allocator<unsigned char>>::_Make_room(unsigned char *, unsigned int)
           ENTRY                   ADDRESS         REF BY
           =====                   =======         ======
           _Vector_impl<unsigned char, allocator<unsigned char>>::capacity() const
                                   BBF6 
               calls direct
    -------------------------------------------------------------------------
<CODE> 1 (was CODE)
  Relative segment, address: ACBE - ACE1 (0x24 bytes), align: 1
  Segment part 81.            Intra module refs:   void _Vector_impl<_Ty, _Alloc>::_Insert_n(_Vector_impl<_Ty, _Alloc>::pointer, _Vector_impl<_Ty, _Alloc>::size_type, _Ty1 const &)[with _Ty=unsigned char, _Alloc=allocator<unsigned char>, _Ty1=char]
           ENTRY                   ADDRESS         REF BY
           =====                   =======         ======
           _Vector_impl<unsigned char, allocator<unsigned char>>::_Insert_n0(unsigned char *, unsigned int, unsigned char)
                                   ACBE 
               calls direct
    -------------------------------------------------------------------------
<CODE> 1 (was CODE)
  Relative segment, address: A536 - A56B (0x36 bytes), align: 1
  Segment part 56.            Intra module refs:   _Vector_impl<unsigned char, allocator<unsigned char>>::_Insert_n0(unsigned char *, unsigned int, unsigned char)
           ENTRY                   ADDRESS         REF BY
           =====                   =======         ======
           _Vector_impl<unsigned char, allocator<unsigned char>>::_Ufill(unsigned char *, unsigned int, unsigned char)
                                   A536 
               calls direct
    -------------------------------------------------------------------------
<CODE> 1 (was CODE)
  Relative segment, address: A8CE - A8FB (0x2e bytes), align: 1
  Segment part 73.            Intra module refs:   _Vector_impl<unsigned char, allocator<unsigned char>>::_Make_room(unsigned char *, unsigned int)
           ENTRY                   ADDRESS         REF BY
           =====                   =======         ======
           _Vector_impl<unsigned char, allocator<unsigned char>>::_Ucopy(unsigned char const *, unsigned char const *, unsigned char *)
                                   A8CE 
               calls direct
    -------------------------------------------------------------------------
<CODE> 1 (was CODE)
  Relative segment, address: B6AE - B6BD (0x10 bytes), align: 1
  Segment part 11.            Intra module refs:   DualPool::DualPool(unsigned int, ETL *)
           ENTRY                   ADDRESS         REF BY
           =====                   =======         ======
           vector<char>::vector()
                                   B6AE 
               calls direct
    -------------------------------------------------------------------------
<CODE> 1 (was CODE)
  Relative segment, address: BBFA - BBFD (0x4 bytes), align: 1
  Segment part 51.            Intra module refs:   vector<char>::operator[](unsigned int) (tool)
                                                   vector<char>::resize(unsigned int, char)
           ENTRY                   ADDRESS         REF BY
           =====                   =======         ======
           vector<char>::begin()   BBFA 
    -------------------------------------------------------------------------
<CODE> 1 (was CODE)
  Relative segment, address: BB0A - BB0F (0x6 bytes), align: 1
  Segment part 52.            Intra module refs:   vector<char>::resize(unsigned int, char)
           ENTRY                   ADDRESS         REF BY
           =====                   =======         ======
           vector<char>::end()     BB0A 
    -------------------------------------------------------------------------
<CODE> 1 (was CODE)
  Relative segment, address: 9E02 - 9E47 (0x46 bytes), align: 1
  Segment part 85.            Intra module refs:   DualPool::DualPool(unsigned int, ETL *)
           ENTRY                   ADDRESS         REF BY
           =====                   =======         ======
           vector<char>::resize(unsigned int, char)
                                   9E02 
               calls direct
    -------------------------------------------------------------------------
<CODE> 1 (was CODE)
  Relative segment, address: BBFE - BC01 (0x4 bytes), align: 1
  Segment part 83.            Intra module refs:   Tool::CountSelBitCnt(vector<char> const &) (tool)
                                                   vector<char>::_Append(unsigned int, char)
                                                   vector<char>::resize(unsigned int, char)
           ENTRY                   ADDRESS         REF BY
           =====                   =======         ======
           vector<char>::size() const
                                   BBFE 
               calls direct
    -------------------------------------------------------------------------
<CODE> 1 (was CODE)
  Relative segment, address: A958 - A985 (0x2e bytes), align: 1
  Segment part 50.            Intra module refs:   vector<char>::resize(unsigned int, char)
           ENTRY                   ADDRESS         REF BY
           =====                   =======         ======
           vector<char>::erase(char *, char *)
                                   A958 
               calls direct
    -------------------------------------------------------------------------
<CODE> 1 (was CODE)
  Relative segment, address: AAB0 - AAD9 (0x2a bytes), align: 1
  Segment part 84.            Intra module refs:   vector<char>::resize(unsigned int, char)
           ENTRY                   ADDRESS         REF BY
           =====                   =======         ======
           vector<char>::_Append(unsigned int, char)
                                   AAB0 
               calls direct
    -------------------------------------------------------------------------
<CODE> 1 (was CODE)
  Relative segment, address: BC06 - BC09 (0x4 bytes), align: 1
  Segment part 49.            Intra module refs:   vector<char>::erase(char *, char *)
           ENTRY                   ADDRESS         REF BY
           =====                   =======         ======
           vector<char>::_P(char *)
                                   BC06 
    -------------------------------------------------------------------------
<CODE> 1 (was CODE)
  Relative segment, address: BC0E - BC11 (0x4 bytes), align: 1
  Segment part 41.            Intra module refs:   vector<char>::erase(char *, char *)
           ENTRY                   ADDRESS         REF BY
           =====                   =======         ======
           vector<char>::_I(unsigned char *)
                                   BC0E 
    -------------------------------------------------------------------------
<CODE> 1 (was CODE)
  Relative segment, address: B9C2 - B9CB (0xa bytes), align: 1
  Segment part 9.             Intra module refs:   DualPool::DualPool(unsigned int, ETL *)
           ENTRY                   ADDRESS         REF BY
           =====                   =======         ======
           PageCycle::PageCycle()
                                   B9C2 
    -------------------------------------------------------------------------
<CODE> 1 (was CODE)
  Relative segment, address: B9CC - B9D5 (0xa bytes), align: 1
  Segment part 98.            Intra module refs:   DualPool::InitialPoolBorder()
           ENTRY                   ADDRESS         REF BY
           =====                   =======         ======
           PageCycle::PageCycle(unsigned int, int)
                                   B9CC 
    -------------------------------------------------------------------------
<CODE> 1 (was CODE)
  Relative segment, address: 928C - 92FD (0x72 bytes), align: 1
  Segment part 14.
           ENTRY                   ADDRESS         REF BY
           =====                   =======         ======
           DualPool::DualPool(unsigned int, ETL *)
                                   928C            ETL::InitialDualpool() (etl)
               calls direct
    -------------------------------------------------------------------------
<CODE> 1 (was CODE)
  Relative segment, address: B72E - B73D (0x10 bytes), align: 1
  Segment part 19.
           ENTRY                   ADDRESS         REF BY
           =====                   =======         ======
           DualPool::AddPageIntoPool(unsigned int, DataPage *, enum PoolIdentify)
                                   B72E            ETL::InitialDualpool() (etl)
               calls direct
    -------------------------------------------------------------------------
<CODE> 1 (was CODE)
  Relative segment, address: 7EA8 - 7FBB (0x114 bytes), align: 1
  Segment part 32.
           ENTRY                   ADDRESS         REF BY
           =====                   =======         ======
           DualPool::InitialPoolBorder()
                                   7EA8            ETL::InitialDualpool() (etl)
               calls direct
    -------------------------------------------------------------------------
<CODE> 1 (was CODE)
  Relative segment, address: B7AA - B7B7 (0xe bytes), align: 1
  Segment part 34.
           ENTRY                   ADDRESS         REF BY
           =====                   =======         ======
           DualPool::GetPoolSize(enum PoolIdentify)
                                   B7AA            ETL::InitialDualpool() (etl)
               calls direct
    -------------------------------------------------------------------------
DATA16_C
  Relative segment, address: 5C1E - 5C28 (0xb bytes), align: 0
  Segment part 2.             Intra module refs:   DataPage::DataPage(int)
    -------------------------------------------------------------------------
DATA16_C
  Relative segment, address: 5C29 - 5C47 (0x1f bytes), align: 0
  Segment part 3.             Intra module refs:   DataPage::DataPage(int)

    *************************************************************************

  FILE NAME : \\Mac\Home\work\ETL\Debug\Obj\etl.r43
  PROGRAM MODULE, NAME : etl

  SEGMENTS IN THE MODULE
  ======================
<CODE> 1 (was CODE)
  Relative segment, address: BB3A - BB3F (0x6 bytes), align: 1
  Segment part 62.            Intra module refs:   void _ClassUtil::_MemHolder<pair<unsigned int const, unsigned int>, less<unsigned int>>::_MemHolder(_Ty1 const &)[with _Ty1=less<unsigned int>]
           ENTRY                   ADDRESS         REF BY
           =====                   =======         ======
           void _ClassUtil::_MemHolder<pair<unsigned int const, unsigned int>, less<unsigned int>>::_Helper<less<unsigned int>, 0>::_Helper(_Ty2 const &)[with _Ty2=less<unsigned int>]
                                   BB3A 
    -------------------------------------------------------------------------
<CODE> 1 (was CODE)
  Relative segment, address: BCAC - BCAD (0x2 bytes), align: 1
  Segment part 72.            Intra module refs:   _ClassUtil::_MemHolder<pair<unsigned int const, unsigned int>, less<unsigned int>>::operator less<unsigned int> &()
           ENTRY                   ADDRESS         REF BY
           =====                   =======         ======
           _ClassUtil::_MemHolder<pair<unsigned int const, unsigned int>, less<unsigned int>>::_Helper<less<unsigned int>, 0>::Ref()
                                   BCAC 
    -------------------------------------------------------------------------
<CODE> 1 (was CODE)
  Relative segment, address: B60E - B61D (0x10 bytes), align: 1
  Segment part 63.            Intra module refs:   _Tree_nod<_Tmap_traits<unsigned int, unsigned int, less<unsigned int>, allocator<pair<unsigned int const, unsigned int>>, 0>>::_Tree_nod(less<unsigned int> const &, allocator<pair<unsigned int const, unsigned int>>)
           ENTRY                   ADDRESS         REF BY
           =====                   =======         ======
           void _ClassUtil::_MemHolder<pair<unsigned int const, unsigned int>, less<unsigned int>>::_MemHolder(_Ty1 const &)[with _Ty1=less<unsigned int>]
                                   B60E 
               calls direct
    -------------------------------------------------------------------------
<CODE> 1 (was CODE)
  Relative segment, address: BC12 - BC15 (0x4 bytes), align: 1
  Segment part 73.            Intra module refs:   _Tree_nod<_Tmap_traits<unsigned int, unsigned int, less<unsigned int>, allocator<pair<unsigned int const, unsigned int>>, 0>>::comp()
           ENTRY                   ADDRESS         REF BY
           =====                   =======         ======
           _ClassUtil::_MemHolder<pair<unsigned int const, unsigned int>, less<unsigned int>>::operator less<unsigned int> &()
                                   BC12 
               calls direct
    -------------------------------------------------------------------------
<CODE> 1 (was CODE)
  Relative segment, address: B902 - B90D (0xc bytes), align: 1
  Segment part 75.            Intra module refs:   _Tree<_Tmap_traits<unsigned int, unsigned int, less<unsigned int>, allocator<pair<unsigned int const, unsigned int>>, 0>>::insert(pair<unsigned int const, unsigned int> const &)
           ENTRY                   ADDRESS         REF BY
           =====                   =======         ======
           less<unsigned int>::operator()(unsigned int, unsigned int) const
                                   B902 
    -------------------------------------------------------------------------
<CODE> 1 (was CODE)
  Relative segment, address: BC1A - BC1D (0x4 bytes), align: 1
  Segment part 76.            Intra module refs:   Time::Show() (rtc)
                                                   main (main)
           ENTRY                   ADDRESS         REF BY
           =====                   =======         ======
           strrchr(char const *, int)
                                   BC1A 
               calls direct
    -------------------------------------------------------------------------
<CODE> 1 (was CODE)
  Relative segment, address: B99A - B9A3 (0xa bytes), align: 1
  Segment part 77.            Intra module refs:   map<unsigned int, unsigned int>::operator[](unsigned int)
           ENTRY                   ADDRESS         REF BY
           =====                   =======         ======
           pair<unsigned int const, unsigned int>::pair(unsigned int)
                                   B99A 
    -------------------------------------------------------------------------
<CODE> 1 (was CODE)
  Relative segment, address: B990 - B999 (0xa bytes), align: 1
  Segment part 78.            Intra module refs:   _Tree<_Tmap_traits<unsigned int, unsigned int, less<unsigned int>, allocator<pair<unsigned int const, unsigned int>>, 0>>::insert(pair<unsigned int const, unsigned int> const &)
           ENTRY                   ADDRESS         REF BY
           =====                   =======         ======
           pair<_Tree<_Tmap_traits<unsigned int, unsigned int, less<unsigned int>, allocator<pair<unsigned int const, unsigned int>>, 0>>::iterator, bool>::pair(_ParamTy1, bool)
                                   B990 
    -------------------------------------------------------------------------
<CODE> 1 (was CODE)
  Relative segment, address: BCA4 - BCA5 (0x2 bytes), align: 1
  Segment part 81.            Intra module refs:   _Tree<_Tmap_traits<unsigned int, unsigned int, less<unsigned int>, allocator<pair<unsigned int const, unsigned int>>, 0>>::_Alnod() const
           ENTRY                   ADDRESS         REF BY
           =====                   =======         ======
           void allocator<_Tree_nod<_Tmap_traits<unsigned int, unsigned int, less<unsigned int>, allocator<pair<unsigned int const, unsigned int>>, 0>>::_Node>::allocator(allocator<_Other> const &)[with _Other=void]
                                   BCA4 
    -------------------------------------------------------------------------
<CODE> 1 (was CODE)
  Relative segment, address: B78E - B79B (0xe bytes), align: 1
  Segment part 82.            Intra module refs:   _Tree<_Tmap_traits<unsigned int, unsigned int, less<unsigned int>, allocator<pair<unsigned int const, unsigned int>>, 0>>::_Buynode(_Nodeptr, _Nodeptr, _Nodeptr, pair<unsigned int const, unsigned int> const &, char)
           ENTRY                   ADDRESS         REF BY
           =====                   =======         ======
           allocator<_Tree_nod<_Tmap_traits<unsigned int, unsigned int, less<unsigned int>, allocator<pair<unsigned int const, unsigned int>>, 0>>::_Node>::allocate(unsigned int)
                                   B78E 
               calls direct
    -------------------------------------------------------------------------
<CODE> 1 (was CODE)
  Relative segment, address: B8AE - B8B9 (0xc bytes), align: 1
  Segment part 83.            Intra module refs:   _Tree<_Tmap_traits<unsigned int, unsigned int, less<unsigned int>, allocator<pair<unsigned int const, unsigned int>>, 0>>::max_size() const
           ENTRY                   ADDRESS         REF BY
           =====                   =======         ======
           allocator<_Tree_nod<_Tmap_traits<unsigned int, unsigned int, less<unsigned int>, allocator<pair<unsigned int const, unsigned int>>, 0>>::_Node>::max_size() const
                                   B8AE 
    -------------------------------------------------------------------------
<CODE> 1 (was CODE)
  Relative segment, address: BA66 - BA6D (0x8 bytes), align: 1
  Segment part 105.           Intra module refs:   _Tree<_Tmap_traits<unsigned int, unsigned int, less<unsigned int>, allocator<pair<unsigned int const, unsigned int>>, 0>>::insert(pair<unsigned int const, unsigned int> const &)
           ENTRY                   ADDRESS         REF BY
           =====                   =======         ======
           _Tree_nod<_Tmap_traits<unsigned int, unsigned int, less<unsigned int>, allocator<pair<unsigned int const, unsigned int>>, 0>>::comp()
                                   BA66 
               calls direct
    -------------------------------------------------------------------------
<CODE> 1 (was CODE)
  Relative segment, address: AD4E - AD71 (0x24 bytes), align: 1
  Segment part 106.           Intra module refs:   _Tree<_Tmap_traits<unsigned int, unsigned int, less<unsigned int>, allocator<pair<unsigned int const, unsigned int>>, 0>>::_Buynode(_Nodeptr, _Nodeptr, _Nodeptr, pair<unsigned int const, unsigned int> const &, char)
           ENTRY                   ADDRESS         REF BY
           =====                   =======         ======
           _Tree_nod<_Tmap_traits<unsigned int, unsigned int, less<unsigned int>, allocator<pair<unsigned int const, unsigned int>>, 0>>::_Node::_Node(_Tree_nod<_Tmap_traits<unsigned int, unsigned int, less<unsigned int>, allocator<pair<unsigned int const, unsigned int>>, 0>>::_MyGenptr, _Tree_nod<_Tmap_traits<unsigned int, unsigned int, less<unsigned int>, allocator<pair<unsigned int const, unsigned int>>, 0>>::_MyGenptr, _Tree_nod<_Tmap_traits<unsigned int, unsigned int, less<unsigned int>, allocator<pair<unsigned int const, unsigned int>>, 0>>::_MyGenptr, pair<unsigned int const, unsigned int> const &, char)
                                   AD4E 
               calls direct
    -------------------------------------------------------------------------
<CODE> 1 (was CODE)
  Relative segment, address: AC76 - AC99 (0x24 bytes), align: 1
  Segment part 67.            Intra module refs:   _Tree_val<_Tmap_traits<unsigned int, unsigned int, less<unsigned int>, allocator<pair<unsigned int const, unsigned int>>, 0>>::_Tree_val(less<unsigned int> const &, allocator<pair<unsigned int const, unsigned int>>)
           ENTRY                   ADDRESS         REF BY
           =====                   =======         ======
           _Tree_nod<_Tmap_traits<unsigned int, unsigned int, less<unsigned int>, allocator<pair<unsigned int const, unsigned int>>, 0>>::_Tree_nod(less<unsigned int> const &, allocator<pair<unsigned int const, unsigned int>>)
                                   AC76 
               calls direct
    -------------------------------------------------------------------------
<CODE> 1 (was CODE)
  Relative segment, address: B474 - B489 (0x16 bytes), align: 1
  Segment part 68.            Intra module refs:   _Tree<_Tmap_traits<unsigned int, unsigned int, less<unsigned int>, allocator<pair<unsigned int const, unsigned int>>, 0>>::_Tree(less<unsigned int> const &, allocator<pair<unsigned int const, unsigned int>> const &)
           ENTRY                   ADDRESS         REF BY
           =====                   =======         ======
           _Tree_val<_Tmap_traits<unsigned int, unsigned int, less<unsigned int>, allocator<pair<unsigned int const, unsigned int>>, 0>>::_Tree_val(less<unsigned int> const &, allocator<pair<unsigned int const, unsigned int>>)
                                   B474 
               calls direct
    -------------------------------------------------------------------------
<CODE> 1 (was CODE)
  Relative segment, address: BC2A - BC2D (0x4 bytes), align: 1
  Segment part 108.           Intra module refs:   _Tree<_Tmap_traits<unsigned int, unsigned int, less<unsigned int>, allocator<pair<unsigned int const, unsigned int>>, 0>>::_Key(_Tree_algobase<allocator<void>>::_Genptr)
                                                   _Tree<_Tmap_traits<unsigned int, unsigned int, less<unsigned int>, allocator<pair<unsigned int const, unsigned int>>, 0>>::insert(pair<unsigned int const, unsigned int> const &)
           ENTRY                   ADDRESS         REF BY
           =====                   =======         ======
           _Tree_val<_Tmap_traits<unsigned int, unsigned int, less<unsigned int>, allocator<pair<unsigned int const, unsigned int>>, 0>>::_Kfn(pair<unsigned int const, unsigned int> const &)
                                   BC2A 
               calls direct
    -------------------------------------------------------------------------
<CODE> 1 (was CODE)
  Relative segment, address: B284 - B29D (0x1a bytes), align: 1
  Segment part 109.           Intra module refs:   _Tree<_Tmap_traits<unsigned int, unsigned int, less<unsigned int>, allocator<pair<unsigned int const, unsigned int>>, 0>>::_Buynode(_Nodeptr, _Nodeptr, _Nodeptr, pair<unsigned int const, unsigned int> const &, char)
                                                   _Tree<_Tmap_traits<unsigned int, unsigned int, less<unsigned int>, allocator<pair<unsigned int const, unsigned int>>, 0>>::max_size() const
           ENTRY                   ADDRESS         REF BY
           =====                   =======         ======
           _Tree<_Tmap_traits<unsigned int, unsigned int, less<unsigned int>, allocator<pair<unsigned int const, unsigned int>>, 0>>::_Alnod() const
                                   B284 
               calls direct
    -------------------------------------------------------------------------
<CODE> 1 (was CODE)
  Relative segment, address: BC42 - BC45 (0x4 bytes), align: 1
  Segment part 110.           Intra module refs:   _Tree<_Tmap_traits<unsigned int, unsigned int, less<unsigned int>, allocator<pair<unsigned int const, unsigned int>>, 0>>::insert(pair<unsigned int const, unsigned int> const &)
           ENTRY                   ADDRESS         REF BY
           =====                   =======         ======
           _Tree<_Tmap_traits<unsigned int, unsigned int, less<unsigned int>, allocator<pair<unsigned int const, unsigned int>>, 0>>::_Isnil(_Tree_algobase<allocator<void>>::_Genptr)
                                   BC42 
               calls direct
    -------------------------------------------------------------------------
<CODE> 1 (was CODE)
  Relative segment, address: BA5E - BA65 (0x8 bytes), align: 1
  Segment part 112.           Intra module refs:   _Tree<_Tmap_traits<unsigned int, unsigned int, less<unsigned int>, allocator<pair<unsigned int const, unsigned int>>, 0>>::insert(pair<unsigned int const, unsigned int> const &)
           ENTRY                   ADDRESS         REF BY
           =====                   =======         ======
           _Tree<_Tmap_traits<unsigned int, unsigned int, less<unsigned int>, allocator<pair<unsigned int const, unsigned int>>, 0>>::_Key(_Tree_algobase<allocator<void>>::_Genptr)
                                   BA5E 
               calls direct
    -------------------------------------------------------------------------
<CODE> 1 (was CODE)
  Relative segment, address: BCA8 - BCA9 (0x2 bytes), align: 1
  Segment part 113.           Intra module refs:   _Tree<_Tmap_traits<unsigned int, unsigned int, less<unsigned int>, allocator<pair<unsigned int const, unsigned int>>, 0>>::_Lmost()
                                                   _Tree<_Tmap_traits<unsigned int, unsigned int, less<unsigned int>, allocator<pair<unsigned int const, unsigned int>>, 0>>::insert(pair<unsigned int const, unsigned int> const &)
           ENTRY                   ADDRESS         REF BY
           =====                   =======         ======
           _Tree<_Tmap_traits<unsigned int, unsigned int, less<unsigned int>, allocator<pair<unsigned int const, unsigned int>>, 0>>::_Left(_Tree_algobase<allocator<void>>::_Genptr)
                                   BCA8 
    -------------------------------------------------------------------------
<CODE> 1 (was CODE)
  Relative segment, address: BC46 - BC49 (0x4 bytes), align: 1
  Segment part 114.           Intra module refs:   _Tree<_Tmap_traits<unsigned int, unsigned int, less<unsigned int>, allocator<pair<unsigned int const, unsigned int>>, 0>>::_Root()
           ENTRY                   ADDRESS         REF BY
           =====                   =======         ======
           _Tree<_Tmap_traits<unsigned int, unsigned int, less<unsigned int>, allocator<pair<unsigned int const, unsigned int>>, 0>>::_Parent(_Tree_algobase<allocator<void>>::_Genptr)
                                   BC46 
    -------------------------------------------------------------------------
<CODE> 1 (was CODE)
  Relative segment, address: BC4A - BC4D (0x4 bytes), align: 1
  Segment part 115.           Intra module refs:   _Tree<_Tmap_traits<unsigned int, unsigned int, less<unsigned int>, allocator<pair<unsigned int const, unsigned int>>, 0>>::insert(pair<unsigned int const, unsigned int> const &)
           ENTRY                   ADDRESS         REF BY
           =====                   =======         ======
           _Tree<_Tmap_traits<unsigned int, unsigned int, less<unsigned int>, allocator<pair<unsigned int const, unsigned int>>, 0>>::_Right(_Tree_algobase<allocator<void>>::_Genptr)
                                   BC4A 
    -------------------------------------------------------------------------
<CODE> 1 (was CODE)
  Relative segment, address: BC4E - BC51 (0x4 bytes), align: 1
  Segment part 111.           Intra module refs:   _Tree<_Tmap_traits<unsigned int, unsigned int, less<unsigned int>, allocator<pair<unsigned int const, unsigned int>>, 0>>::_Key(_Tree_algobase<allocator<void>>::_Genptr)
                                                   _Tree<_Tmap_traits<unsigned int, unsigned int, less<unsigned int>, allocator<pair<unsigned int const, unsigned int>>, 0>>::iterator::operator*() const
           ENTRY                   ADDRESS         REF BY
           =====                   =======         ======
           _Tree<_Tmap_traits<unsigned int, unsigned int, less<unsigned int>, allocator<pair<unsigned int const, unsigned int>>, 0>>::_Myval(_Tree_algobase<allocator<void>>::_Genptr)
                                   BC4E 
    -------------------------------------------------------------------------
<CODE> 1 (was CODE)
  Relative segment, address: B75E - B76D (0x10 bytes), align: 1
  Segment part 116.           Intra module refs:   _Tree<_Tmap_traits<unsigned int, unsigned int, less<unsigned int>, allocator<pair<unsigned int const, unsigned int>>, 0>>::iterator::iterator(_Tree_algobase<allocator<void>>::_Genptr)
           ENTRY                   ADDRESS         REF BY
           =====                   =======         ======
           _Tree<_Tmap_traits<unsigned int, unsigned int, less<unsigned int>, allocator<pair<unsigned int const, unsigned int>>, 0>>::const_iterator::const_iterator(_Tree_algobase<allocator<void>>::_Genptr)
                                   B75E 
               calls direct
    -------------------------------------------------------------------------
<CODE> 1 (was CODE)
  Relative segment, address: BC52 - BC55 (0x4 bytes), align: 1
  Segment part 117.           Intra module refs:   _Tree<_Tmap_traits<unsigned int, unsigned int, less<unsigned int>, allocator<pair<unsigned int const, unsigned int>>, 0>>::insert(pair<unsigned int const, unsigned int> const &)
           ENTRY                   ADDRESS         REF BY
           =====                   =======         ======
           _Tree<_Tmap_traits<unsigned int, unsigned int, less<unsigned int>, allocator<pair<unsigned int const, unsigned int>>, 0>>::const_iterator::operator==(_Tree<_Tmap_traits<unsigned int, unsigned int, less<unsigned int>, allocator<pair<unsigned int const, unsigned int>>, 0>>::const_iterator const &) const
                                   BC52 
               calls direct
    -------------------------------------------------------------------------
<CODE> 1 (was CODE)
  Relative segment, address: BC56 - BC59 (0x4 bytes), align: 1
  Segment part 119.           Intra module refs:   _Tree<_Tmap_traits<unsigned int, unsigned int, less<unsigned int>, allocator<pair<unsigned int const, unsigned int>>, 0>>::insert(pair<unsigned int const, unsigned int> const &)
           ENTRY                   ADDRESS         REF BY
           =====                   =======         ======
           _Tree<_Tmap_traits<unsigned int, unsigned int, less<unsigned int>, allocator<pair<unsigned int const, unsigned int>>, 0>>::const_iterator::_Mynode() const
                                   BC56 
               calls direct
    -------------------------------------------------------------------------
<CODE> 1 (was CODE)
  Relative segment, address: B67E - B68D (0x10 bytes), align: 1
  Segment part 120.           Intra module refs:   _Tree<_Tmap_traits<unsigned int, unsigned int, less<unsigned int>, allocator<pair<unsigned int const, unsigned int>>, 0>>::_Insert(bool, _Nodeptr, pair<unsigned int const, unsigned int> const &)
                                                   _Tree<_Tmap_traits<unsigned int, unsigned int, less<unsigned int>, allocator<pair<unsigned int const, unsigned int>>, 0>>::begin()
                                                   _Tree<_Tmap_traits<unsigned int, unsigned int, less<unsigned int>, allocator<pair<unsigned int const, unsigned int>>, 0>>::insert(pair<unsigned int const, unsigned int> const &)
           ENTRY                   ADDRESS         REF BY
           =====                   =======         ======
           _Tree<_Tmap_traits<unsigned int, unsigned int, less<unsigned int>, allocator<pair<unsigned int const, unsigned int>>, 0>>::iterator::iterator(_Tree_algobase<allocator<void>>::_Genptr)
                                   B67E 
               calls direct
    -------------------------------------------------------------------------
<CODE> 1 (was CODE)
  Relative segment, address: BA2E - BA35 (0x8 bytes), align: 1
  Segment part 121.           Intra module refs:   map<unsigned int, unsigned int>::operator[](unsigned int)
           ENTRY                   ADDRESS         REF BY
           =====                   =======         ======
           _Tree<_Tmap_traits<unsigned int, unsigned int, less<unsigned int>, allocator<pair<unsigned int const, unsigned int>>, 0>>::iterator::operator*() const
                                   BA2E 
               calls direct
    -------------------------------------------------------------------------
<CODE> 1 (was CODE)
  Relative segment, address: B5EE - B5FD (0x10 bytes), align: 1
  Segment part 125.           Intra module refs:   _Tree<_Tmap_traits<unsigned int, unsigned int, less<unsigned int>, allocator<pair<unsigned int const, unsigned int>>, 0>>::insert(pair<unsigned int const, unsigned int> const &)
           ENTRY                   ADDRESS         REF BY
           =====                   =======         ======
           _Tree<_Tmap_traits<unsigned int, unsigned int, less<unsigned int>, allocator<pair<unsigned int const, unsigned int>>, 0>>::iterator::operator--()
                                   B5EE 
               calls direct
    -------------------------------------------------------------------------
<CODE> 1 (was CODE)
  Relative segment, address: B41C - B431 (0x16 bytes), align: 1
  Segment part 69.            Intra module refs:   map<unsigned int, unsigned int>::map()
           ENTRY                   ADDRESS         REF BY
           =====                   =======         ======
           _Tree<_Tmap_traits<unsigned int, unsigned int, less<unsigned int>, allocator<pair<unsigned int const, unsigned int>>, 0>>::_Tree(less<unsigned int> const &, allocator<pair<unsigned int const, unsigned int>> const &)
                                   B41C 
               calls direct
    -------------------------------------------------------------------------
<CODE> 1 (was CODE)
  Relative segment, address: AF2E - AF4D (0x20 bytes), align: 1
  Segment part 128.           Intra module refs:   _Tree<_Tmap_traits<unsigned int, unsigned int, less<unsigned int>, allocator<pair<unsigned int const, unsigned int>>, 0>>::insert(pair<unsigned int const, unsigned int> const &)
           ENTRY                   ADDRESS         REF BY
           =====                   =======         ======
           _Tree<_Tmap_traits<unsigned int, unsigned int, less<unsigned int>, allocator<pair<unsigned int const, unsigned int>>, 0>>::begin()
                                   AF2E 
               calls direct
    -------------------------------------------------------------------------
<CODE> 1 (was CODE)
  Relative segment, address: B528 - B539 (0x12 bytes), align: 1
  Segment part 130.           Intra module refs:   _Tree<_Tmap_traits<unsigned int, unsigned int, less<unsigned int>, allocator<pair<unsigned int const, unsigned int>>, 0>>::_Insert(bool, _Nodeptr, pair<unsigned int const, unsigned int> const &)
           ENTRY                   ADDRESS         REF BY
           =====                   =======         ======
           _Tree<_Tmap_traits<unsigned int, unsigned int, less<unsigned int>, allocator<pair<unsigned int const, unsigned int>>, 0>>::max_size() const
                                   B528 
               calls direct
    -------------------------------------------------------------------------
<CODE> 1 (was CODE)
  Relative segment, address: 7B26 - 7C61 (0x13c bytes), align: 1
  Segment part 134.           Intra module refs:   map<unsigned int, unsigned int>::operator[](unsigned int)
           ENTRY                   ADDRESS         REF BY
           =====                   =======         ======
           _Tree<_Tmap_traits<unsigned int, unsigned int, less<unsigned int>, allocator<pair<unsigned int const, unsigned int>>, 0>>::insert(pair<unsigned int const, unsigned int> const &)
                                   7B26 
               calls direct
    -------------------------------------------------------------------------
<CODE> 1 (was CODE)
  Relative segment, address: 9648 - 96A7 (0x60 bytes), align: 1
  Segment part 132.           Intra module refs:   _Tree<_Tmap_traits<unsigned int, unsigned int, less<unsigned int>, allocator<pair<unsigned int const, unsigned int>>, 0>>::insert(pair<unsigned int const, unsigned int> const &)
           ENTRY                   ADDRESS         REF BY
           =====                   =======         ======
           _Tree<_Tmap_traits<unsigned int, unsigned int, less<unsigned int>, allocator<pair<unsigned int const, unsigned int>>, 0>>::_Insert(bool, _Nodeptr, pair<unsigned int const, unsigned int> const &)
                                   9648 
               calls direct
    -------------------------------------------------------------------------
<CODE> 1 (was CODE)
  Relative segment, address: BA26 - BA2D (0x8 bytes), align: 1
  Segment part 127.           Intra module refs:   _Tree<_Tmap_traits<unsigned int, unsigned int, less<unsigned int>, allocator<pair<unsigned int const, unsigned int>>, 0>>::begin()
           ENTRY                   ADDRESS         REF BY
           =====                   =======         ======
           _Tree<_Tmap_traits<unsigned int, unsigned int, less<unsigned int>, allocator<pair<unsigned int const, unsigned int>>, 0>>::_Lmost()
                                   BA26 
               calls direct
    -------------------------------------------------------------------------
<CODE> 1 (was CODE)
  Relative segment, address: B9DE - B9E5 (0x8 bytes), align: 1
  Segment part 133.           Intra module refs:   _Tree<_Tmap_traits<unsigned int, unsigned int, less<unsigned int>, allocator<pair<unsigned int const, unsigned int>>, 0>>::insert(pair<unsigned int const, unsigned int> const &)
           ENTRY                   ADDRESS         REF BY
           =====                   =======         ======
           _Tree<_Tmap_traits<unsigned int, unsigned int, less<unsigned int>, allocator<pair<unsigned int const, unsigned int>>, 0>>::_Root()
                                   B9DE 
               calls direct
    -------------------------------------------------------------------------
<CODE> 1 (was CODE)
  Relative segment, address: BCAA - BCAB (0x2 bytes), align: 1
  Segment part 126.           Intra module refs:   _Tree<_Tmap_traits<unsigned int, unsigned int, less<unsigned int>, allocator<pair<unsigned int const, unsigned int>>, 0>>::_Insert(bool, _Nodeptr, pair<unsigned int const, unsigned int> const &)
                                                   _Tree<_Tmap_traits<unsigned int, unsigned int, less<unsigned int>, allocator<pair<unsigned int const, unsigned int>>, 0>>::_Lmost()
                                                   _Tree<_Tmap_traits<unsigned int, unsigned int, less<unsigned int>, allocator<pair<unsigned int const, unsigned int>>, 0>>::_Root()
                                                   _Tree<_Tmap_traits<unsigned int, unsigned int, less<unsigned int>, allocator<pair<unsigned int const, unsigned int>>, 0>>::insert(pair<unsigned int const, unsigned int> const &)
           ENTRY                   ADDRESS         REF BY
           =====                   =======         ======
           _Tree<_Tmap_traits<unsigned int, unsigned int, less<unsigned int>, allocator<pair<unsigned int const, unsigned int>>, 0>>::_Head() const
                                   BCAA 
    -------------------------------------------------------------------------
<CODE> 1 (was CODE)
  Relative segment, address: 9C40 - 9C8B (0x4c bytes), align: 1
  Segment part 131.           Intra module refs:   _Tree<_Tmap_traits<unsigned int, unsigned int, less<unsigned int>, allocator<pair<unsigned int const, unsigned int>>, 0>>::_Insert(bool, _Nodeptr, pair<unsigned int const, unsigned int> const &)
           ENTRY                   ADDRESS         REF BY
           =====                   =======         ======
           _Tree<_Tmap_traits<unsigned int, unsigned int, less<unsigned int>, allocator<pair<unsigned int const, unsigned int>>, 0>>::_Buynode(_Nodeptr, _Nodeptr, _Nodeptr, pair<unsigned int const, unsigned int> const &, char)
                                   9C40 
               calls direct
    -------------------------------------------------------------------------
<CODE> 1 (was CODE)
  Relative segment, address: BC5E - BC61 (0x4 bytes), align: 1
  Segment part 107.           Intra module refs:   _Tree_val<_Tmap_traits<unsigned int, unsigned int, less<unsigned int>, allocator<pair<unsigned int const, unsigned int>>, 0>>::_Kfn(pair<unsigned int const, unsigned int> const &)
           ENTRY                   ADDRESS         REF BY
           =====                   =======         ======
           _Tmap_traits<unsigned int, unsigned int, less<unsigned int>, allocator<pair<unsigned int const, unsigned int>>, 0>::_Kfn(pair<unsigned int const, unsigned int> const &)
                                   BC5E 
    -------------------------------------------------------------------------
<CODE> 1 (was CODE)
  Relative segment, address: B166 - B17F (0x1a bytes), align: 1
  Segment part 70.            Intra module refs:   ETL::ETL(unsigned long long)
           ENTRY                   ADDRESS         REF BY
           =====                   =======         ======
           map<unsigned int, unsigned int>::map()
                                   B166 
               calls direct
    -------------------------------------------------------------------------
<CODE> 1 (was CODE)
  Relative segment, address: A5A2 - A5D7 (0x36 bytes), align: 1
  Segment part 136.           Intra module refs:   ETL::InitLpnToPpnTable()
                                                   ETL::InitialPhysicalPages()
           ENTRY                   ADDRESS         REF BY
           =====                   =======         ======
           map<unsigned int, unsigned int>::operator[](unsigned int)
                                   A5A2 
               calls direct
    -------------------------------------------------------------------------
<CODE> 1 (was CODE)
  Relative segment, address: 9A9C - 9AF1 (0x56 bytes), align: 1
  Segment part 45.
           ENTRY                   ADDRESS         REF BY
           =====                   =======         ======
           ETL::ETL(unsigned long long)
                                   9A9C            TestPageTable() (pagetable)
               calls direct
    -------------------------------------------------------------------------
<CODE> 1 (was CODE)
  Relative segment, address: A60E - A643 (0x36 bytes), align: 1
  Segment part 48.            Intra module refs:   ETL::ETL(unsigned long long)
           ENTRY                   ADDRESS         REF BY
           =====                   =======         ======
           ETL::NeedFormat()       A60E 
               calls direct
    -------------------------------------------------------------------------
<CODE> 1 (was CODE)
  Relative segment, address: 8D94 - 8E2F (0x9c bytes), align: 1
  Segment part 44.            Intra module refs:   ETL::ETL(unsigned long long)
           ENTRY                   ADDRESS         REF BY
           =====                   =======         ======
           ETL::Format(unsigned char, unsigned int)
                                   8D94 
               calls direct
    -------------------------------------------------------------------------
<CODE> 1 (was CODE)
  Relative segment, address: 9AF2 - 9B45 (0x54 bytes), align: 1
  Segment part 43.            Intra module refs:   ETL::Format(unsigned char, unsigned int)
           ENTRY                   ADDRESS         REF BY
           =====                   =======         ======
           ETL::SetInfoPage(InfoPage)
                                   9AF2 
               calls direct
    -------------------------------------------------------------------------
<CODE> 1 (was CODE)
  Relative segment, address: 9218 - 928B (0x74 bytes), align: 1
  Segment part 47.            Intra module refs:   ETL::NeedFormat()
           ENTRY                   ADDRESS         REF BY
           =====                   =======         ======
           ETL::GetInfoPage()      9218            DualPool::InitialPoolBorder() (dualpool)
                                                   PageTable::GetPPN(int) (pagetable)
                                                   TestPageTable() (pagetable)
               calls direct
    -------------------------------------------------------------------------
<CODE> 1 (was CODE)
  Relative segment, address: AF6E - AF8D (0x20 bytes), align: 1
  Segment part 40.            Intra module refs:   ETL::SetInfoPage(InfoPage)
                                                   ETL::WriteDataPage(int, DataPage *)
           ENTRY                   ADDRESS         REF BY
           =====                   =======         ======
           ETL::RomWriteBytes(unsigned long long, char const *, int)
                                   AF6E 
               calls direct
    -------------------------------------------------------------------------
<CODE> 1 (was CODE)
  Relative segment, address: AEEE - AF0D (0x20 bytes), align: 1
  Segment part 35.            Intra module refs:   ETL::GetInfoPage()
                                                   ETL::ReadDataPage(int, DataPage *)
           ENTRY                   ADDRESS         REF BY
           =====                   =======         ======
           ETL::RomReadBytes(unsigned long long, char *, int)
                                   AEEE 
               calls direct
    -------------------------------------------------------------------------
<CODE> 1 (was CODE)
  Relative segment, address: 8BAC - 8C51 (0xa6 bytes), align: 1
  Segment part 42.            Intra module refs:   ETL::Format(unsigned char, unsigned int)
           ENTRY                   ADDRESS         REF BY
           =====                   =======         ======
           ETL::InitialPhysicalPages()
                                   8BAC 
               calls direct
    -------------------------------------------------------------------------
<CODE> 1 (was CODE)
  Relative segment, address: 8AFE - 8BAB (0xae bytes), align: 1
  Segment part 38.            Intra module refs:   ETL::ETL(unsigned long long)
                                                   ETL::Format(unsigned char, unsigned int)
           ENTRY                   ADDRESS         REF BY
           =====                   =======         ======
           ETL::InitialDualpool()
                                   8AFE 
               calls direct
    -------------------------------------------------------------------------
<CODE> 1 (was CODE)
  Relative segment, address: 8670 - 873F (0xd0 bytes), align: 1
  Segment part 41.            Intra module refs:   ETL::InitialPhysicalPages()
           ENTRY                   ADDRESS         REF BY
           =====                   =======         ======
           ETL::WriteDataPage(int, DataPage *)
                                   8670 
               calls direct
    -------------------------------------------------------------------------
<CODE> 1 (was CODE)
  Relative segment, address: 859E - 866F (0xd2 bytes), align: 1
  Segment part 37.            Intra module refs:   ETL::InitLpnToPpnTable()
                                                   ETL::InitialDualpool()
           ENTRY                   ADDRESS         REF BY
           =====                   =======         ======
           ETL::ReadDataPage(int, DataPage *)
                                   859E            DualPool::InitialPoolBorder() (dualpool)
                                                   PageTable::GetPPN(int) (pagetable)
               calls direct
    -------------------------------------------------------------------------
<CODE> 1 (was CODE)
  Relative segment, address: B9AE - B9B7 (0xa bytes), align: 1
  Segment part 36.            Intra module refs:   ETL::ReadDataPage(int, DataPage *)
                                                   ETL::WriteDataPage(int, DataPage *)
           ENTRY                   ADDRESS         REF BY
           =====                   =======         ======
           ETL::GetDataPageSize()
                                   B9AE 
    -------------------------------------------------------------------------
<CODE> 1 (was CODE)
  Relative segment, address: 98DE - 9939 (0x5c bytes), align: 1
  Segment part 39.            Intra module refs:   ETL::ETL(unsigned long long)
           ENTRY                   ADDRESS         REF BY
           =====                   =======         ======
           ETL::InitLpnToPpnTable()
                                   98DE 
               calls direct
    -------------------------------------------------------------------------
DATA16_C
  Relative segment, address: 5C48 - 5C65 (0x1e bytes), align: 0
  Segment part 4.             Intra module refs:   ETL::ETL(unsigned long long)
    -------------------------------------------------------------------------
DATA16_C
  Relative segment, address: 5C66 - 5C7C (0x17 bytes), align: 0
  Segment part 5.             Intra module refs:   ETL::ETL(unsigned long long)
                                                   ETL::Format(unsigned char, unsigned int)
    -------------------------------------------------------------------------
DATA16_C
  Relative segment, address: 5C7D - 5C91 (0x15 bytes), align: 0
  Segment part 6.             Intra module refs:   ETL::Format(unsigned char, unsigned int)
    -------------------------------------------------------------------------
DATA16_C
  Relative segment, address: 5C92 - 5CAC (0x1b bytes), align: 0
  Segment part 7.             Intra module refs:   ETL::Format(unsigned char, unsigned int)
    -------------------------------------------------------------------------
DATA16_C
  Relative segment, address: 5CAD - 5CB1 (0x5 bytes), align: 0
  Segment part 8.             Intra module refs:   ETL::InitialPhysicalPages()
    -------------------------------------------------------------------------
DATA16_C
  Relative segment, address: 5CB2 - 5CCC (0x1b bytes), align: 0
  Segment part 9.             Intra module refs:   ETL::InitialPhysicalPages()
                                                   ETL::ReadDataPage(int, DataPage *)
                                                   ETL::WriteDataPage(int, DataPage *)
    -------------------------------------------------------------------------
DATA16_C
  Relative segment, address: 5CCD - 5D08 (0x3c bytes), align: 0
  Segment part 10.            Intra module refs:   ETL::InitialDualpool()
    -------------------------------------------------------------------------
DATA16_C
  Relative segment, address: 5D09 - 5D0D (0x5 bytes), align: 0
  Segment part 11.            Intra module refs:   ETL::ReadDataPage(int, DataPage *)
                                                   ETL::WriteDataPage(int, DataPage *)

    *************************************************************************

  FILE NAME : \\Mac\Home\work\ETL\Debug\Obj\etltest.r43
    *************************************************************************

  FILE NAME : \\Mac\Home\work\ETL\Debug\Obj\eusci_a_spi.r43
    *************************************************************************

  FILE NAME : \\Mac\Home\work\ETL\Debug\Obj\eusci_a_uart.r43
    *************************************************************************

  FILE NAME : \\Mac\Home\work\ETL\Debug\Obj\eusci_b_i2c.r43
    *************************************************************************

  FILE NAME : \\Mac\Home\work\ETL\Debug\Obj\eusci_b_spi.r43
    *************************************************************************

  FILE NAME : \\Mac\Home\work\ETL\Debug\Obj\flashctl.r43
    *************************************************************************

  FILE NAME : \\Mac\Home\work\ETL\Debug\Obj\gpio.r43
  PROGRAM MODULE, NAME : gpio

  SEGMENTS IN THE MODULE
  ======================
DATA16_C
  Relative segment, address: 5C00 - 5C1B (0x1c bytes), align: 1
  Segment part 2.             Intra module refs:   GPIO_clearInterrupt
                                                   GPIO_getInputPinValue
                                                   GPIO_getInterruptStatus
                                                   GPIO_setAsInputPinWithPullUpResistor
           LOCAL                   ADDRESS         
           =====                   =======         
           GPIO_PORT_TO_BASE       5C00 
    -------------------------------------------------------------------------
<CODE> 1 (was CODE)
  Relative segment, address: A284 - A2BF (0x3c bytes), align: 1
  Segment part 11.
           ENTRY                   ADDRESS         REF BY
           =====                   =======         ======
           GPIO_setAsInputPinWithPullUpResistor
                                   A284            UpdateDebugState() (main)
    -------------------------------------------------------------------------
<CODE> 1 (was CODE)
  Relative segment, address: AB74 - AB99 (0x26 bytes), align: 1
  Segment part 12.
           ENTRY                   ADDRESS         REF BY
           =====                   =======         ======
           GPIO_getInputPinValue   AB74            UpdateDebugState() (main)
    -------------------------------------------------------------------------
<CODE> 1 (was CODE)
  Relative segment, address: A0DC - A119 (0x3e bytes), align: 1
  Segment part 15.
           ENTRY                   ADDRESS         REF BY
           =====                   =======         ======
           GPIO_getInterruptStatus
                                   A0DC            Port_2() (main)
    -------------------------------------------------------------------------
<CODE> 1 (was CODE)
  Relative segment, address: AE68 - AE89 (0x22 bytes), align: 1
  Segment part 16.
           ENTRY                   ADDRESS         REF BY
           =====                   =======         ======
           GPIO_clearInterrupt     AE68            Port_2() (main)

    *************************************************************************

  FILE NAME : \\Mac\Home\work\ETL\Debug\Obj\infopage.r43
    *************************************************************************

  FILE NAME : \\Mac\Home\work\ETL\Debug\Obj\lcd_b.r43
    *************************************************************************

  FILE NAME : \\Mac\Home\work\ETL\Debug\Obj\lcd_c.r43
    *************************************************************************

  FILE NAME : \\Mac\Home\work\ETL\Debug\Obj\ldopwr.r43
    *************************************************************************

  FILE NAME : \\Mac\Home\work\ETL\Debug\Obj\led.r43
  PROGRAM MODULE, NAME : led

  SEGMENTS IN THE MODULE
  ======================
DATA16_AN
  Relative segment, address: 0222 - 0223 (0x2 bytes), align: 0
  Segment part 1. ROOT        Intra module refs:   I2C_Set_sck_high() (rom)
                                                   I2C_Set_sck_low() (rom)
                                                   I2C_Set_sda_high() (rom)
                                                   I2C_Set_sda_low() (rom)
                                                   Led1_Off()
                                                   Led1_On()
                                                   Led2_Off()
                                                   Led2_On()
                                                   Led_Init()
           ENTRY                   ADDRESS         REF BY
           =====                   =======         ======
           _A_PBOUT_L              0222 
           LOCAL                   ADDRESS         
           =====                   =======         
           PBOUT                   0222 
           PBOUT_H                 0223 
           PBOUT_L                 0222 
    -------------------------------------------------------------------------
DATA16_AN
  Relative segment, address: 0224 - 0225 (0x2 bytes), align: 0
  Segment part 2. ROOT        Intra module refs:   I2C_GetACK() (rom)
                                                   I2C_RxByte() (rom)
                                                   I2C_Set_sck_high() (rom)
                                                   I2C_Set_sck_low() (rom)
                                                   I2C_Set_sda_high() (rom)
                                                   I2C_Set_sda_low() (rom)
                                                   Led_Init()
           ENTRY                   ADDRESS         REF BY
           =====                   =======         ======
           _A_PBDIR_L              0224 
           LOCAL                   ADDRESS         
           =====                   =======         
           PBDIR                   0224 
           PBDIR_H                 0225 
           PBDIR_L                 0224 
    -------------------------------------------------------------------------
DATA16_AN
  Relative segment, address: 022A - 022B (0x2 bytes), align: 0
  Segment part 3. ROOT        Intra module refs:   Led_Init()
           ENTRY                   ADDRESS         REF BY
           =====                   =======         ======
           _A_PBSEL_L              022A 
           LOCAL                   ADDRESS         
           =====                   =======         
           PBSEL                   022A 
           PBSEL_H                 022B 
           PBSEL_L                 022A 
    -------------------------------------------------------------------------
<CODE> 1 (was CODE)
  Relative segment, address: B48A - B49D (0x14 bytes), align: 1
  Segment part 5.
           ENTRY                   ADDRESS         REF BY
           =====                   =======         ======
           Led_Init()              B48A            Restart_Init() (main)
    -------------------------------------------------------------------------
<CODE> 1 (was CODE)
  Relative segment, address: AFCE - AFED (0x20 bytes), align: 1
  Segment part 10.
           ENTRY                   ADDRESS         REF BY
           =====                   =======         ======
           Led_Round()             AFCE            main (main)
               calls direct
    -------------------------------------------------------------------------
<CODE> 1 (was CODE)
  Relative segment, address: BA86 - BA8B (0x6 bytes), align: 1
  Segment part 9.             Intra module refs:   Led_Round()
           ENTRY                   ADDRESS         REF BY
           =====                   =======         ======
           Led1_On()               BA86 
    -------------------------------------------------------------------------
<CODE> 1 (was CODE)
  Relative segment, address: BA98 - BA9D (0x6 bytes), align: 1
  Segment part 7.             Intra module refs:   Led_Round()
           ENTRY                   ADDRESS         REF BY
           =====                   =======         ======
           Led2_On()               BA98 
    -------------------------------------------------------------------------
<CODE> 1 (was CODE)
  Relative segment, address: BAE6 - BAEB (0x6 bytes), align: 1
  Segment part 8.             Intra module refs:   Led_Round()
           ENTRY                   ADDRESS         REF BY
           =====                   =======         ======
           Led1_Off()              BAE6 
    -------------------------------------------------------------------------
<CODE> 1 (was CODE)
  Relative segment, address: BAFE - BB03 (0x6 bytes), align: 1
  Segment part 6.             Intra module refs:   Led_Round()
           ENTRY                   ADDRESS         REF BY
           =====                   =======         ======
           Led2_Off()              BAFE 
    -------------------------------------------------------------------------
<CODE> 1 (was CODE)
  Relative segment, address: BCA6 - BCA7 (0x2 bytes), align: 1
  Segment part 18.
           ENTRY                   ADDRESS         REF BY
           =====                   =======         ======
           Led1_WorkLightOff()     BCA6            Restart_Init() (main)

    *************************************************************************

  FILE NAME : \\Mac\Home\work\ETL\Debug\Obj\lowpower.r43
  PROGRAM MODULE, NAME : lowpower

  SEGMENTS IN THE MODULE
  ======================
DATA16_AN
  Relative segment, address: 0202 - 0203 (0x2 bytes), align: 0
  Segment part 1. ROOT        Intra module refs:   BoardPowerOn()
                                                   ROM_WP_OFF() (rom)
                                                   ROM_WP_ON() (rom)
           ENTRY                   ADDRESS         REF BY
           =====                   =======         ======
           _A_PAOUT_L              0202 
           LOCAL                   ADDRESS         
           =====                   =======         
           PAOUT                   0202 
           PAOUT_H                 0203 
           PAOUT_L                 0202 
    -------------------------------------------------------------------------
DATA16_AN
  Relative segment, address: 0204 - 0205 (0x2 bytes), align: 0
  Segment part 2. ROOT        Intra module refs:   BoardPowerOn()
                                                   ROM_WP_OFF() (rom)
                                                   ROM_WP_ON() (rom)
                                                   Restart_Init() (main)
           ENTRY                   ADDRESS         REF BY
           =====                   =======         ======
           _A_PADIR_L              0204 
           LOCAL                   ADDRESS         
           =====                   =======         
           PADIR                   0204 
           PADIR_H                 0205 
           PADIR_L                 0204 
    -------------------------------------------------------------------------
<CODE> 1 (was CODE)
  Relative segment, address: B972 - B97B (0xa bytes), align: 1
  Segment part 13.
           ENTRY                   ADDRESS         REF BY
           =====                   =======         ======
           BoardPowerOn()          B972            main (main)

    *************************************************************************

  FILE NAME : \\Mac\Home\work\ETL\Debug\Obj\lru.r43
  PROGRAM MODULE, NAME : lru

  SEGMENTS IN THE MODULE
  ======================
<CODE> 1 (was CODE)
  Relative segment, address: AD72 - AD95 (0x24 bytes), align: 1
  Segment part 86.            Intra module refs:   LRUCache::Get(int)
                                                   LRUCache::Put(int, int)
           ENTRY                   ADDRESS         REF BY
           =====                   =======         ======
           list<pair<int, int>>::push_front(_ParamTy)
                                   AD72 
               calls direct
    -------------------------------------------------------------------------
<CODE> 1 (was CODE)
  Relative segment, address: 910A - 9191 (0x88 bytes), align: 1
  Segment part 157.           Intra module refs:   LRUCache::Put(int, int)
           ENTRY                   ADDRESS         REF BY
           =====                   =======         ======
           LRUCache::Get(int)      910A            DualLRU::PutIntoSubCache(int, int) (duallru)
                                                   PageTable::GetPPN(int) (pagetable)
               calls direct
    -------------------------------------------------------------------------
<CODE> 1 (was CODE)
  Relative segment, address: 8F5C - 8FEF (0x94 bytes), align: 1
  Segment part 158.
           ENTRY                   ADDRESS         REF BY
           =====                   =======         ======
           LRUCache::Put(int, int)
                                   8F5C            DualLRU::PutIntoMainCache(int, int) (duallru)
               calls direct

    *************************************************************************

  FILE NAME : \\Mac\Home\work\ETL\Debug\Obj\main.r43
  PROGRAM MODULE, NAME : main

  SEGMENTS IN THE MODULE
  ======================
DATA16_AN
  Relative segment, address: 020A - 020B (0x2 bytes), align: 0
  Segment part 2. ROOT        Intra module refs:   Restart_Init()
           ENTRY                   ADDRESS         REF BY
           =====                   =======         ======
           _A_PASEL_L              020A 
           LOCAL                   ADDRESS         
           =====                   =======         
           PASEL                   020A 
           PASEL_H                 020B 
           PASEL_L                 020A 
    -------------------------------------------------------------------------
DATA16_AN
  Relative segment, address: 0264 - 0265 (0x2 bytes), align: 0
  Segment part 5. ROOT        Intra module refs:   Restart_Init()
                                                   TimerB_Init(unsigned int) (timer)
           ENTRY                   ADDRESS         REF BY
           =====                   =======         ======
           _A_PDDIR_L              0264 
           LOCAL                   ADDRESS         
           =====                   =======         
           PDDIR                   0264 
           PDDIR_H                 0265 
           PDDIR_L                 0264 
    -------------------------------------------------------------------------
DATA16_AN
  Relative segment, address: 02A4 - 02A5 (0x2 bytes), align: 0
  Segment part 8. ROOT        Intra module refs:   Restart_Init()
           ENTRY                   ADDRESS         REF BY
           =====                   =======         ======
           _A_PFDIR_L              02A4 
           LOCAL                   ADDRESS         
           =====                   =======         
           PFDIR                   02A4 
           PFDIR_H                 02A5 
           PFDIR_L                 02A4 
    -------------------------------------------------------------------------
DATA16_AN
  Relative segment, address: 0100 - 0101 (0x2 bytes), align: 0
  Segment part 9. ROOT        Intra module refs:   Restart_Init()
           ENTRY                   ADDRESS         REF BY
           =====                   =======         ======
           _A_SFRIE1_L             0100 
           LOCAL                   ADDRESS         
           =====                   =======         
           SFRIE1                  0100 
           SFRIE1_H                0101 
           SFRIE1_L                0100 
    -------------------------------------------------------------------------
<CODE> 1 (was CODE)
  Relative segment, address: B2B8 - B2D1 (0x1a bytes), align: 1
  Segment part 30.            Intra module refs:   main
           ENTRY                   ADDRESS         REF BY
           =====                   =======         ======
           Time::Time()            B2B8 
    -------------------------------------------------------------------------
DATA16_I
  Relative segment, address: 1C00 - 1C01 (0x2 bytes), align: 1
  Segment part 22.
           ENTRY                   ADDRESS         REF BY
           =====                   =======         ======
           Opened                  1C00            Console_WriteBytesln(char *, int) (Console)
                                                   Console_WriteString(char *) (Console)
                                                   Console_WriteStringln(char *) (Console)
    -------------------------------------------------------------------------
DATA16_I
  Relative segment, address: 1C02 - 1C03 (0x2 bytes), align: 1
  Segment part 24.            Intra module refs:   UpdateDebugState()
           ENTRY                   ADDRESS         REF BY
           =====                   =======         ======
           IsDebug                 1C02 
    -------------------------------------------------------------------------
DATA16_Z
  Relative segment, address: 1C48 - 1C48 (0x1 bytes), align: 0
  Segment part 26.            Intra module refs:   Restart_Init()
           ENTRY                   ADDRESS         REF BY
           =====                   =======         ======
           Is_RS485_1              1C48 
    -------------------------------------------------------------------------
DATA16_Z
  Relative segment, address: 1C49 - 1C49 (0x1 bytes), align: 0
  Segment part 28.
           ENTRY                   ADDRESS         REF BY
           =====                   =======         ======
           Is_uart1_RX_INT         1C49            UART1_RX_ISR() (uart1)
    -------------------------------------------------------------------------
<CODE> 1 (was CODE)
  Relative segment, address: A678 - A6AB (0x34 bytes), align: 1
  Segment part 31.            Intra module refs:   main
           ENTRY                   ADDRESS         REF BY
           =====                   =======         ======
           UpdateDebugState()      A678 
               calls direct
    -------------------------------------------------------------------------
<CODE> 1 (was CODE)
  Relative segment, address: 8740 - 880D (0xce bytes), align: 1
  Segment part 34.
           ENTRY                   ADDRESS         REF BY
           =====                   =======         ======
           main                    8740            Segment part 27 (?cstart)
               calls direct
    -------------------------------------------------------------------------
ISR_CODE
  Relative segment, address: 5F8A - 5FB1 (0x28 bytes), align: 1
  Segment part 37.            Intra module refs:   Port_2()::??INTVEC 84
           ENTRY                   ADDRESS         REF BY
           =====                   =======         ======
           Port_2()                5F8A 
               interrupt function
               calls direct
    -------------------------------------------------------------------------
<CODE> 1 (was CODE)
  Relative segment, address: 9994 - 99ED (0x5a bytes), align: 1
  Segment part 33.            Intra module refs:   main
           ENTRY                   ADDRESS         REF BY
           =====                   =======         ======
           Restart_Init()          9994 
               calls direct
    -------------------------------------------------------------------------
<CODE> 1 (was CODE)
  Relative segment, address: AECE - AEED (0x20 bytes), align: 1
  Segment part 32.            Intra module refs:   main
           ENTRY                   ADDRESS         REF BY
           =====                   =======         ======
           Main_Init()             AECE 
               calls direct
    -------------------------------------------------------------------------
INTVEC
  Common segment, address: FF80 - FFD5 (0x56 bytes), align: 1
  Segment part 10. ROOT 
           ENTRY                   ADDRESS         REF BY
           =====                   =======         ======
           Port_2()::??INTVEC 84   FFD4 
    -------------------------------------------------------------------------
DATA16_ID
  Relative segment, address: 5F58 - 5F59 (0x2 bytes), align: 1
  Segment part 23.            Intra module refs:   Opened
    -------------------------------------------------------------------------
DATA16_ID
  Relative segment, address: 5F5A - 5F5B (0x2 bytes), align: 1
  Segment part 25.            Intra module refs:   IsDebug
    -------------------------------------------------------------------------
DATA16_C
  Relative segment, address: 5D0E - 5D1B (0xe bytes), align: 0
  Segment part 12.            Intra module refs:   UpdateDebugState()
    -------------------------------------------------------------------------
DATA16_C
  Relative segment, address: 5D1C - 5D29 (0xe bytes), align: 0
  Segment part 13.            Intra module refs:   UpdateDebugState()
    -------------------------------------------------------------------------
DATA16_C
  Relative segment, address: 5D2A - 5D2E (0x5 bytes), align: 0
  Segment part 14.            Intra module refs:   main
           LOCAL                   ADDRESS         
           =====                   =======         
           main::__FUNCTION__      5D2A 
    -------------------------------------------------------------------------
DATA16_C
  Relative segment, address: 5D2F - 5D3C (0xe bytes), align: 0
  Segment part 15.            Intra module refs:   main
    -------------------------------------------------------------------------
DATA16_C
  Relative segment, address: 5D3D - 5D59 (0x1d bytes), align: 0
  Segment part 16.            Intra module refs:   main
    -------------------------------------------------------------------------
DATA16_C
  Relative segment, address: 5D5A - 5D75 (0x1c bytes), align: 0
  Segment part 17.            Intra module refs:   main
    -------------------------------------------------------------------------
DATA16_C
  Relative segment, address: 5D76 - 5D90 (0x1b bytes), align: 0
  Segment part 18.            Intra module refs:   main
    -------------------------------------------------------------------------
DATA16_C
  Relative segment, address: 5D91 - 5D9B (0xb bytes), align: 0
  Segment part 19.            Intra module refs:   Port_2()

    *************************************************************************

  FILE NAME : \\Mac\Home\work\ETL\Debug\Obj\mathtool.r43
  PROGRAM MODULE, NAME : mathtool

  SEGMENTS IN THE MODULE
  ======================
<CODE> 1 (was CODE)
  Relative segment, address: A6AC - A6DF (0x34 bytes), align: 1
  Segment part 5.
           ENTRY                   ADDRESS         REF BY
           =====                   =======         ======
           MathTool::Upper(float)
                                   A6AC            DualLRU::GetSubCacheHead() (duallru)
               calls direct

    *************************************************************************

  FILE NAME : \\Mac\Home\work\ETL\Debug\Obj\mpy32.r43
    *************************************************************************

  FILE NAME : \\Mac\Home\work\ETL\Debug\Obj\oa.r43
    *************************************************************************

  FILE NAME : \\Mac\Home\work\ETL\Debug\Obj\pagetable.r43
  PROGRAM MODULE, NAME : pagetable

  SEGMENTS IN THE MODULE
  ======================
<CODE> 1 (was CODE)
  Relative segment, address: A158 - A193 (0x3c bytes), align: 1
  Segment part 8.             Intra module refs:   TestPageTable()
           ENTRY                   ADDRESS         REF BY
           =====                   =======         ======
           PageTable::PageTable(ETL *)
                                   A158 
               calls direct
    -------------------------------------------------------------------------
<CODE> 1 (was CODE)
  Relative segment, address: 88DA - 8995 (0xbc bytes), align: 1
  Segment part 10.            Intra module refs:   TestPageTable()
           ENTRY                   ADDRESS         REF BY
           =====                   =======         ======
           PageTable::GetPPN(int)
                                   88DA 
               calls direct
    -------------------------------------------------------------------------
<CODE> 1 (was CODE)
  Relative segment, address: B9E6 - B9ED (0x8 bytes), align: 1
  Segment part 11.            Intra module refs:   TestPageTable()
           ENTRY                   ADDRESS         REF BY
           =====                   =======         ======
           PageTable::Set(int, int)
                                   B9E6 
               calls direct
    -------------------------------------------------------------------------
<CODE> 1 (was CODE)
  Relative segment, address: 83E4 - 84C7 (0xe4 bytes), align: 1
  Segment part 12.
           ENTRY                   ADDRESS         REF BY
           =====                   =======         ======
           TestPageTable()         83E4            main (main)
               calls direct
    -------------------------------------------------------------------------
DATA16_C
  Relative segment, address: 5D9C - 5DC8 (0x2d bytes), align: 0
  Segment part 2.             Intra module refs:   TestPageTable()
    -------------------------------------------------------------------------
DATA16_C
  Relative segment, address: 5DC9 - 5DD2 (0xa bytes), align: 0
  Segment part 3.             Intra module refs:   TestPageTable()
    -------------------------------------------------------------------------
DATA16_C
  Relative segment, address: 5DD3 - 5DDA (0x8 bytes), align: 0
  Segment part 4.             Intra module refs:   TestPageTable()
    -------------------------------------------------------------------------
DATA16_C
  Relative segment, address: 5DDB - 5E07 (0x2d bytes), align: 0
  Segment part 5.             Intra module refs:   TestPageTable()

    *************************************************************************

  FILE NAME : \\Mac\Home\work\ETL\Debug\Obj\pmap.r43
    *************************************************************************

  FILE NAME : \\Mac\Home\work\ETL\Debug\Obj\pmm.r43
    *************************************************************************

  FILE NAME : \\Mac\Home\work\ETL\Debug\Obj\ram.r43
    *************************************************************************

  FILE NAME : \\Mac\Home\work\ETL\Debug\Obj\ref.r43
    *************************************************************************

  FILE NAME : \\Mac\Home\work\ETL\Debug\Obj\rom.r43
  PROGRAM MODULE, NAME : rom

  SEGMENTS IN THE MODULE
  ======================
DATA16_AN
  Relative segment, address: 0220 - 0221 (0x2 bytes), align: 0
  Segment part 3. ROOT        Intra module refs:   I2C_GetACK()
                                                   I2C_RxByte()
           ENTRY                   ADDRESS         REF BY
           =====                   =======         ======
           _A_PBIN_L               0220 
           LOCAL                   ADDRESS         
           =====                   =======         
           PBIN                    0220 
           PBIN_H                  0221 
           PBIN_L                  0220 
    -------------------------------------------------------------------------
<CODE> 1 (was CODE)
  Relative segment, address: B7B8 - B7C5 (0xe bytes), align: 1
  Segment part 27.            Intra module refs:   _ROM_WriteBytes(unsigned long long, char const *, int)
           ENTRY                   ADDRESS         REF BY
           =====                   =======         ======
           ROM_WP_OFF()            B7B8 
    -------------------------------------------------------------------------
<CODE> 1 (was CODE)
  Relative segment, address: B7C6 - B7D3 (0xe bytes), align: 1
  Segment part 28.            Intra module refs:   _ROM_WriteBytes(unsigned long long, char const *, int)
           ENTRY                   ADDRESS         REF BY
           =====                   =======         ======
           ROM_WP_ON()             B7C6 
    -------------------------------------------------------------------------
<CODE> 1 (was CODE)
  Relative segment, address: 880E - 88D9 (0xcc bytes), align: 1
  Segment part 40.            Intra module refs:   ROM_WriteBytes_Page_(unsigned long long, char const *, int)
           LOCAL                   ADDRESS         
           =====                   =======         
           _ROM_WriteBytes(unsigned long long, char const *, int)
                                   880E 
               calls direct
    -------------------------------------------------------------------------
<CODE> 1 (was CODE)
  Relative segment, address: AD06 - AD29 (0x24 bytes), align: 1
  Segment part 41.            Intra module refs:   ROM_WriteBytes_Page(unsigned long long, char const *, int)
           ENTRY                   ADDRESS         REF BY
           =====                   =======         ======
           IsSame_(char const *, char const *, size_t)
                                   AD06 
    -------------------------------------------------------------------------
<CODE> 1 (was CODE)
  Relative segment, address: 7550 - 7745 (0x1f6 bytes), align: 1
  Segment part 42.            Intra module refs:   ROM_WriteBytes_Page(unsigned long long, char const *, int)
           ENTRY                   ADDRESS         REF BY
           =====                   =======         ======
           ROM_WriteBytes_Page_(unsigned long long, char const *, int)
                                   7550 
               calls direct
    -------------------------------------------------------------------------
<CODE> 1 (was CODE)
  Relative segment, address: 9082 - 9109 (0x88 bytes), align: 1
  Segment part 47.            Intra module refs:   ROM_WriteBytes(unsigned long long, char const *, int)
           ENTRY                   ADDRESS         REF BY
           =====                   =======         ======
           ROM_WriteBytes_Page(unsigned long long, char const *, int)
                                   9082 
               calls direct
    -------------------------------------------------------------------------
<CODE> 1 (was CODE)
  Relative segment, address: 78AA - 79E9 (0x140 bytes), align: 1
  Segment part 46.            Intra module refs:   ROM_ReadBytes(unsigned long long, char *, int)
                                                   ROM_WriteBytes_Page(unsigned long long, char const *, int)
           ENTRY                   ADDRESS         REF BY
           =====                   =======         ======
           ROM_ReadBytes_Page(unsigned long long, char *, int)
                                   78AA 
               calls direct
    -------------------------------------------------------------------------
<CODE> 1 (was CODE)
  Relative segment, address: B7D4 - B7E1 (0xe bytes), align: 1
  Segment part 30.            Intra module refs:   I2C_RxByte()
                                                   I2C_START()
                                                   I2C_STOP()
                                                   I2C_SetNAK()
                                                   I2C_TxByte(char)
           ENTRY                   ADDRESS         REF BY
           =====                   =======         ======
           I2C_Set_sda_high()      B7D4 
    -------------------------------------------------------------------------
<CODE> 1 (was CODE)
  Relative segment, address: B7E2 - B7EF (0xe bytes), align: 1
  Segment part 32.            Intra module refs:   I2C_START()
                                                   I2C_STOP()
                                                   I2C_SetACK()
                                                   I2C_TxByte(char)
           ENTRY                   ADDRESS         REF BY
           =====                   =======         ======
           I2C_Set_sda_low()       B7E2 
    -------------------------------------------------------------------------
<CODE> 1 (was CODE)
  Relative segment, address: B7F0 - B7FD (0xe bytes), align: 1
  Segment part 31.            Intra module refs:   I2C_GetACK()
                                                   I2C_RxByte()
                                                   I2C_START()
                                                   I2C_STOP()
                                                   I2C_SetACK()
                                                   I2C_SetNAK()
                                                   I2C_TxByte(char)
           ENTRY                   ADDRESS         REF BY
           =====                   =======         ======
           I2C_Set_sck_high()      B7F0 
    -------------------------------------------------------------------------
<CODE> 1 (was CODE)
  Relative segment, address: B7FE - B80B (0xe bytes), align: 1
  Segment part 29.            Intra module refs:   I2C_GetACK()
                                                   I2C_RxByte()
                                                   I2C_START()
                                                   I2C_STOP()
                                                   I2C_SetACK()
                                                   I2C_SetNAK()
                                                   I2C_TxByte(char)
           ENTRY                   ADDRESS         REF BY
           =====                   =======         ======
           I2C_Set_sck_low()       B7FE 
    -------------------------------------------------------------------------
<CODE> 1 (was CODE)
  Relative segment, address: A3AC - A3E5 (0x3a bytes), align: 1
  Segment part 49.            Intra module refs:   ROM_ReadBytes_Page(unsigned long long, char *, int)
                                                   _ROM_WriteBytes(unsigned long long, char const *, int)
           ENTRY                   ADDRESS         REF BY
           =====                   =======         ======
           I2C_GetACK()            A3AC 
               calls direct
    -------------------------------------------------------------------------
<CODE> 1 (was CODE)
  Relative segment, address: B76E - B77D (0x10 bytes), align: 1
  Segment part 44.            Intra module refs:   ROM_ReadBytes_Page(unsigned long long, char *, int)
           ENTRY                   ADDRESS         REF BY
           =====                   =======         ======
           I2C_SetACK()            B76E 
               calls direct
    -------------------------------------------------------------------------
<CODE> 1 (was CODE)
  Relative segment, address: B71E - B72D (0x10 bytes), align: 1
  Segment part 43.            Intra module refs:   ROM_ReadBytes_Page(unsigned long long, char *, int)
           ENTRY                   ADDRESS         REF BY
           =====                   =======         ======
           I2C_SetNAK()            B71E 
               calls direct
    -------------------------------------------------------------------------
<CODE> 1 (was CODE)
  Relative segment, address: A644 - A677 (0x34 bytes), align: 1
  Segment part 37.            Intra module refs:   ROM_ReadBytes_Page(unsigned long long, char *, int)
                                                   _ROM_WriteBytes(unsigned long long, char const *, int)
           ENTRY                   ADDRESS         REF BY
           =====                   =======         ======
           I2C_START()             A644 
               calls direct
    -------------------------------------------------------------------------
<CODE> 1 (was CODE)
  Relative segment, address: A2FC - A337 (0x3c bytes), align: 1
  Segment part 33.            Intra module refs:   ROM_ReadBytes_Page(unsigned long long, char *, int)
                                                   _ROM_WriteBytes(unsigned long long, char const *, int)
           ENTRY                   ADDRESS         REF BY
           =====                   =======         ======
           I2C_STOP()              A2FC 
               calls direct
    -------------------------------------------------------------------------
<CODE> 1 (was CODE)
  Relative segment, address: A248 - A283 (0x3c bytes), align: 1
  Segment part 36.            Intra module refs:   ROM_ReadBytes_Page(unsigned long long, char *, int)
                                                   _ROM_WriteBytes(unsigned long long, char const *, int)
           ENTRY                   ADDRESS         REF BY
           =====                   =======         ======
           I2C_TxByte(char)        A248 
               calls direct
    -------------------------------------------------------------------------
<CODE> 1 (was CODE)
  Relative segment, address: 9D70 - 9DBB (0x4c bytes), align: 1
  Segment part 45.            Intra module refs:   ROM_ReadBytes_Page(unsigned long long, char *, int)
           ENTRY                   ADDRESS         REF BY
           =====                   =======         ======
           I2C_RxByte()            9D70 
               calls direct
    -------------------------------------------------------------------------
<CODE> 1 (was CODE)
  Relative segment, address: 7FBC - 80CD (0x112 bytes), align: 1
  Segment part 50.
           ENTRY                   ADDRESS         REF BY
           =====                   =======         ======
           ROM_WriteBytes(unsigned long long, char const *, int)
                                   7FBC            ETL::RomWriteBytes(unsigned long long, char const *, int) (etl)
               calls direct
    -------------------------------------------------------------------------
<CODE> 1 (was CODE)
  Relative segment, address: 81DE - 82E1 (0x104 bytes), align: 1
  Segment part 51.
           ENTRY                   ADDRESS         REF BY
           =====                   =======         ======
           ROM_ReadBytes(unsigned long long, char *, int)
                                   81DE            ETL::RomReadBytes(unsigned long long, char *, int) (etl)
               calls direct
    -------------------------------------------------------------------------
DATA16_C
  Relative segment, address: 5E08 - 5E32 (0x2b bytes), align: 0
  Segment part 7.             Intra module refs:   ROM_WriteBytes_Page_(unsigned long long, char const *, int)
    -------------------------------------------------------------------------
DATA16_C
  Relative segment, address: 5E33 - 5E61 (0x2f bytes), align: 0
  Segment part 8.             Intra module refs:   ROM_WriteBytes_Page_(unsigned long long, char const *, int)
    -------------------------------------------------------------------------
DATA16_C
  Relative segment, address: 5E62 - 5E8A (0x29 bytes), align: 0
  Segment part 9.             Intra module refs:   ROM_WriteBytes_Page_(unsigned long long, char const *, int)
    -------------------------------------------------------------------------
DATA16_C
  Relative segment, address: 5E8B - 5EA3 (0x19 bytes), align: 0
  Segment part 10.            Intra module refs:   ROM_WriteBytes_Page_(unsigned long long, char const *, int)
    -------------------------------------------------------------------------
DATA16_C
  Relative segment, address: 5EA4 - 5EBC (0x19 bytes), align: 0
  Segment part 11.            Intra module refs:   ROM_WriteBytes_Page_(unsigned long long, char const *, int)
    -------------------------------------------------------------------------
DATA16_C
  Relative segment, address: 5EBD - 5ED5 (0x19 bytes), align: 0
  Segment part 12.            Intra module refs:   ROM_WriteBytes_Page_(unsigned long long, char const *, int)
    -------------------------------------------------------------------------
DATA16_C
  Relative segment, address: 5ED6 - 5EEE (0x19 bytes), align: 0
  Segment part 13.            Intra module refs:   ROM_WriteBytes_Page_(unsigned long long, char const *, int)
    -------------------------------------------------------------------------
DATA16_C
  Relative segment, address: 5EEF - 5EFE (0x10 bytes), align: 0
  Segment part 15.            Intra module refs:   ROM_WriteBytes_Page(unsigned long long, char const *, int)

    *************************************************************************

  FILE NAME : \\Mac\Home\work\ETL\Debug\Obj\rtc.r43
  PROGRAM MODULE, NAME : rtc

  SEGMENTS IN THE MODULE
  ======================
DATA16_AN
  Relative segment, address: 0200 - 0201 (0x2 bytes), align: 0
  Segment part 1. ROOT 
           ENTRY                   ADDRESS         REF BY
           =====                   =======         ======
           _A_PAIN_L               0200 
           LOCAL                   ADDRESS         
           =====                   =======         
           PAIN                    0200 
           PAIN_H                  0201 
           PAIN_L                  0200 
    -------------------------------------------------------------------------
DATA16_AN
  Relative segment, address: 0280 - 0281 (0x2 bytes), align: 0
  Segment part 5. ROOT        Intra module refs:   READ_SDA()
           ENTRY                   ADDRESS         REF BY
           =====                   =======         ======
           _A_PEIN_L               0280 
           LOCAL                   ADDRESS         
           =====                   =======         
           PEIN                    0280 
           PEIN_H                  0281 
           PEIN_L                  0280 
    -------------------------------------------------------------------------
<CODE> 1 (was CODE)
  Relative segment, address: 84C8 - 859D (0xd6 bytes), align: 1
  Segment part 57.            Intra module refs:   Time::GetRtcTime()
           ENTRY                   ADDRESS         REF BY
           =====                   =======         ======
           _RTC_ReadTime(char *, char *, char *, char *, char *, char *, char *, char *)
                                   84C8 
               calls direct
    -------------------------------------------------------------------------
<CODE> 1 (was CODE)
  Relative segment, address: A1D0 - A20B (0x3c bytes), align: 1
  Segment part 56.            Intra module refs:   _RTC_ReadTime(char *, char *, char *, char *, char *, char *, char *, char *)
           ENTRY                   ADDRESS         REF BY
           =====                   =======         ======
           _RTC_Read_OneByte(char)
                                   A1D0 
               calls direct
    -------------------------------------------------------------------------
<CODE> 1 (was CODE)
  Relative segment, address: A746 - A777 (0x32 bytes), align: 1
  Segment part 62.            Intra module refs:   RTC_Open()
           ENTRY                   ADDRESS         REF BY
           =====                   =======         ======
           _RTC_Write_OneByte(char, char)
                                   A746            Main_Init() (main)
               calls direct
    -------------------------------------------------------------------------
<CODE> 1 (was CODE)
  Relative segment, address: B6EE - B6FD (0x10 bytes), align: 1
  Segment part 44.            Intra module refs:   _RTC_ReadTime(char *, char *, char *, char *, char *, char *, char *, char *)
           ENTRY                   ADDRESS         REF BY
           =====                   =======         ======
           _BCDtoHEX(char)         B6EE 
    -------------------------------------------------------------------------
<CODE> 1 (was CODE)
  Relative segment, address: A05E - A09D (0x40 bytes), align: 1
  Segment part 93.
           ENTRY                   ADDRESS         REF BY
           =====                   =======         ======
           RTC_Open()              A05E            Main_Init() (main)
               calls direct
    -------------------------------------------------------------------------
<CODE> 1 (was CODE)
  Relative segment, address: BAAA - BAAF (0x6 bytes), align: 1
  Segment part 46.            Intra module refs:   IIC_Ack()
                                                   IIC_NAck()
                                                   IIC_Read_Byte(unsigned char)
                                                   IIC_Send_Byte(unsigned char)
                                                   IIC_Start()
                                                   IIC_Stop()
                                                   IIC_Wait_Ack()
                                                   RTC_Open()
           ENTRY                   ADDRESS         REF BY
           =====                   =======         ======
           IIC_SCL_HIGH()          BAAA 
    -------------------------------------------------------------------------
<CODE> 1 (was CODE)
  Relative segment, address: BAB0 - BAB5 (0x6 bytes), align: 1
  Segment part 48.            Intra module refs:   IIC_Ack()
                                                   IIC_NAck()
                                                   IIC_Read_Byte(unsigned char)
                                                   IIC_Send_Byte(unsigned char)
                                                   IIC_Start()
                                                   IIC_Stop()
                                                   IIC_Wait_Ack()
           ENTRY                   ADDRESS         REF BY
           =====                   =======         ======
           IIC_SCL_LOW()           BAB0 
    -------------------------------------------------------------------------
<CODE> 1 (was CODE)
  Relative segment, address: BAB6 - BABB (0x6 bytes), align: 1
  Segment part 45.            Intra module refs:   IIC_NAck()
                                                   IIC_Send_Byte(unsigned char)
                                                   IIC_Start()
                                                   IIC_Stop()
                                                   IIC_Wait_Ack()
                                                   RTC_Open()
           ENTRY                   ADDRESS         REF BY
           =====                   =======         ======
           IIC_SDA_HIGH()          BAB6 
    -------------------------------------------------------------------------
<CODE> 1 (was CODE)
  Relative segment, address: BABC - BAC1 (0x6 bytes), align: 1
  Segment part 47.            Intra module refs:   IIC_Ack()
                                                   IIC_Send_Byte(unsigned char)
                                                   IIC_Start()
                                                   IIC_Stop()
           ENTRY                   ADDRESS         REF BY
           =====                   =======         ======
           IIC_SDA_LOW()           BABC 
    -------------------------------------------------------------------------
<CODE> 1 (was CODE)
  Relative segment, address: B81A - B827 (0xe bytes), align: 1
  Segment part 97.            Intra module refs:   IIC_Read_Byte(unsigned char)
                                                   IIC_Wait_Ack()
           ENTRY                   ADDRESS         REF BY
           =====                   =======         ======
           READ_SDA()              B81A 
    -------------------------------------------------------------------------
<CODE> 1 (was CODE)
  Relative segment, address: ACE2 - AD05 (0x24 bytes), align: 1
  Segment part 55.            Intra module refs:   _RTC_Read_OneByte(char)
                                                   _RTC_Write_OneByte(char, char)
           ENTRY                   ADDRESS         REF BY
           =====                   =======         ======
           IIC_Start()             ACE2 
               calls direct
    -------------------------------------------------------------------------
<CODE> 1 (was CODE)
  Relative segment, address: ABC0 - ABE5 (0x26 bytes), align: 1
  Segment part 49.            Intra module refs:   IIC_Wait_Ack()
                                                   _RTC_Read_OneByte(char)
                                                   _RTC_Write_OneByte(char, char)
           ENTRY                   ADDRESS         REF BY
           =====                   =======         ======
           IIC_Stop()              ABC0 
               calls direct
    -------------------------------------------------------------------------
<CODE> 1 (was CODE)
  Relative segment, address: A372 - A3AB (0x3a bytes), align: 1
  Segment part 53.            Intra module refs:   _RTC_Read_OneByte(char)
                                                   _RTC_Write_OneByte(char, char)
           ENTRY                   ADDRESS         REF BY
           =====                   =======         ======
           IIC_Wait_Ack()          A372 
               calls direct
    -------------------------------------------------------------------------
<CODE> 1 (was CODE)
  Relative segment, address: B0DA - B0F5 (0x1c bytes), align: 1
  Segment part 50.            Intra module refs:   IIC_Read_Byte(unsigned char)
           ENTRY                   ADDRESS         REF BY
           =====                   =======         ======
           IIC_Ack()               B0DA 
               calls direct
    -------------------------------------------------------------------------
<CODE> 1 (was CODE)
  Relative segment, address: B06A - B085 (0x1c bytes), align: 1
  Segment part 51.            Intra module refs:   IIC_Read_Byte(unsigned char)
           ENTRY                   ADDRESS         REF BY
           =====                   =======         ======
           IIC_NAck()              B06A 
               calls direct
    -------------------------------------------------------------------------
<CODE> 1 (was CODE)
  Relative segment, address: A456 - A48D (0x38 bytes), align: 1
  Segment part 54.            Intra module refs:   _RTC_Read_OneByte(char)
                                                   _RTC_Write_OneByte(char, char)
           ENTRY                   ADDRESS         REF BY
           =====                   =======         ======
           IIC_Send_Byte(unsigned char)
                                   A456 
               calls direct
    -------------------------------------------------------------------------
<CODE> 1 (was CODE)
  Relative segment, address: 9E8E - 9ED1 (0x44 bytes), align: 1
  Segment part 52.            Intra module refs:   _RTC_Read_OneByte(char)
           ENTRY                   ADDRESS         REF BY
           =====                   =======         ======
           IIC_Read_Byte(unsigned char)
                                   9E8E 
               calls direct
    -------------------------------------------------------------------------
<CODE> 1 (was CODE)
  Relative segment, address: A778 - A7A9 (0x32 bytes), align: 1
  Segment part 99.
           ENTRY                   ADDRESS         REF BY
           =====                   =======         ======
           Time::GetRtcTime()      A778            main (main)
               calls direct
    -------------------------------------------------------------------------
<CODE> 1 (was CODE)
  Relative segment, address: 9446 - 94B1 (0x6c bytes), align: 1
  Segment part 100.
           ENTRY                   ADDRESS         REF BY
           =====                   =======         ======
           Time::Show()            9446            main (main)
               calls direct
    -------------------------------------------------------------------------
DATA16_C
  Relative segment, address: 5EFF - 5F22 (0x24 bytes), align: 0
  Segment part 9.             Intra module refs:   Time::Show()
    -------------------------------------------------------------------------
DATA16_C
  Relative segment, address: 5F23 - 5F3D (0x1b bytes), align: 0
  Segment part 10.            Intra module refs:   Time::Show()

    *************************************************************************

  FILE NAME : \\Mac\Home\work\ETL\Debug\Obj\rtc_a.r43
    *************************************************************************

  FILE NAME : \\Mac\Home\work\ETL\Debug\Obj\rtc_b.r43
    *************************************************************************

  FILE NAME : \\Mac\Home\work\ETL\Debug\Obj\rtc_c.r43
    *************************************************************************

  FILE NAME : \\Mac\Home\work\ETL\Debug\Obj\sd24_b.r43
    *************************************************************************

  FILE NAME : \\Mac\Home\work\ETL\Debug\Obj\sfr.r43
    *************************************************************************

  FILE NAME : \\Mac\Home\work\ETL\Debug\Obj\sys_status.r43
  PROGRAM MODULE, NAME : sys_status

  SEGMENTS IN THE MODULE
  ======================
DATA16_AN
  Relative segment, address: 0352 - 0353 (0x2 bytes), align: 0
  Segment part 1. ROOT 
           ENTRY                   ADDRESS         REF BY
           =====                   =======         ======
           TA0CCR0                 0352 

    *************************************************************************

  FILE NAME : \\Mac\Home\work\ETL\Debug\Obj\sysctl.r43
    *************************************************************************

  FILE NAME : \\Mac\Home\work\ETL\Debug\Obj\tec.r43
    *************************************************************************

  FILE NAME : \\Mac\Home\work\ETL\Debug\Obj\timer.r43
  PROGRAM MODULE, NAME : timer

  SEGMENTS IN THE MODULE
  ======================
DATA16_AN
  Relative segment, address: 0340 - 0341 (0x2 bytes), align: 0
  Segment part 3. ROOT 
           ENTRY                   ADDRESS         REF BY
           =====                   =======         ======
           TA0CTL                  0340 
    -------------------------------------------------------------------------
DATA16_AN
  Relative segment, address: 0342 - 0343 (0x2 bytes), align: 0
  Segment part 4. ROOT 
           ENTRY                   ADDRESS         REF BY
           =====                   =======         ======
           TA0CCTL0                0342 
    -------------------------------------------------------------------------
DATA16_AN
  Relative segment, address: 0380 - 0381 (0x2 bytes), align: 0
  Segment part 6. ROOT 
           ENTRY                   ADDRESS         REF BY
           =====                   =======         ======
           TA1CTL                  0380 
    -------------------------------------------------------------------------
DATA16_AN
  Relative segment, address: 0382 - 0383 (0x2 bytes), align: 0
  Segment part 7. ROOT 
           ENTRY                   ADDRESS         REF BY
           =====                   =======         ======
           TA1CCTL0                0382 
    -------------------------------------------------------------------------
DATA16_AN
  Relative segment, address: 0392 - 0393 (0x2 bytes), align: 0
  Segment part 8. ROOT 
           ENTRY                   ADDRESS         REF BY
           =====                   =======         ======
           TA1CCR0                 0392 
    -------------------------------------------------------------------------
DATA16_AN
  Relative segment, address: 03C0 - 03C1 (0x2 bytes), align: 0
  Segment part 9. ROOT        Intra module refs:   TimerB_Init(unsigned int)
           ENTRY                   ADDRESS         REF BY
           =====                   =======         ======
           TB0CTL                  03C0 
    -------------------------------------------------------------------------
DATA16_AN
  Relative segment, address: 03C2 - 03C3 (0x2 bytes), align: 0
  Segment part 10. ROOT 
           ENTRY                   ADDRESS         REF BY
           =====                   =======         ======
           TB0CCTL0                03C2 
    -------------------------------------------------------------------------
DATA16_AN
  Relative segment, address: 03C4 - 03C5 (0x2 bytes), align: 0
  Segment part 11. ROOT       Intra module refs:   TimerB_Init(unsigned int)
           ENTRY                   ADDRESS         REF BY
           =====                   =======         ======
           TB0CCTL1                03C4 
    -------------------------------------------------------------------------
DATA16_AN
  Relative segment, address: 03C6 - 03C7 (0x2 bytes), align: 0
  Segment part 12. ROOT       Intra module refs:   TimerB_Init(unsigned int)
           ENTRY                   ADDRESS         REF BY
           =====                   =======         ======
           TB0CCTL2                03C6 
    -------------------------------------------------------------------------
DATA16_AN
  Relative segment, address: 03D2 - 03D3 (0x2 bytes), align: 0
  Segment part 13. ROOT       Intra module refs:   TimerB_Init(unsigned int)
           ENTRY                   ADDRESS         REF BY
           =====                   =======         ======
           TB0CCR0                 03D2 
    -------------------------------------------------------------------------
DATA16_AN
  Relative segment, address: 03D4 - 03D5 (0x2 bytes), align: 0
  Segment part 14. ROOT       Intra module refs:   TIMERB1_ISR()
                                                   TimerB_Init(unsigned int)
           ENTRY                   ADDRESS         REF BY
           =====                   =======         ======
           TB0CCR1                 03D4 
    -------------------------------------------------------------------------
DATA16_AN
  Relative segment, address: 03D6 - 03D7 (0x2 bytes), align: 0
  Segment part 15. ROOT       Intra module refs:   TIMERB1_ISR()
                                                   TimerB_Init(unsigned int)
           ENTRY                   ADDRESS         REF BY
           =====                   =======         ======
           TB0CCR2                 03D6 
    -------------------------------------------------------------------------
DATA16_AN
  Relative segment, address: 03EE - 03EF (0x2 bytes), align: 0
  Segment part 16. ROOT       Intra module refs:   TIMERB1_ISR()
           ENTRY                   ADDRESS         REF BY
           =====                   =======         ======
           TB0IV                   03EE 
    -------------------------------------------------------------------------
DATA16_Z
  Relative segment, address: 1C0C - 1C0D (0x2 bytes), align: 1
  Segment part 23.            Intra module refs:   TIMERA0_ISR()
           LOCAL                   ADDRESS         
           =====                   =======         
           s_ClockTicks            1C0C 
    -------------------------------------------------------------------------
DATA16_Z
  Relative segment, address: 1C0E - 1C0F (0x2 bytes), align: 1
  Segment part 24.            Intra module refs:   TIMERB1_ISR()
                                                   TimerB_Clear()
           LOCAL                   ADDRESS         
           =====                   =======         
           s_reset_count           1C0E 
    -------------------------------------------------------------------------
<CODE> 1 (was CODE)
  Relative segment, address: BA0E - BA15 (0x8 bytes), align: 1
  Segment part 31.
           ENTRY                   ADDRESS         REF BY
           =====                   =======         ======
           WatchDog_Init()         BA0E            Restart_Init() (main)
    -------------------------------------------------------------------------
<CODE> 1 (was CODE)
  Relative segment, address: BA06 - BA0D (0x8 bytes), align: 1
  Segment part 32.            Intra module refs:   TIMERA0_ISR()
                                                   TIMERB1_ISR()
           ENTRY                   ADDRESS         REF BY
           =====                   =======         ======
           WatchDog_Clear()        BA06            Main_Init() (main)
    -------------------------------------------------------------------------
<CODE> 1 (was CODE)
  Relative segment, address: 9F5A - 9F9B (0x42 bytes), align: 1
  Segment part 33.
           ENTRY                   ADDRESS         REF BY
           =====                   =======         ======
           TimerB_Init(unsigned int)
                                   9F5A            Restart_Init() (main)
    -------------------------------------------------------------------------
<CODE> 1 (was CODE)
  Relative segment, address: BB10 - BB15 (0x6 bytes), align: 1
  Segment part 34.            Intra module refs:   TIMERA0_ISR()
           ENTRY                   ADDRESS         REF BY
           =====                   =======         ======
           TimerB_Clear()          BB10            Main_Init() (main)
    -------------------------------------------------------------------------
ISR_CODE
  Relative segment, address: 5FB2 - 5FB3 (0x2 bytes), align: 1
  Segment part 39.            Intra module refs:   TIMER0_A0_ISR()::??INTVEC 108
           ENTRY                   ADDRESS         REF BY
           =====                   =======         ======
           TIMER0_A0_ISR()         5FB2 
               interrupt function
    -------------------------------------------------------------------------
ISR_CODE
  Relative segment, address: 5FB4 - 5FC1 (0xe bytes), align: 1
  Segment part 40.            Intra module refs:   TIMERA0_ISR()::??INTVEC 98
           ENTRY                   ADDRESS         REF BY
           =====                   =======         ======
           TIMERA0_ISR()           5FB4 
               interrupt function
               calls direct
    -------------------------------------------------------------------------
ISR_CODE
  Relative segment, address: 5FC2 - 5FC3 (0x2 bytes), align: 1
  Segment part 41.            Intra module refs:   TIMERB0_ISR()::??INTVEC 120
           ENTRY                   ADDRESS         REF BY
           =====                   =======         ======
           TIMERB0_ISR()           5FC2 
               interrupt function
    -------------------------------------------------------------------------
ISR_CODE
  Relative segment, address: 5FC4 - 5FF5 (0x32 bytes), align: 1
  Segment part 42.            Intra module refs:   TIMERB1_ISR()::??INTVEC 118
           ENTRY                   ADDRESS         REF BY
           =====                   =======         ======
           TIMERB1_ISR()           5FC4 
               interrupt function
               calls direct
    -------------------------------------------------------------------------
INTVEC
  Common segment, address: FF80 - FFE3 (0x64 bytes), align: 1
  Segment part 18. ROOT 
           ENTRY                   ADDRESS         REF BY
           =====                   =======         ======
           TIMERA0_ISR()::??INTVEC 98
                                   FFE2 
    -------------------------------------------------------------------------
INTVEC
  Common segment, address: FF80 - FFED (0x6e bytes), align: 1
  Segment part 19. ROOT 
           ENTRY                   ADDRESS         REF BY
           =====                   =======         ======
           TIMER0_A0_ISR()::??INTVEC 108
                                   FFEC 
    -------------------------------------------------------------------------
INTVEC
  Common segment, address: FF80 - FFF7 (0x78 bytes), align: 1
  Segment part 20. ROOT 
           ENTRY                   ADDRESS         REF BY
           =====                   =======         ======
           TIMERB1_ISR()::??INTVEC 118
                                   FFF6 
    -------------------------------------------------------------------------
INTVEC
  Common segment, address: FF80 - FFF9 (0x7a bytes), align: 1
  Segment part 21. ROOT 
           ENTRY                   ADDRESS         REF BY
           =====                   =======         ======
           TIMERB0_ISR()::??INTVEC 120
                                   FFF8 

    *************************************************************************

  FILE NAME : \\Mac\Home\work\ETL\Debug\Obj\timer_a.r43
    *************************************************************************

  FILE NAME : \\Mac\Home\work\ETL\Debug\Obj\timer_b.r43
    *************************************************************************

  FILE NAME : \\Mac\Home\work\ETL\Debug\Obj\timer_d.r43
    *************************************************************************

  FILE NAME : \\Mac\Home\work\ETL\Debug\Obj\tlv.r43
    *************************************************************************

  FILE NAME : \\Mac\Home\work\ETL\Debug\Obj\tool.r43
  PROGRAM MODULE, NAME : tool

  SEGMENTS IN THE MODULE
  ======================
<CODE> 1 (was CODE)
  Relative segment, address: BC5A - BC5D (0x4 bytes), align: 1
  Segment part 14.            Intra module refs:   _Ty *_Copy_backward_opt(_Ty const *, _Ty const *, _Ty *)[with _Ty=unsigned short]
           ENTRY                   ADDRESS         REF BY
           =====                   =======         ======
           _Backward_copier<><_Ty, true>[with _Ty=unsigned short]::_Copy(unsigned short const *, unsigned short const *, unsigned short *)
                                   BC5A 
               calls direct
    -------------------------------------------------------------------------
<CODE> 1 (was CODE)
  Relative segment, address: BB62 - BB65 (0x4 bytes), align: 1
  Segment part 15.            Intra module refs:   _Ty1 *_Copy_backward_opt(_Ty1 *, _Ty1 *, _Ty1 *)[with _Ty1=unsigned short]
           ENTRY                   ADDRESS         REF BY
           =====                   =======         ======
           _Ty *_Copy_backward_opt(_Ty const *, _Ty const *, _Ty *)[with _Ty=unsigned short]
                                   BB62 
               calls direct
    -------------------------------------------------------------------------
<CODE> 1 (was CODE)
  Relative segment, address: BB5E - BB61 (0x4 bytes), align: 1
  Segment part 16.            Intra module refs:   _BidIt2 copy_backward(_BidIt1, _BidIt1, _BidIt2)[with _BidIt1=unsigned short *, _BidIt2=unsigned short *]
           ENTRY                   ADDRESS         REF BY
           =====                   =======         ======
           _Ty1 *_Copy_backward_opt(_Ty1 *, _Ty1 *, _Ty1 *)[with _Ty1=unsigned short]
                                   BB5E 
               calls direct
    -------------------------------------------------------------------------
<CODE> 1 (was CODE)
  Relative segment, address: BB5A - BB5D (0x4 bytes), align: 1
  Segment part 17.            Intra module refs:   _Vector_impl<unsigned short, allocator<unsigned short>>::_Make_room(unsigned short *, unsigned int)
           ENTRY                   ADDRESS         REF BY
           =====                   =======         ======
           _BidIt2 copy_backward(_BidIt1, _BidIt1, _BidIt2)[with _BidIt1=unsigned short *, _BidIt2=unsigned short *]
                                   BB5A 
               calls direct
    -------------------------------------------------------------------------
<CODE> 1 (was CODE)
  Relative segment, address: BC96 - BC97 (0x2 bytes), align: 1
  Segment part 20.            Intra module refs:   _Vector_impl<unsigned short, allocator<unsigned short>>::_Altyval() const
                                                   _Vector_impl<unsigned short, allocator<unsigned short>>::_Make_room(unsigned short *, unsigned int)
                                                   _Vector_impl<unsigned short, allocator<unsigned short>>::_Ucopy(unsigned short const *, unsigned short const *, unsigned short *)
                                                   _Vector_impl<unsigned short, allocator<unsigned short>>::_Ufill(unsigned short *, unsigned int, unsigned short)
           ENTRY                   ADDRESS         REF BY
           =====                   =======         ======
           void allocator<unsigned short>::allocator(allocator<_Other> const &)[with _Other=void]
                                   BC96 
    -------------------------------------------------------------------------
<CODE> 1 (was CODE)
  Relative segment, address: BB34 - BB39 (0x6 bytes), align: 1
  Segment part 21.            Intra module refs:   _Vector_impl<unsigned short, allocator<unsigned short>>::_Tidy0()
           ENTRY                   ADDRESS         REF BY
           =====                   =======         ======
           allocator<unsigned short>::deallocate(unsigned short *, unsigned int)
                                   BB34 
               calls direct
    -------------------------------------------------------------------------
<CODE> 1 (was CODE)
  Relative segment, address: B9D6 - B9DD (0x8 bytes), align: 1
  Segment part 22.            Intra module refs:   _Vector_impl<unsigned short, allocator<unsigned short>>::_Make_room(unsigned short *, unsigned int)
           ENTRY                   ADDRESS         REF BY
           =====                   =======         ======
           allocator<unsigned short>::allocate(unsigned int)
                                   B9D6 
               calls direct
    -------------------------------------------------------------------------
<CODE> 1 (was CODE)
  Relative segment, address: B88A - B895 (0xc bytes), align: 1
  Segment part 23.            Intra module refs:   _Vector_impl<unsigned short, allocator<unsigned short>>::_Make_room(unsigned short *, unsigned int)
           ENTRY                   ADDRESS         REF BY
           =====                   =======         ======
           allocator<unsigned short>::max_size() const
                                   B88A 
    -------------------------------------------------------------------------
<CODE> 1 (was CODE)
  Relative segment, address: BB46 - BB49 (0x4 bytes), align: 1
  Segment part 24.            Intra module refs:   _Ty *_Uninit_copy(_Ty const *, _Ty const *, _Ty *)[with _Ty=unsigned short]
           ENTRY                   ADDRESS         REF BY
           =====                   =======         ======
           _Uninit_copier<><_Ty, true>[with _Ty=unsigned short]::_Copy(unsigned short const *, unsigned short const *, unsigned short *)
                                   BB46 
               calls direct
    -------------------------------------------------------------------------
<CODE> 1 (was CODE)
  Relative segment, address: BB4A - BB4D (0x4 bytes), align: 1
  Segment part 25.            Intra module refs:   _FwdIt _Uninit_copy(_InIt, _InIt, _FwdIt, _Alloc &)[with _InIt=unsigned short const *, _FwdIt=unsigned short *, _Alloc=allocator<unsigned short>]
           ENTRY                   ADDRESS         REF BY
           =====                   =======         ======
           _Ty *_Uninit_copy(_Ty const *, _Ty const *, _Ty *)[with _Ty=unsigned short]
                                   BB4A 
               calls direct
    -------------------------------------------------------------------------
<CODE> 1 (was CODE)
  Relative segment, address: BB4E - BB51 (0x4 bytes), align: 1
  Segment part 26.            Intra module refs:   _FwdIt _Uninitialized_copy(_InIt, _InIt, _FwdIt, _Alloc &)[with _InIt=unsigned short const *, _FwdIt=unsigned short *, _Alloc=allocator<unsigned short>]
           ENTRY                   ADDRESS         REF BY
           =====                   =======         ======
           _FwdIt _Uninit_copy(_InIt, _InIt, _FwdIt, _Alloc &)[with _InIt=unsigned short const *, _FwdIt=unsigned short *, _Alloc=allocator<unsigned short>]
                                   BB4E 
               calls direct
    -------------------------------------------------------------------------
<CODE> 1 (was CODE)
  Relative segment, address: BB52 - BB55 (0x4 bytes), align: 1
  Segment part 27.            Intra module refs:   _Vector_impl<unsigned short, allocator<unsigned short>>::_Ucopy(unsigned short const *, unsigned short const *, unsigned short *)
           ENTRY                   ADDRESS         REF BY
           =====                   =======         ======
           _FwdIt _Uninitialized_copy(_InIt, _InIt, _FwdIt, _Alloc &)[with _InIt=unsigned short const *, _FwdIt=unsigned short *, _Alloc=allocator<unsigned short>]
                                   BB52 
               calls direct
    -------------------------------------------------------------------------
<CODE> 1 (was CODE)
  Relative segment, address: B6CE - B6DD (0x10 bytes), align: 1
  Segment part 28.            Intra module refs:   _Vector_impl<unsigned short, allocator<unsigned short>>::_Ufill(unsigned short *, unsigned int, unsigned short)
           ENTRY                   ADDRESS         REF BY
           =====                   =======         ======
           void _Uninitialized_fill_n(_FwdIt, _Diff, _Tval const &, _Alloc &)[with _FwdIt=unsigned short *, _Diff=unsigned int, _Tval=unsigned short, _Alloc=allocator<unsigned short>]
                                   B6CE 
    -------------------------------------------------------------------------
<CODE> 1 (was CODE)
  Relative segment, address: BC8E - BC8F (0x2 bytes), align: 1
  Segment part 30.            Intra module refs:   _Vector_impl<unsigned short, allocator<unsigned short>>::_Insert0(unsigned short *, unsigned short)
           ENTRY                   ADDRESS         REF BY
           =====                   =======         ======
           _Vector_value<allocator<void>>::_ToBptr(void *)
                                   BC8E 
    -------------------------------------------------------------------------
<CODE> 1 (was CODE)
  Relative segment, address: B9EE - B9F5 (0x8 bytes), align: 1
  Segment part 36.            Intra module refs:   _Vector_impl<unsigned short, allocator<unsigned short>>::capacity() const
           ENTRY                   ADDRESS         REF BY
           =====                   =======         ======
           _Vector_value<_Alloc>::size_type _Vector_value<_Alloc>::_Capacity<_Sz>() const[with _Alloc=allocator<void>, _Sz=2]
                                   B9EE 
               calls direct
    -------------------------------------------------------------------------
<CODE> 1 (was CODE)
  Relative segment, address: B9F6 - B9FD (0x8 bytes), align: 1
  Segment part 37.            Intra module refs:   _Vector_impl<unsigned short, allocator<unsigned short>>::size() const
                                                   vector<int>::size() const
           ENTRY                   ADDRESS         REF BY
           =====                   =======         ======
           _Vector_value<_Alloc>::size_type _Vector_value<_Alloc>::_Size<_Sz>() const[with _Alloc=allocator<void>, _Sz=2]
                                   B9F6 
               calls direct
    -------------------------------------------------------------------------
<CODE> 1 (was CODE)
  Relative segment, address: B29E - B2B7 (0x1a bytes), align: 1
  Segment part 40.            Intra module refs:   _Vector_impl<unsigned short, allocator<unsigned short>>::_Tidy0()
           ENTRY                   ADDRESS         REF BY
           =====                   =======         ======
           _Vector_impl<unsigned short, allocator<unsigned short>>::_Altyval() const
                                   B29E 
               calls direct
    -------------------------------------------------------------------------
<CODE> 1 (was CODE)
  Relative segment, address: AC0A - AC2D (0x24 bytes), align: 1
  Segment part 44.            Intra module refs:   _Vector_impl<unsigned short, allocator<unsigned short>>::_Tidy0()
           ENTRY                   ADDRESS         REF BY
           =====                   =======         ======
           _Vector_impl<unsigned short, allocator<unsigned short>>::_EraseAll()
                                   AC0A 
               calls direct
    -------------------------------------------------------------------------
<CODE> 1 (was CODE)
  Relative segment, address: 9E48 - 9E8D (0x46 bytes), align: 1
  Segment part 46.            Intra module refs:   _Vector_impl<unsigned short, allocator<unsigned short>>::_Make_room(unsigned short *, unsigned int)
           ENTRY                   ADDRESS         REF BY
           =====                   =======         ======
           _Vector_impl<unsigned short, allocator<unsigned short>>::_Tidy0()
                                   9E48 
               calls direct
    -------------------------------------------------------------------------
<CODE> 1 (was CODE)
  Relative segment, address: BC8C - BC8D (0x2 bytes), align: 1
  Segment part 41.            Intra module refs:   _Vector_impl<unsigned short, allocator<unsigned short>>::_EraseAll()
           ENTRY                   ADDRESS         REF BY
           =====                   =======         ======
           _Vector_impl<unsigned short, allocator<unsigned short>>::_Destroy(unsigned short *, unsigned short *)
                                   BC8C 
    -------------------------------------------------------------------------
<CODE> 1 (was CODE)
  Relative segment, address: BAE0 - BAE5 (0x6 bytes), align: 1
  Segment part 55.            Intra module refs:   _Vector_impl<unsigned short, allocator<unsigned short>>::_Push_back0(unsigned short)
           ENTRY                   ADDRESS         REF BY
           =====                   =======         ======
           _Vector_impl<_Ty, _Alloc>::pointer _Vector_impl<_Ty, _Alloc>::_Insert(_Vector_impl<_Ty, _Alloc>::pointer, _Ty1 const &)[with _Ty=unsigned short, _Alloc=allocator<unsigned short>, _Ty1=unsigned short]
                                   BAE0 
               calls direct
    -------------------------------------------------------------------------
<CODE> 1 (was CODE)
  Relative segment, address: BADA - BADF (0x6 bytes), align: 1
  Segment part 53.            Intra module refs:   _Vector_impl<unsigned short, allocator<unsigned short>>::_Insert0(unsigned short *, unsigned short)
           ENTRY                   ADDRESS         REF BY
           =====                   =======         ======
           void _Vector_impl<_Ty, _Alloc>::_Insert_n(_Vector_impl<_Ty, _Alloc>::pointer, _Vector_impl<_Ty, _Alloc>::size_type, _Ty1 const &)[with _Ty=unsigned short, _Alloc=allocator<unsigned short>, _Ty1=unsigned short]
                                   BADA 
               calls direct
    -------------------------------------------------------------------------
<CODE> 1 (was CODE)
  Relative segment, address: BAD4 - BAD9 (0x6 bytes), align: 1
  Segment part 57.            Intra module refs:   vector<int>::push_back(int)
           ENTRY                   ADDRESS         REF BY
           =====                   =======         ======
           void _Vector_impl<unsigned short, allocator<unsigned short>>::_Push_back(_Ty1 const &)[with _Ty1=int]
                                   BAD4 
               calls direct
    -------------------------------------------------------------------------
<CODE> 1 (was CODE)
  Relative segment, address: BB82 - BB85 (0x4 bytes), align: 1
  Segment part 42.            Intra module refs:   _Vector_impl<unsigned short, allocator<unsigned short>>::_EraseAll()
                                                   _Vector_impl<unsigned short, allocator<unsigned short>>::_Make_room(unsigned short *, unsigned int)
                                                   _Vector_impl<unsigned short, allocator<unsigned short>>::_Tidy0()
           ENTRY                   ADDRESS         REF BY
           =====                   =======         ======
           _Vector_impl<unsigned short, allocator<unsigned short>>::_Mytyfirst() const
                                   BB82 
    -------------------------------------------------------------------------
<CODE> 1 (was CODE)
  Relative segment, address: BACE - BAD3 (0x6 bytes), align: 1
  Segment part 43.            Intra module refs:   _Vector_impl<unsigned short, allocator<unsigned short>>::_EraseAll()
                                                   _Vector_impl<unsigned short, allocator<unsigned short>>::_Make_room(unsigned short *, unsigned int)
                                                   _Vector_impl<unsigned short, allocator<unsigned short>>::_Push_back0(unsigned short)
           ENTRY                   ADDRESS         REF BY
           =====                   =======         ======
           _Vector_impl<unsigned short, allocator<unsigned short>>::_Mytylast() const
                                   BACE 
    -------------------------------------------------------------------------
<CODE> 1 (was CODE)
  Relative segment, address: BAC8 - BACD (0x6 bytes), align: 1
  Segment part 45.            Intra module refs:   _Vector_impl<unsigned short, allocator<unsigned short>>::_Tidy0()
           ENTRY                   ADDRESS         REF BY
           =====                   =======         ======
           _Vector_impl<unsigned short, allocator<unsigned short>>::_Mytyend() const
                                   BAC8 
    -------------------------------------------------------------------------
<CODE> 1 (was CODE)
  Relative segment, address: 80CE - 81DD (0x110 bytes), align: 1
  Segment part 51.            Intra module refs:   _Vector_impl<unsigned short, allocator<unsigned short>>::_Insert_n0(unsigned short *, unsigned int, unsigned short)
           ENTRY                   ADDRESS         REF BY
           =====                   =======         ======
           _Vector_impl<unsigned short, allocator<unsigned short>>::_Make_room(unsigned short *, unsigned int)
                                   80CE 
               calls direct
    -------------------------------------------------------------------------
<CODE> 1 (was CODE)
  Relative segment, address: BB92 - BB95 (0x4 bytes), align: 1
  Segment part 49.            Intra module refs:   _Vector_impl<unsigned short, allocator<unsigned short>>::_Make_room(unsigned short *, unsigned int)
           ENTRY                   ADDRESS         REF BY
           =====                   =======         ======
           _Vector_impl<unsigned short, allocator<unsigned short>>::size() const
                                   BB92 
               calls direct
    -------------------------------------------------------------------------
<CODE> 1 (was CODE)
  Relative segment, address: BB96 - BB99 (0x4 bytes), align: 1
  Segment part 50.            Intra module refs:   _Vector_impl<unsigned short, allocator<unsigned short>>::_Make_room(unsigned short *, unsigned int)
           ENTRY                   ADDRESS         REF BY
           =====                   =======         ======
           _Vector_impl<unsigned short, allocator<unsigned short>>::capacity() const
                                   BB96 
               calls direct
    -------------------------------------------------------------------------
<CODE> 1 (was CODE)
  Relative segment, address: A194 - A1CF (0x3c bytes), align: 1
  Segment part 54.            Intra module refs:   _Vector_impl<_Ty, _Alloc>::pointer _Vector_impl<_Ty, _Alloc>::_Insert(_Vector_impl<_Ty, _Alloc>::pointer, _Ty1 const &)[with _Ty=unsigned short, _Alloc=allocator<unsigned short>, _Ty1=unsigned short]
           ENTRY                   ADDRESS         REF BY
           =====                   =======         ======
           _Vector_impl<unsigned short, allocator<unsigned short>>::_Insert0(unsigned short *, unsigned short)
                                   A194 
               calls direct
    -------------------------------------------------------------------------
<CODE> 1 (was CODE)
  Relative segment, address: ADDE - AE01 (0x24 bytes), align: 1
  Segment part 52.            Intra module refs:   void _Vector_impl<_Ty, _Alloc>::_Insert_n(_Vector_impl<_Ty, _Alloc>::pointer, _Vector_impl<_Ty, _Alloc>::size_type, _Ty1 const &)[with _Ty=unsigned short, _Alloc=allocator<unsigned short>, _Ty1=unsigned short]
           ENTRY                   ADDRESS         REF BY
           =====                   =======         ======
           _Vector_impl<unsigned short, allocator<unsigned short>>::_Insert_n0(unsigned short *, unsigned int, unsigned short)
                                   ADDE 
               calls direct
    -------------------------------------------------------------------------
<CODE> 1 (was CODE)
  Relative segment, address: A20C - A247 (0x3c bytes), align: 1
  Segment part 56.            Intra module refs:   void _Vector_impl<unsigned short, allocator<unsigned short>>::_Push_back(_Ty1 const &)[with _Ty1=int]
           ENTRY                   ADDRESS         REF BY
           =====                   =======         ======
           _Vector_impl<unsigned short, allocator<unsigned short>>::_Push_back0(unsigned short)
                                   A20C 
               calls direct
    -------------------------------------------------------------------------
<CODE> 1 (was CODE)
  Relative segment, address: A41E - A455 (0x38 bytes), align: 1
  Segment part 47.            Intra module refs:   _Vector_impl<unsigned short, allocator<unsigned short>>::_Insert_n0(unsigned short *, unsigned int, unsigned short)
                                                   _Vector_impl<unsigned short, allocator<unsigned short>>::_Push_back0(unsigned short)
           ENTRY                   ADDRESS         REF BY
           =====                   =======         ======
           _Vector_impl<unsigned short, allocator<unsigned short>>::_Ufill(unsigned short *, unsigned int, unsigned short)
                                   A41E 
               calls direct
    -------------------------------------------------------------------------
<CODE> 1 (was CODE)
  Relative segment, address: A92A - A957 (0x2e bytes), align: 1
  Segment part 48.            Intra module refs:   _Vector_impl<unsigned short, allocator<unsigned short>>::_Make_room(unsigned short *, unsigned int)
           ENTRY                   ADDRESS         REF BY
           =====                   =======         ======
           _Vector_impl<unsigned short, allocator<unsigned short>>::_Ucopy(unsigned short const *, unsigned short const *, unsigned short *)
                                   A92A 
               calls direct
    -------------------------------------------------------------------------
<CODE> 1 (was CODE)
  Relative segment, address: B62E - B63D (0x10 bytes), align: 1
  Segment part 58.            Intra module refs:   GetCharSelBitCnt(char)
           ENTRY                   ADDRESS         REF BY
           =====                   =======         ======
           vector<int>::vector()   B62E 
               calls direct
    -------------------------------------------------------------------------
<CODE> 1 (was CODE)
  Relative segment, address: BBB2 - BBB5 (0x4 bytes), align: 1
  Segment part 60.            Intra module refs:   vector<int>::operator[](unsigned int)
           ENTRY                   ADDRESS         REF BY
           =====                   =======         ======
           vector<int>::begin()    BBB2 
    -------------------------------------------------------------------------
<CODE> 1 (was CODE)
  Relative segment, address: BBB6 - BBB9 (0x4 bytes), align: 1
  Segment part 61.            Intra module refs:   vector<char>::operator[](unsigned int) const
           ENTRY                   ADDRESS         REF BY
           =====                   =======         ======
           vector<char>::begin() const
                                   BBB6 
    -------------------------------------------------------------------------
<CODE> 1 (was CODE)
  Relative segment, address: BBBA - BBBD (0x4 bytes), align: 1
  Segment part 63.            Intra module refs:   GetCharSelBitCnt(char)
           ENTRY                   ADDRESS         REF BY
           =====                   =======         ======
           vector<int>::size() const
                                   BBBA 
               calls direct
    -------------------------------------------------------------------------
<CODE> 1 (was CODE)
  Relative segment, address: B836 - B843 (0xe bytes), align: 1
  Segment part 64.            Intra module refs:   Tool::SetBit(vector<char> &, int)
           ENTRY                   ADDRESS         REF BY
           =====                   =======         ======
           vector<char>::operator[](unsigned int)
                                   B836 
               calls direct
    -------------------------------------------------------------------------
<CODE> 1 (was CODE)
  Relative segment, address: B5FE - B60D (0x10 bytes), align: 1
  Segment part 65.            Intra module refs:   GetCharSelBitCnt(char)
           ENTRY                   ADDRESS         REF BY
           =====                   =======         ======
           vector<int>::operator[](unsigned int)
                                   B5FE 
               calls direct
    -------------------------------------------------------------------------
<CODE> 1 (was CODE)
  Relative segment, address: B844 - B851 (0xe bytes), align: 1
  Segment part 66.            Intra module refs:   Tool::CountSelBitCnt(vector<char> const &)
                                                   Tool::IsBitSet(vector<char> const &, int)
           ENTRY                   ADDRESS         REF BY
           =====                   =======         ======
           vector<char>::operator[](unsigned int) const
                                   B844 
               calls direct
    -------------------------------------------------------------------------
<CODE> 1 (was CODE)
  Relative segment, address: B8DE - B8E9 (0xc bytes), align: 1
  Segment part 67.            Intra module refs:   GetCharSelBitCnt(char)
           ENTRY                   ADDRESS         REF BY
           =====                   =======         ======
           vector<int>::push_back(int)
                                   B8DE 
               calls direct
    -------------------------------------------------------------------------
<CODE> 1 (was CODE)
  Relative segment, address: A48E - A4C5 (0x38 bytes), align: 1
  Segment part 73.
           ENTRY                   ADDRESS         REF BY
           =====                   =======         ======
           Tool::SetBit(vector<char> &, int)
                                   A48E            DualPool::AddPageIntoPool(unsigned int, DataPage *, enum PoolIdentify) (dualpool)
               calls direct
    -------------------------------------------------------------------------
<CODE> 1 (was CODE)
  Relative segment, address: A01E - A05D (0x40 bytes), align: 1
  Segment part 75.
           ENTRY                   ADDRESS         REF BY
           =====                   =======         ======
           Tool::IsBitSet(vector<char> const &, int)
                                   A01E            DualPool::InitialPoolBorder() (dualpool)
               calls direct
    -------------------------------------------------------------------------
<CODE> 1 (was CODE)
  Relative segment, address: B502 - B515 (0x14 bytes), align: 1
  Segment part 77.            Intra module refs:   GetCharSelBitCnt(char)
           LOCAL                   ADDRESS         
           =====                   =======         
           CalcCharSelBitCnt(char)
                                   B502 
    -------------------------------------------------------------------------
<CODE> 1 (was CODE)
  Relative segment, address: 9B9A - 9BED (0x54 bytes), align: 1
  Segment part 78.            Intra module refs:   Tool::CountSelBitCnt(vector<char> const &)
           LOCAL                   ADDRESS         
           =====                   =======         
           GetCharSelBitCnt(char)
                                   9B9A 
               calls direct
    -------------------------------------------------------------------------
DATA16_Z
  Relative segment, address: 1C4A - 1C4A (0x1 bytes), align: 0
  Segment part 7.             Intra module refs:   GetCharSelBitCnt(char)
           LOCAL                   ADDRESS         
           =====                   =======         
           GetCharSelBitCnt(char)::static guard for dict
                                   1C4A 
    -------------------------------------------------------------------------
DATA16_Z
  Relative segment, address: 1C10 - 1C15 (0x6 bytes), align: 1
  Segment part 8.             Intra module refs:   GetCharSelBitCnt(char)
           LOCAL                   ADDRESS         
           =====                   =======         
           GetCharSelBitCnt(char)::dict
                                   1C10 
    -------------------------------------------------------------------------
<CODE> 1 (was CODE)
  Relative segment, address: A8FC - A929 (0x2e bytes), align: 1
  Segment part 79.
           ENTRY                   ADDRESS         REF BY
           =====                   =======         ======
           Tool::CountSelBitCnt(vector<char> const &)
                                   A8FC            DualPool::GetPoolSize(enum PoolIdentify) (dualpool)
               calls direct

    *************************************************************************

  FILE NAME : \\Mac\Home\work\ETL\Debug\Obj\uart0.r43
  PROGRAM MODULE, NAME : uart0

  SEGMENTS IN THE MODULE
  ======================
DATA16_AN
  Relative segment, address: 05C0 - 05C1 (0x2 bytes), align: 0
  Segment part 4. ROOT 
           ENTRY                   ADDRESS         REF BY
           =====                   =======         ======
           _A_UCA0CTLW0_L          05C0 
           LOCAL                   ADDRESS         
           =====                   =======         
           UCA0CTLW0               05C0 
           UCA0CTLW0_H             05C1 
           UCA0CTLW0_L             05C0 
    -------------------------------------------------------------------------
DATA16_AN
  Relative segment, address: 05C6 - 05C7 (0x2 bytes), align: 0
  Segment part 5. ROOT 
           ENTRY                   ADDRESS         REF BY
           =====                   =======         ======
           _A_UCA0BRW_L            05C6 
           LOCAL                   ADDRESS         
           =====                   =======         
           UCA0BRW                 05C6 
           UCA0BRW_H               05C7 
           UCA0BRW_L               05C6 
    -------------------------------------------------------------------------
DATA16_AN
  Relative segment, address: 05C8 - 05C8 (0x1 bytes), align: 0
  Segment part 6. ROOT 
           ENTRY                   ADDRESS         REF BY
           =====                   =======         ======
           UCA0MCTL                05C8 
    -------------------------------------------------------------------------
DATA16_AN
  Relative segment, address: 05CC - 05CC (0x1 bytes), align: 0
  Segment part 7. ROOT        Intra module refs:   UART0_RX_ISR()
           ENTRY                   ADDRESS         REF BY
           =====                   =======         ======
           UCA0RXBUF               05CC 
    -------------------------------------------------------------------------
DATA16_AN
  Relative segment, address: 05CE - 05CE (0x1 bytes), align: 0
  Segment part 8. ROOT 
           ENTRY                   ADDRESS         REF BY
           =====                   =======         ======
           UCA0TXBUF               05CE 
    -------------------------------------------------------------------------
DATA16_AN
  Relative segment, address: 05DC - 05DD (0x2 bytes), align: 0
  Segment part 9. ROOT 
           ENTRY                   ADDRESS         REF BY
           =====                   =======         ======
           _A_UCA0ICTL_L           05DC 
           LOCAL                   ADDRESS         
           =====                   =======         
           UCA0ICTL                05DC 
           UCA0ICTL_H              05DD 
           UCA0ICTL_L              05DC 
    -------------------------------------------------------------------------
DATA16_Z
  Relative segment, address: 1C16 - 1C17 (0x2 bytes), align: 1
  Segment part 14.            Intra module refs:   UART0_RX_ISR()
           ENTRY                   ADDRESS         REF BY
           =====                   =======         ======
           IsGetInput              1C16 
    -------------------------------------------------------------------------
DATA16_Z
  Relative segment, address: 1C4B - 1ECF (0x285 bytes), align: 0
  Segment part 16.            Intra module refs:   UART0_RX_ISR()
           ENTRY                   ADDRESS         REF BY
           =====                   =======         ======
           UART0_Rx_Buffer         1C4B 
    -------------------------------------------------------------------------
DATA16_Z
  Relative segment, address: 1C18 - 1C1D (0x6 bytes), align: 1
  Segment part 17.            Intra module refs:   UART0_RX_ISR()
           ENTRY                   ADDRESS         REF BY
           =====                   =======         ======
           UART0_Rx_BufLen         1C18 
    -------------------------------------------------------------------------
DATA16_Z
  Relative segment, address: 1C1E - 1C1F (0x2 bytes), align: 1
  Segment part 18.            Intra module refs:   UART0_RX_ISR()
           ENTRY                   ADDRESS         REF BY
           =====                   =======         ======
           UART0_Rx_INTIndex       1C1E 
    -------------------------------------------------------------------------
DATA16_Z
  Relative segment, address: 1C20 - 1C21 (0x2 bytes), align: 1
  Segment part 19.            Intra module refs:   UART0_RX_ISR()
           ENTRY                   ADDRESS         REF BY
           =====                   =======         ======
           UART0_Rx_INTLen         1C20 
    -------------------------------------------------------------------------
ISR_CODE
  Relative segment, address: 5FF6 - 613F (0x14a bytes), align: 1
  Segment part 46.            Intra module refs:   UART0_RX_ISR()::??INTVEC 114
           ENTRY                   ADDRESS         REF BY
           =====                   =======         ======
           UART0_RX_ISR()          5FF6 
               interrupt function
    -------------------------------------------------------------------------
INTVEC
  Common segment, address: FF80 - FFF3 (0x74 bytes), align: 1
  Segment part 10. ROOT 
           ENTRY                   ADDRESS         REF BY
           =====                   =======         ======
           UART0_RX_ISR()::??INTVEC 114
                                   FFF2 

    *************************************************************************

  FILE NAME : \\Mac\Home\work\ETL\Debug\Obj\uart1.r43
  PROGRAM MODULE, NAME : uart1

  SEGMENTS IN THE MODULE
  ======================
DATA16_AN
  Relative segment, address: 0244 - 0245 (0x2 bytes), align: 0
  Segment part 1. ROOT 
           ENTRY                   ADDRESS         REF BY
           =====                   =======         ======
           _A_PCDIR_L              0244 
           LOCAL                   ADDRESS         
           =====                   =======         
           PCDIR                   0244 
           PCDIR_H                 0245 
           PCDIR_L                 0244 
    -------------------------------------------------------------------------
DATA16_AN
  Relative segment, address: 0600 - 0601 (0x2 bytes), align: 0
  Segment part 3. ROOT 
           ENTRY                   ADDRESS         REF BY
           =====                   =======         ======
           _A_UCA1CTLW0_L          0600 
           LOCAL                   ADDRESS         
           =====                   =======         
           UCA1CTLW0               0600 
           UCA1CTLW0_H             0601 
           UCA1CTLW0_L             0600 
    -------------------------------------------------------------------------
DATA16_AN
  Relative segment, address: 0606 - 0607 (0x2 bytes), align: 0
  Segment part 4. ROOT 
           ENTRY                   ADDRESS         REF BY
           =====                   =======         ======
           _A_UCA1BRW_L            0606 
           LOCAL                   ADDRESS         
           =====                   =======         
           UCA1BRW                 0606 
           UCA1BRW_H               0607 
           UCA1BRW_L               0606 
    -------------------------------------------------------------------------
DATA16_AN
  Relative segment, address: 0608 - 0608 (0x1 bytes), align: 0
  Segment part 5. ROOT 
           ENTRY                   ADDRESS         REF BY
           =====                   =======         ======
           UCA1MCTL                0608 
    -------------------------------------------------------------------------
DATA16_AN
  Relative segment, address: 060C - 060C (0x1 bytes), align: 0
  Segment part 6. ROOT        Intra module refs:   UART1_RX_ISR()
           ENTRY                   ADDRESS         REF BY
           =====                   =======         ======
           UCA1RXBUF               060C 
    -------------------------------------------------------------------------
DATA16_AN
  Relative segment, address: 060E - 060E (0x1 bytes), align: 0
  Segment part 7. ROOT 
           ENTRY                   ADDRESS         REF BY
           =====                   =======         ======
           UCA1TXBUF               060E 
    -------------------------------------------------------------------------
DATA16_AN
  Relative segment, address: 061C - 061D (0x2 bytes), align: 0
  Segment part 8. ROOT 
           ENTRY                   ADDRESS         REF BY
           =====                   =======         ======
           _A_UCA1ICTL_L           061C 
           LOCAL                   ADDRESS         
           =====                   =======         
           UCA1ICTL                061C 
           UCA1ICTL_H              061D 
           UCA1ICTL_L              061C 
    -------------------------------------------------------------------------
DATA16_Z
  Relative segment, address: 1ED0 - 21EF (0x320 bytes), align: 0
  Segment part 13.            Intra module refs:   UART1_RX_ISR()
           ENTRY                   ADDRESS         REF BY
           =====                   =======         ======
           UART1_Rx_Buffer         1ED0 
    -------------------------------------------------------------------------
DATA16_Z
  Relative segment, address: 1C22 - 1C25 (0x4 bytes), align: 1
  Segment part 14.            Intra module refs:   Judge_Watermeter()
                                                   UART1_RX_ISR()
           ENTRY                   ADDRESS         REF BY
           =====                   =======         ======
           UART1_Rx_BufLen         1C22 
    -------------------------------------------------------------------------
DATA16_Z
  Relative segment, address: 1C26 - 1C27 (0x2 bytes), align: 1
  Segment part 15.            Intra module refs:   Judge_Watermeter()
                                                   UART1_RX_ISR()
           ENTRY                   ADDRESS         REF BY
           =====                   =======         ======
           UART1_Rx_INTIndex       1C26 
    -------------------------------------------------------------------------
DATA16_Z
  Relative segment, address: 1C28 - 1C29 (0x2 bytes), align: 1
  Segment part 16.            Intra module refs:   Judge_Watermeter()
                                                   UART1_RX_ISR()
           ENTRY                   ADDRESS         REF BY
           =====                   =======         ======
           UART1_Rx_INTLen         1C28 
    -------------------------------------------------------------------------
DATA16_Z
  Relative segment, address: 1C2A - 1C2B (0x2 bytes), align: 1
  Segment part 20.            Intra module refs:   UART1_RX_ISR()
           ENTRY                   ADDRESS         REF BY
           =====                   =======         ======
           s_uart1_type            1C2A 
    -------------------------------------------------------------------------
<CODE> 1 (was CODE)
  Relative segment, address: AA08 - AA31 (0x2a bytes), align: 1
  Segment part 31.            Intra module refs:   UART1_RX_ISR()
           ENTRY                   ADDRESS         REF BY
           =====                   =======         ======
           Judge_Watermeter()      AA08 
    -------------------------------------------------------------------------
ISR_CODE
  Relative segment, address: 6140 - 622B (0xec bytes), align: 1
  Segment part 32.            Intra module refs:   UART1_RX_ISR()::??INTVEC 92
           ENTRY                   ADDRESS         REF BY
           =====                   =======         ======
           UART1_RX_ISR()          6140 
               interrupt function
               calls direct
    -------------------------------------------------------------------------
INTVEC
  Common segment, address: FF80 - FFDD (0x5e bytes), align: 1
  Segment part 9. ROOT 
           ENTRY                   ADDRESS         REF BY
           =====                   =======         ======
           UART1_RX_ISR()::??INTVEC 92
                                   FFDC 

    *************************************************************************

  FILE NAME : \\Mac\Home\work\ETL\Debug\Obj\uart3.r43
  PROGRAM MODULE, NAME : uart3

  SEGMENTS IN THE MODULE
  ======================
DATA16_AN
  Relative segment, address: 028A - 028B (0x2 bytes), align: 0
  Segment part 2. ROOT        Intra module refs:   UART3_Open(int)
           ENTRY                   ADDRESS         REF BY
           =====                   =======         ======
           _A_PESEL_L              028A 
           LOCAL                   ADDRESS         
           =====                   =======         
           PESEL                   028A 
           PESEL_H                 028B 
           PESEL_L                 028A 
    -------------------------------------------------------------------------
DATA16_AN
  Relative segment, address: 0680 - 0681 (0x2 bytes), align: 0
  Segment part 3. ROOT        Intra module refs:   UART3_Open(int)
           ENTRY                   ADDRESS         REF BY
           =====                   =======         ======
           _A_UCA3CTLW0_L          0680 
           LOCAL                   ADDRESS         
           =====                   =======         
           UCA3CTLW0               0680 
           UCA3CTLW0_H             0681 
           UCA3CTLW0_L             0680 
    -------------------------------------------------------------------------
DATA16_AN
  Relative segment, address: 0686 - 0687 (0x2 bytes), align: 0
  Segment part 4. ROOT        Intra module refs:   UART3_Open(int)
           ENTRY                   ADDRESS         REF BY
           =====                   =======         ======
           _A_UCA3BRW_L            0686 
           LOCAL                   ADDRESS         
           =====                   =======         
           UCA3BRW                 0686 
           UCA3BRW_H               0687 
           UCA3BRW_L               0686 
    -------------------------------------------------------------------------
DATA16_AN
  Relative segment, address: 0688 - 0688 (0x1 bytes), align: 0
  Segment part 5. ROOT        Intra module refs:   UART3_Open(int)
           ENTRY                   ADDRESS         REF BY
           =====                   =======         ======
           UCA3MCTL                0688 
    -------------------------------------------------------------------------
DATA16_AN
  Relative segment, address: 068C - 068C (0x1 bytes), align: 0
  Segment part 6. ROOT        Intra module refs:   UART3_RX_ISR()
           ENTRY                   ADDRESS         REF BY
           =====                   =======         ======
           UCA3RXBUF               068C 
    -------------------------------------------------------------------------
DATA16_AN
  Relative segment, address: 068E - 068E (0x1 bytes), align: 0
  Segment part 7. ROOT        Intra module refs:   UART3_Send(char *, int, int)
                                                   putchar
           ENTRY                   ADDRESS         REF BY
           =====                   =======         ======
           UCA3TXBUF               068E 
    -------------------------------------------------------------------------
DATA16_AN
  Relative segment, address: 069C - 069D (0x2 bytes), align: 0
  Segment part 8. ROOT        Intra module refs:   UART3_Close()
                                                   UART3_Open(int)
                                                   UART3_Send(char *, int, int)
                                                   putchar
           ENTRY                   ADDRESS         REF BY
           =====                   =======         ======
           _A_UCA3ICTL_L           069C 
           LOCAL                   ADDRESS         
           =====                   =======         
           UCA3ICTL                069C 
           UCA3ICTL_H              069D 
           UCA3ICTL_L              069C 
    -------------------------------------------------------------------------
DATA16_Z
  Relative segment, address: 1C2C - 1C2D (0x2 bytes), align: 1
  Segment part 14.            Intra module refs:   UART3_ClearBuffer()
                                                   UART3_Send(char *, int, int)
           ENTRY                   ADDRESS         REF BY
           =====                   =======         ======
           UART3_Tx_Buf            1C2C 
    -------------------------------------------------------------------------
DATA16_Z
  Relative segment, address: 21F0 - 250F (0x320 bytes), align: 0
  Segment part 15.            Intra module refs:   UART3_RX_ISR()
           ENTRY                   ADDRESS         REF BY
           =====                   =======         ======
           UART3_Rx_Buffer         21F0 
    -------------------------------------------------------------------------
DATA16_Z
  Relative segment, address: 1C2E - 1C31 (0x4 bytes), align: 1
  Segment part 16.            Intra module refs:   UART3_ClearBuffer()
                                                   UART3_RX_ISR()
           ENTRY                   ADDRESS         REF BY
           =====                   =======         ======
           UART3_Rx_BufLen         1C2E 
    -------------------------------------------------------------------------
DATA16_Z
  Relative segment, address: 1C32 - 1C33 (0x2 bytes), align: 1
  Segment part 17.            Intra module refs:   UART3_ClearBuffer()
                                                   UART3_RX_ISR()
           ENTRY                   ADDRESS         REF BY
           =====                   =======         ======
           UART3_Rx_INTIndex       1C32 
    -------------------------------------------------------------------------
DATA16_Z
  Relative segment, address: 1C34 - 1C35 (0x2 bytes), align: 1
  Segment part 18.            Intra module refs:   UART3_ClearBuffer()
                                                   UART3_RX_ISR()
           ENTRY                   ADDRESS         REF BY
           =====                   =======         ======
           UART3_Rx_INTLen         1C34 
    -------------------------------------------------------------------------
DATA16_Z
  Relative segment, address: 1C36 - 1C37 (0x2 bytes), align: 1
  Segment part 19.            Intra module refs:   UART3_ClearBuffer()
           ENTRY                   ADDRESS         REF BY
           =====                   =======         ======
           UART3_Rx_RecvIndex      1C36 
    -------------------------------------------------------------------------
DATA16_Z
  Relative segment, address: 1C38 - 1C39 (0x2 bytes), align: 1
  Segment part 20.            Intra module refs:   UART3_ClearBuffer()
                                                   UART3_Send(char *, int, int)
           ENTRY                   ADDRESS         REF BY
           =====                   =======         ======
           UART3_Tx_Flag           1C38 
    -------------------------------------------------------------------------
DATA16_Z
  Relative segment, address: 1C3A - 1C3B (0x2 bytes), align: 1
  Segment part 21.            Intra module refs:   UART3_ClearBuffer()
                                                   UART3_Send(char *, int, int)
           ENTRY                   ADDRESS         REF BY
           =====                   =======         ======
           UART3_Tx_Len            1C3A 
    -------------------------------------------------------------------------
DATA16_Z
  Relative segment, address: 2510 - 2510 (0x1 bytes), align: 0
  Segment part 22.            Intra module refs:   UART3_RX_ISR()
           ENTRY                   ADDRESS         REF BY
           =====                   =======         ======
           Is_uart3_RX_INT         2510 
    -------------------------------------------------------------------------
DATA16_Z
  Relative segment, address: 1C3C - 1C3D (0x2 bytes), align: 1
  Segment part 23.            Intra module refs:   UART3_Open(int)
                                                   UART3_RX_ISR()
           LOCAL                   ADDRESS         
           =====                   =======         
           s_uart3_type            1C3C 
    -------------------------------------------------------------------------
<CODE> 1 (was CODE)
  Relative segment, address: A3E6 - A41D (0x38 bytes), align: 1
  Segment part 25.
           ENTRY                   ADDRESS         REF BY
           =====                   =======         ======
           UART3_Open(int)         A3E6            Console_Open() (Console)
               calls direct
    -------------------------------------------------------------------------
<CODE> 1 (was CODE)
  Relative segment, address: B936 - B93F (0xa bytes), align: 1
  Segment part 27.
           ENTRY                   ADDRESS         REF BY
           =====                   =======         ======
           UART3_Close()           B936            Console_Close() (Console)
               calls direct
    -------------------------------------------------------------------------
<CODE> 1 (was CODE)
  Relative segment, address: A714 - A745 (0x32 bytes), align: 1
  Segment part 24.            Intra module refs:   UART3_Close()
                                                   UART3_Open(int)
           ENTRY                   ADDRESS         REF BY
           =====                   =======         ======
           UART3_ClearBuffer()     A714 
               calls direct
    -------------------------------------------------------------------------
<CODE> 1 (was CODE)
  Relative segment, address: 8EC8 - 8F5B (0x94 bytes), align: 1
  Segment part 28.
           ENTRY                   ADDRESS         REF BY
           =====                   =======         ======
           UART3_Send(char *, int, int)
                                   8EC8            Console_WriteBytesln(char *, int) (Console)
                                                   Console_WriteString(char *) (Console)
                                                   Console_WriteStringln(char *) (Console)
               calls direct
    -------------------------------------------------------------------------
ISR_CODE
  Relative segment, address: 622C - 6311 (0xe6 bytes), align: 1
  Segment part 35.            Intra module refs:   UART3_RX_ISR()::??INTVEC 88
           ENTRY                   ADDRESS         REF BY
           =====                   =======         ======
           UART3_RX_ISR()          622C 
               interrupt function
    -------------------------------------------------------------------------
<CODE> 1 (was CODE)
  Relative segment, address: B8C6 - B8D1 (0xc bytes), align: 1
  Segment part 34.
           ENTRY                   ADDRESS         REF BY
           =====                   =======         ======
           putchar                 B8C6            _Prout (?xprout)
    -------------------------------------------------------------------------
INTVEC
  Common segment, address: FF80 - FFD9 (0x5a bytes), align: 1
  Segment part 9. ROOT 
           ENTRY                   ADDRESS         REF BY
           =====                   =======         ======
           UART3_RX_ISR()::??INTVEC 88
                                   FFD8 

    *************************************************************************

  FILE NAME : \\Mac\Home\work\ETL\Debug\Obj\uart_config.r43
    *************************************************************************

  FILE NAME : \\Mac\Home\work\ETL\Debug\Obj\ucs.r43
    *************************************************************************

  FILE NAME : \\Mac\Home\work\ETL\Debug\Obj\usci_a_spi.r43
    *************************************************************************

  FILE NAME : \\Mac\Home\work\ETL\Debug\Obj\usci_a_uart.r43
    *************************************************************************

  FILE NAME : \\Mac\Home\work\ETL\Debug\Obj\usci_b_i2c.r43
    *************************************************************************

  FILE NAME : \\Mac\Home\work\ETL\Debug\Obj\usci_b_spi.r43
    *************************************************************************

  FILE NAME : \\Mac\Home\work\ETL\Debug\Obj\wdt_a.r43
    *************************************************************************

  FILE NAME : C:\Program Files (x86)\IAR Systems\Embedded Workbench 8.0\430\lib\dlib\dl430xlsfn.r43
  LIBRARY MODULE, NAME : ?abort

  SEGMENTS IN THE MODULE
  ======================
<CODE> 1 (was CODE)
  Relative segment, address: B61E - B62D (0x10 bytes), align: 1
  Segment part 2.
           ENTRY                   ADDRESS         REF BY
           =====                   =======         ======
           abort                   B61E            _Nomemory() (?nomemory)
                                                   __aeabi_assert (?xassert)
               calls direct

    -------------------------------------------------------------------------
  LIBRARY MODULE, NAME : ?__dbg_break

  SEGMENTS IN THE MODULE
  ======================
<CODE> 1 (was CODE)
  Relative segment, address: BC82 - BC83 (0x2 bytes), align: 1
  Segment part 2.
           ENTRY                   ADDRESS         REF BY
           =====                   =======         ======
           __DebugBreak            BC82            __exit (?__exit)
                                                   __iar_ReportAssert (?_ReportAssert)
                                                   abort (?abort)

    -------------------------------------------------------------------------
  LIBRARY MODULE, NAME : ?_ReportAssert

  SEGMENTS IN THE MODULE
  ======================
<CODE> 1 (was CODE)
  Relative segment, address: A986 - A9B1 (0x2c bytes), align: 1
  Segment part 2.
           ENTRY                   ADDRESS         REF BY
           =====                   =======         ======
           __iar_ReportAssert      A986            __aeabi_assert (?xassert)
               calls direct

    -------------------------------------------------------------------------
  LIBRARY MODULE, NAME : ?__exit

  SEGMENTS IN THE MODULE
  ======================
<CODE> 1 (was CODE)
  Relative segment, address: B4B2 - B4C5 (0x14 bytes), align: 1
  Segment part 2.
           ENTRY                   ADDRESS         REF BY
           =====                   =======         ======
           __exit                  B4B2            Segment part 6 (?_exit)
                                                   _exit (?_exit)
                                                   abort (?abort)
               calls direct

    -------------------------------------------------------------------------
  LIBRARY MODULE, NAME : ?_exit

  SEGMENTS IN THE MODULE
  ======================
<CODE> 1 (was CODE)
  Relative segment, address: BC0A, align: 1
  Segment part 0.
           ENTRY                   ADDRESS         REF BY
           =====                   =======         ======
           _exit                   BC0A            exit (?exit)
    -------------------------------------------------------------------------
<CODE> 1 (was CODE)
  Relative segment, address: BC0A - BC0D (0x4 bytes), align: 1
  Segment part 6.             Intra module refs:   _exit

    -------------------------------------------------------------------------
  LIBRARY MODULE, NAME : ?delop_0

  SEGMENTS IN THE MODULE
  ======================
<CODE> 1 (was CODE)
  Relative segment, address: B9B8 - B9C1 (0xa bytes), align: 1
  Segment part 2.
           ENTRY                   ADDRESS         REF BY
           =====                   =======         ======
           operator delete(void *)
                                   B9B8            ETL::InitLpnToPpnTable() (etl)
                                                   _Allocator<void>::deallocate(void *) (duallru)
               calls direct

    -------------------------------------------------------------------------
  LIBRARY MODULE, NAME : ?div64i

  SEGMENTS IN THE MODULE
  ======================
<CODE> 1 (was CODE)
  Relative segment, address: 8C52 - 8CF3 (0xa2 bytes), align: 1
  Segment part 2.
           ENTRY                   ADDRESS         REF BY
           =====                   =======         ======
           _Div64u                 8C52            ETL::Format(unsigned char, unsigned int) (etl)
                                                   _LitobLargeNoMb (?xprintflarge_nomb)
    -------------------------------------------------------------------------
<CODE> 1 (was CODE)
  Relative segment, address: B1CE - B1E7 (0x1a bytes), align: 1
  Segment part 4.             Intra module refs:   _Div64u

    -------------------------------------------------------------------------
  LIBRARY MODULE, NAME : ?div

  SEGMENTS IN THE MODULE
  ======================
<CODE> 1 (was CODE)
  Relative segment, address: B432 - B447 (0x16 bytes), align: 1
  Segment part 0.
           ENTRY                   ADDRESS         REF BY
           =====                   =======         ======
           div                     B432            _GenldLargeNoMb (?xprintflarge_nomb)

    -------------------------------------------------------------------------
  LIBRARY MODULE, NAME : ?exit

  SEGMENTS IN THE MODULE
  ======================
<CODE> 1 (was CODE)
  Relative segment, address: BC1E - BC21 (0x4 bytes), align: 1
  Segment part 2.
           ENTRY                   ADDRESS         REF BY
           =====                   =======         ======
           exit                    BC1E            Segment part 27 (?cstart)
               calls direct

    -------------------------------------------------------------------------
  LIBRARY MODULE, NAME : ?Mul32fHw32

  SEGMENTS IN THE MODULE
  ======================
<CODE> 1 (was CODE)
  Relative segment, address: 7D92 - 7EA7 (0x116 bytes), align: 1
  Segment part 0.
           ENTRY                   ADDRESS         REF BY
           =====                   =======         ======
           ?Mul32fHw32             7D92            DualLRU::GetSubCacheHead() (duallru)
                                                   _LdtobLargeNoMb (?xprintflarge_nomb)
                                                   scale (?xprintflarge_nomb)

    -------------------------------------------------------------------------
  LIBRARY MODULE, NAME : ?Cast32f32i

  SEGMENTS IN THE MODULE
  ======================
<CODE> 1 (was CODE)
  Relative segment, address: 8FF0 - 9003 (0x14 bytes), align: 1
  Segment part 0.
           ENTRY                   ADDRESS         REF BY
           =====                   =======         ======
           _Cast32sto32f           8FF0            MathTool::Upper(float) (mathtool)
    -------------------------------------------------------------------------
<CODE> 1 (was CODE)
  Relative segment, address: 9004 - 9081 (0x7e bytes), align: 1
  Segment part 1.             Intra module refs:   _Cast32sto32f
           ENTRY                   ADDRESS         REF BY
           =====                   =======         ======
           _Cast32uto32f           9004            DualLRU::GetSubCacheHead() (duallru)
                                                   _LdtobLargeNoMb (?xprintflarge_nomb)

    -------------------------------------------------------------------------
  LIBRARY MODULE, NAME : _Cast32fto32u

  SEGMENTS IN THE MODULE
  ======================
<CODE> 1 (was CODE)
  Relative segment, address: B8D2 - B8DD (0xc bytes), align: 1
  Segment part 0.
           ENTRY                   ADDRESS         REF BY
           =====                   =======         ======
           _Cast32fto32u           B8D2            _LdtobLargeNoMb (?xprintflarge_nomb)

    -------------------------------------------------------------------------
  LIBRARY MODULE, NAME : _Cast32fto32s

  SEGMENTS IN THE MODULE
  ======================
<CODE> 1 (was CODE)
  Relative segment, address: A7DC - A80D (0x32 bytes), align: 1
  Segment part 0.
           ENTRY                   ADDRESS         REF BY
           =====                   =======         ======
           _Cast32fto32s           A7DC            MathTool::Upper(float) (mathtool)

    -------------------------------------------------------------------------
  LIBRARY MODULE, NAME : ?FLT_Extract

  SEGMENTS IN THE MODULE
  ======================
<CODE> 1 (was CODE)
  Relative segment, address: 9CD8 - 9D23 (0x4c bytes), align: 1
  Segment part 0.
           ENTRY                   ADDRESS         REF BY
           =====                   =======         ======
           ?FLT_Extract            9CD8            _Cast32fto32s (_Cast32fto32s)
                                                   _Cast32fto32u (_Cast32fto32u)

    -------------------------------------------------------------------------
  LIBRARY MODULE, NAME : ?FLT_EQ

  SEGMENTS IN THE MODULE
  ======================
<CODE> 1 (was CODE)
  Relative segment, address: A86E - A89D (0x30 bytes), align: 1
  Segment part 0.
           ENTRY                   ADDRESS         REF BY
           =====                   =======         ======
           ?FLT_EQ                 A86E            MathTool::Upper(float) (mathtool)

    -------------------------------------------------------------------------
  LIBRARY MODULE, NAME : ?FLT_LT

  SEGMENTS IN THE MODULE
  ======================
<CODE> 1 (was CODE)
  Relative segment, address: 9BEE - 9C3F (0x52 bytes), align: 1
  Segment part 0.
           ENTRY                   ADDRESS         REF BY
           =====                   =======         ======
           ?FLT_LT                 9BEE            _LdtobLargeNoMb (?xprintflarge_nomb)

    -------------------------------------------------------------------------
  LIBRARY MODULE, NAME : _Div32f

  SEGMENTS IN THE MODULE
  ======================
<CODE> 1 (was CODE)
  Relative segment, address: 7C62 - 7D91 (0x130 bytes), align: 1
  Segment part 0.
           ENTRY                   ADDRESS         REF BY
           =====                   =======         ======
           _Div32f                 7C62            _LdtobLargeNoMb (?xprintflarge_nomb)

    -------------------------------------------------------------------------
  LIBRARY MODULE, NAME : _Add32f

  SEGMENTS IN THE MODULE
  ======================
<CODE> 1 (was CODE)
  Relative segment, address: 7746 - 7749 (0x4 bytes), align: 1
  Segment part 0.
           ENTRY                   ADDRESS         REF BY
           =====                   =======         ======
           _Sub32f                 7746            _LdtobLargeNoMb (?xprintflarge_nomb)
    -------------------------------------------------------------------------
<CODE> 1 (was CODE)
  Relative segment, address: 774A - 78A9 (0x160 bytes), align: 1
  Segment part 1.             Intra module refs:   _Sub32f
           ENTRY                   ADDRESS         REF BY
           =====                   =======         ======
           _Add32f                 774A            MathTool::Upper(float) (mathtool)

    -------------------------------------------------------------------------
  LIBRARY MODULE, NAME : ?iutility

  SEGMENTS IN THE MODULE
  ======================
<CODE> 1 (was CODE)
  Relative segment, address: B6FE - B70D (0x10 bytes), align: 1
  Segment part 2.
           ENTRY                   ADDRESS         REF BY
           =====                   =======         ======
           __iar_Copy_a2           B6FE            _Uninit_copier<><_Ty, true>[with _Ty=unsigned short]::_Copy(unsigned short const *, unsigned short const *, unsigned short *) (tool)
    -------------------------------------------------------------------------
<CODE> 1 (was CODE)
  Relative segment, address: B55E - B56F (0x12 bytes), align: 1
  Segment part 5.
           ENTRY                   ADDRESS         REF BY
           =====                   =======         ======
           __iar_Copy_backward_a2
                                   B55E            _Backward_copier<><_Ty, true>[with _Ty=unsigned short]::_Copy(unsigned short const *, unsigned short const *, unsigned short *) (tool)

    -------------------------------------------------------------------------
  LIBRARY MODULE, NAME : ?DivMod816u

  SEGMENTS IN THE MODULE
  ======================
<CODE> 1 (was CODE)
  Relative segment, address: B2D2 - B2E9 (0x18 bytes), align: 1
  Segment part 1.
           ENTRY                   ADDRESS         REF BY
           =====                   =======         ======
           ?DivMod16u              B2D2            ?DivMod16s (?DivMod816s)
                                                   Utility_UintToStr4(unsigned int, char *) (common)
                                                   _Vector_value<_Alloc>::size_type _Vector_value<_Alloc>::_Capacity<_Sz>() const[with _Alloc=allocator<void>, _Sz=1] (dualpool)
                                                   _Vector_value<_Alloc>::size_type _Vector_value<_Alloc>::_Size<_Sz>() const[with _Alloc=allocator<void>, _Sz=1] (dualpool)
                                                   __data16_calloc (?xxmemxcalloc)

    -------------------------------------------------------------------------
  LIBRARY MODULE, NAME : ?DivMod816s

  SEGMENTS IN THE MODULE
  ======================
<CODE> 1 (was CODE)
  Relative segment, address: A80E - A83D (0x30 bytes), align: 1
  Segment part 1.
           ENTRY                   ADDRESS         REF BY
           =====                   =======         ======
           ?DivMod16s              A80E            ETL::InitialPhysicalPages() (etl)
                                                   Tool::IsBitSet(vector<char> const &, int) (tool)
                                                   Tool::SetBit(vector<char> &, int) (tool)
                                                   __aeabi_assert (?xassert)
                                                   div (?div)

    -------------------------------------------------------------------------
  LIBRARY MODULE, NAME : ?DivMod32u

  SEGMENTS IN THE MODULE
  ======================
<CODE> 1 (was CODE)
  Relative segment, address: A89E - A8CD (0x30 bytes), align: 1
  Segment part 0.
           ENTRY                   ADDRESS         REF BY
           =====                   =======         ======
           ?DivMod32u              A89E            ?DivMod32s (?DivMod32s)
                                                   _LdtobLargeNoMb (?xprintflarge_nomb)

    -------------------------------------------------------------------------
  LIBRARY MODULE, NAME : ?DivMod32s

  SEGMENTS IN THE MODULE
  ======================
<CODE> 1 (was CODE)
  Relative segment, address: 9FDE - A01D (0x40 bytes), align: 1
  Segment part 0.
           ENTRY                   ADDRESS         REF BY
           =====                   =======         ======
           ?DivMod32s              9FDE            _LdtobLargeNoMb (?xprintflarge_nomb)

    -------------------------------------------------------------------------
  LIBRARY MODULE, NAME : ?memchr

  SEGMENTS IN THE MODULE
  ======================
<CODE> 1 (was CODE)
  Relative segment, address: B49E - B4B1 (0x14 bytes), align: 1
  Segment part 2.
           ENTRY                   ADDRESS         REF BY
           =====                   =======         ======
           __iar_Memchr            B49E            _PrintfLargeNoMb (?xprintflarge_nomb)

    -------------------------------------------------------------------------
  LIBRARY MODULE, NAME : ?memcpy

  SEGMENTS IN THE MODULE
  ======================
<CODE> 1 (was CODE)
  Relative segment, address: B5B8 - B5C9 (0x12 bytes), align: 1
  Segment part 2.
           ENTRY                   ADDRESS         REF BY
           =====                   =======         ======
           memcpy                  B5B8            ETL::ReadDataPage(int, DataPage *) (etl)
                                                   ETL::WriteDataPage(int, DataPage *) (etl)
                                                   Segment part 12 (?xprintflarge_nomb)
                                                   _GenldLargeNoMb (?xprintflarge_nomb)
                                                   _LdtobLargeNoMb (?xprintflarge_nomb)
                                                   __data16_memcpy (?memzero)

    -------------------------------------------------------------------------
  LIBRARY MODULE, NAME : ?memmove

  SEGMENTS IN THE MODULE
  ======================
<CODE> 1 (was CODE)
  Relative segment, address: A6E0 - A713 (0x34 bytes), align: 1
  Segment part 2.
           ENTRY                   ADDRESS         REF BY
           =====                   =======         ======
           memmove                 A6E0            _Backward_copier<><_Ty, true>[with _Ty=unsigned char]::_Copy(unsigned char const *, unsigned char const *, unsigned char *) (dualpool)
                                                   _Copier<><_Ty, true>[with _Ty=unsigned char]::_Copy(unsigned char const *, unsigned char const *, unsigned char *) (dualpool)
                                                   _Uninit_copy(char const *, char const *, char *) (dualpool)

    -------------------------------------------------------------------------
  LIBRARY MODULE, NAME : ?ClearMemoryWords

  SEGMENTS IN THE MODULE
  ======================
<CODE> 1 (was CODE)
  Relative segment, address: B73E - B74D (0x10 bytes), align: 1
  Segment part 0.
           ENTRY                   ADDRESS         REF BY
           =====                   =======         ======
           ?ClearMemoryWords       B73E            ROM_WriteBytes_Page(unsigned long long, char const *, int) (rom)

    -------------------------------------------------------------------------
  LIBRARY MODULE, NAME : ?memzero

  SEGMENTS IN THE MODULE
  ======================
<CODE> 1 (was CODE)
  Relative segment, address: B74E - B75D (0x10 bytes), align: 1
  Segment part 2.
           ENTRY                   ADDRESS         REF BY
           =====                   =======         ======
           __data16_memzero        B74E            ?cstart_init_zero (?cstart)
                                                   __data16_calloc (?xxmemxcalloc)
    -------------------------------------------------------------------------
<CODE> 1 (was CODE)
  Relative segment, address: BC72 - BC75 (0x4 bytes), align: 1
  Segment part 3.
           ENTRY                   ADDRESS         REF BY
           =====                   =======         ======
           __data16_memcpy         BC72            ?cstart_init_copy (?cstart)
               calls direct

    -------------------------------------------------------------------------
  LIBRARY MODULE, NAME : ?Mul8Hw

  SEGMENTS IN THE MODULE
  ======================
<CODE> 1 (was CODE)
  Relative segment, address: AF0E - AF11 (0x4 bytes), align: 1
  Segment part 0.
           ENTRY                   ADDRESS         REF BY
           =====                   =======         ======
           ?Mul8Hw                 AF0E            _LitobLargeNoMb (?xprintflarge_nomb)
    -------------------------------------------------------------------------
<CODE> 1 (was CODE)
  Relative segment, address: AF12 - AF2D (0x1c bytes), align: 1
  Segment part 1.             Intra module refs:   ?Mul8Hw
           ENTRY                   ADDRESS         REF BY
           =====                   =======         ======
           ?Mul16Hw                AF12            __data16_calloc (?xxmemxcalloc)
           ?Mul16to32uHw           AF12 

    -------------------------------------------------------------------------
  LIBRARY MODULE, NAME : ?Mul16to32sHw

  SEGMENTS IN THE MODULE
  ======================
<CODE> 1 (was CODE)
  Relative segment, address: B086 - B0A1 (0x1c bytes), align: 1
  Segment part 0.
           ENTRY                   ADDRESS         REF BY
           =====                   =======         ======
           ?Mul16to32sHw           B086            _LdtobLargeNoMb (?xprintflarge_nomb)

    -------------------------------------------------------------------------
  LIBRARY MODULE, NAME : ?new

  SEGMENTS IN THE MODULE
  ======================
DATA16_Z
  Relative segment, address: 1C3E - 1C41 (0x4 bytes), align: 1
  Segment part 2.
           ENTRY                   ADDRESS         REF BY
           =====                   =======         ======
           __iar_New_hand          1C3E            operator new(size_t) (?newop_0)

    -------------------------------------------------------------------------
  LIBRARY MODULE, NAME : ?newop_0

  SEGMENTS IN THE MODULE
  ======================
<CODE> 1 (was CODE)
  Relative segment, address: AA86 - AAAF (0x2a bytes), align: 1
  Segment part 2.
           ENTRY                   ADDRESS         REF BY
           =====                   =======         ======
           operator new(size_t)    AA86            ETL::InitLpnToPpnTable() (etl)
                                                   ETL::InitialDualpool() (etl)
                                                   PageTable::PageTable(ETL *) (pagetable)
                                                   TestPageTable() (pagetable)
                                                   _Allocator<void>::allocate(unsigned int) (duallru)
               calls direct and indirect

    -------------------------------------------------------------------------
  LIBRARY MODULE, NAME : ?nomemory

  SEGMENTS IN THE MODULE
  ======================
<CODE> 1 (was CODE)
  Relative segment, address: BC3E - BC41 (0x4 bytes), align: 1
  Segment part 10.
           ENTRY                   ADDRESS         REF BY
           =====                   =======         ======
           _Nomemory()             BC3E            operator new(size_t) (?newop_0)
               calls direct

    -------------------------------------------------------------------------
  LIBRARY MODULE, NAME : ?printf

  SEGMENTS IN THE MODULE
  ======================
<CODE> 1 (was CODE)
  Relative segment, address: AB28 - AB4D (0x26 bytes), align: 1
  Segment part 2.
           ENTRY                   ADDRESS         REF BY
           =====                   =======         ======
           printf                  AB28            ETL::ETL(unsigned long long) (etl)
                                                   ETL::Format(unsigned char, unsigned int) (etl)
                                                   ETL::InitialDualpool() (etl)
                                                   Port_2() (main)
                                                   ROM_WriteBytes_Page(unsigned long long, char const *, int) (rom)
                                                   ROM_WriteBytes_Page_(unsigned long long, char const *, int) (rom)
                                                   TestPageTable() (pagetable)
                                                   Time::Show() (rtc)
                                                   UpdateDebugState() (main)
                                                   main (main)
               calls direct

    -------------------------------------------------------------------------
  LIBRARY MODULE, NAME : ?IndCallR11

  SEGMENTS IN THE MODULE
  ======================
<CODE> 1 (was CODE)
  Relative segment, address: BC36 - BC39 (0x4 bytes), align: 1
  Segment part 0.
           ENTRY                   ADDRESS         REF BY
           =====                   =======         ======
           ?IndCallR11             BC36            _PutcharLargeNoMb (?xprintflarge_nomb)

    -------------------------------------------------------------------------
  LIBRARY MODULE, NAME : ?strchr

  SEGMENTS IN THE MODULE
  ======================
<CODE> 1 (was CODE)
  Relative segment, address: B860 - B86D (0xe bytes), align: 1
  Segment part 2.
           ENTRY                   ADDRESS         REF BY
           =====                   =======         ======
           __iar_Strchr            B860            _PrintfLargeNoMb (?xprintflarge_nomb)

    -------------------------------------------------------------------------
  LIBRARY MODULE, NAME : ?strlen

  SEGMENTS IN THE MODULE
  ======================
<CODE> 1 (was CODE)
  Relative segment, address: B53A - B54B (0x12 bytes), align: 1
  Segment part 2.
           ENTRY                   ADDRESS         REF BY
           =====                   =======         ======
           strlen                  B53A            _PrintfLargeNoMb (?xprintflarge_nomb)

    -------------------------------------------------------------------------
  LIBRARY MODULE, NAME : ?strrchr

  SEGMENTS IN THE MODULE
  ======================
<CODE> 1 (was CODE)
  Relative segment, address: B570 - B581 (0x12 bytes), align: 1
  Segment part 2.
           ENTRY                   ADDRESS         REF BY
           =====                   =======         ======
           __iar_Strrchr           B570            strrchr(char const *, int) (etl)

    -------------------------------------------------------------------------
  LIBRARY MODULE, NAME : ?xassert

  SEGMENTS IN THE MODULE
  ======================
<CODE> 1 (was CODE)
  Relative segment, address: BC88 - BC89 (0x2 bytes), align: 1
  Segment part 2.
           ENTRY                   ADDRESS         REF BY
           =====                   =======         ======
           __iar_EmptyStepPoint    BC88            DataPage::DataPage(int) (dualpool)
                                                   ETL::InitialPhysicalPages() (etl)
                                                   ETL::ReadDataPage(int, DataPage *) (etl)
                                                   ETL::WriteDataPage(int, DataPage *) (etl)
    -------------------------------------------------------------------------
<CODE> 1 (was CODE)
  Relative segment, address: 993A - 9993 (0x5a bytes), align: 1
  Segment part 3.
           ENTRY                   ADDRESS         REF BY
           =====                   =======         ======
           __aeabi_assert          993A            DataPage::DataPage(int) (dualpool)
                                                   ETL::InitialPhysicalPages() (etl)
                                                   ETL::ReadDataPage(int, DataPage *) (etl)
                                                   ETL::WriteDataPage(int, DataPage *) (etl)
               calls direct

    -------------------------------------------------------------------------
  LIBRARY MODULE, NAME : ?xdunscal

  SEGMENTS IN THE MODULE
  ======================
<CODE> 1 (was CODE)
  Relative segment, address: 9DBC - 9E01 (0x46 bytes), align: 1
  Segment part 2.
           ENTRY                   ADDRESS         REF BY
           =====                   =======         ======
           __iar_Dunscale          9DBC            _LdtobLargeNoMb (?xprintflarge_nomb)

    -------------------------------------------------------------------------
  LIBRARY MODULE, NAME : ?xgetmemchunk

  SEGMENTS IN THE MODULE
  ======================
<CODE> 1 (was CODE)
  Relative segment, address: B04C - B069 (0x1e bytes), align: 1
  Segment part 3.
           ENTRY                   ADDRESS         REF BY
           =====                   =======         ======
           __data16_GetMemChunk    B04C            __data16_findmem (?xxmemxmalloc)
    -------------------------------------------------------------------------
DATA16_Z
  Relative segment, address: 1C42 - 1C43 (0x2 bytes), align: 1
  Segment part 2.             Intra module refs:   __data16_GetMemChunk
    -------------------------------------------------------------------------
DATA16_HEAP
  Relative segment, address: 2512, align: 1
  Segment part 4.

    -------------------------------------------------------------------------
  LIBRARY MODULE, NAME : ?xprintflarge_nomb

  SEGMENTS IN THE MODULE
  ======================
<CODE> 1 (was CODE)
  Relative segment, address: 6A60 - 6EF7 (0x498 bytes), align: 1
  Segment part 19.
           ENTRY                   ADDRESS         REF BY
           =====                   =======         ======
           _PrintfLargeNoMb        6A60            printf (?printf)
               calls direct
    -------------------------------------------------------------------------
<CODE> 1 (was CODE)
  Relative segment, address: AE46 - AE4D (0x8 bytes), align: 1
  Segment part 23.            Intra module refs:   Segment part 26
                                                   _PrintfLargeNoMb
    -------------------------------------------------------------------------
<CODE> 1 (was CODE)
  Relative segment, address: AE4E - AE55 (0x8 bytes), align: 1
  Segment part 24.            Intra module refs:   _PrintfLargeNoMb
    -------------------------------------------------------------------------
<CODE> 1 (was CODE)
  Relative segment, address: AE56 - AE61 (0xc bytes), align: 1
  Segment part 25.            Intra module refs:   Segment part 23
                                                   Segment part 24
    -------------------------------------------------------------------------
<CODE> 1 (was CODE)
  Relative segment, address: AE62 - AE67 (0x6 bytes), align: 1
  Segment part 26.            Intra module refs:   _PrintfLargeNoMb
    -------------------------------------------------------------------------
<CODE> 1 (was CODE)
  Relative segment, address: 6312 - 6395 (0x84 bytes), align: 1
  Segment part 8.             Intra module refs:   _PrintfLargeNoMb
           LOCAL                   ADDRESS         
           =====                   =======         
           LoadInt                 6312 
    -------------------------------------------------------------------------
<CODE> 1 (was CODE)
  Relative segment, address: 6396 - 63A3 (0xe bytes), align: 1
  Segment part 9.             Intra module refs:   LoadInt
    -------------------------------------------------------------------------
<CODE> 1 (was CODE)
  Relative segment, address: 63A4 - 65E1 (0x23e bytes), align: 1
  Segment part 10.            Intra module refs:   _LdtobLargeNoMb
           LOCAL                   ADDRESS         
           =====                   =======         
           _GenldLargeNoMb         63A4 
               calls direct
    -------------------------------------------------------------------------
<CODE> 1 (was CODE)
  Relative segment, address: 65E2 - 65F1 (0x10 bytes), align: 1
  Segment part 11.            Intra module refs:   _GenldLargeNoMb
    -------------------------------------------------------------------------
<CODE> 1 (was CODE)
  Relative segment, address: 65F2 - 65FF (0xe bytes), align: 1
  Segment part 12.            Intra module refs:   Segment part 11
                                                   _GenldLargeNoMb
    -------------------------------------------------------------------------
<CODE> 1 (was CODE)
  Relative segment, address: 6600 - 661D (0x1e bytes), align: 1
  Segment part 13.            Intra module refs:   _GenldLargeNoMb
    -------------------------------------------------------------------------
<CODE> 1 (was CODE)
  Relative segment, address: 661E - 665F (0x42 bytes), align: 1
  Segment part 14.            Intra module refs:   _LdtobLargeNoMb
           LOCAL                   ADDRESS         
           =====                   =======         
           scale                   661E 
               calls direct
    -------------------------------------------------------------------------
<CODE> 1 (was CODE)
  Relative segment, address: 6660 - 689D (0x23e bytes), align: 1
  Segment part 15.            Intra module refs:   _PrintfLargeNoMb
           LOCAL                   ADDRESS         
           =====                   =======         
           _LdtobLargeNoMb         6660 
               calls direct
    -------------------------------------------------------------------------
<CODE> 1 (was CODE)
  Relative segment, address: 689E - 6A43 (0x1a6 bytes), align: 1
  Segment part 16.            Intra module refs:   _PrintfLargeNoMb
           LOCAL                   ADDRESS         
           =====                   =======         
           _LitobLargeNoMb         689E 
               calls direct
    -------------------------------------------------------------------------
<CODE> 1 (was CODE)
  Relative segment, address: 6A44 - 6A55 (0x12 bytes), align: 1
  Segment part 17.            Intra module refs:   _LitobLargeNoMb
    -------------------------------------------------------------------------
<CODE> 1 (was CODE)
  Relative segment, address: 6A56 - 6A5F (0xa bytes), align: 1
  Segment part 18.            Intra module refs:   LoadInt
                                                   _LitobLargeNoMb
                                                   _PrintfLargeNoMb
    -------------------------------------------------------------------------
<CODE> 1 (was CODE)
  Relative segment, address: A56C - A5A1 (0x36 bytes), align: 1
  Segment part 28.            Intra module refs:   Segment part 23
           LOCAL                   ADDRESS         
           =====                   =======         
           pad                     A56C 
               calls direct
    -------------------------------------------------------------------------
<CODE> 1 (was CODE)
  Relative segment, address: AADA - AB01 (0x28 bytes), align: 1
  Segment part 29.            Intra module refs:   _PrintfLargeNoMb
                                                   _PutcharsLargeNoMb
           LOCAL                   ADDRESS         
           =====                   =======         
           _PutcharLargeNoMb       AADA 
               calls indirect
    -------------------------------------------------------------------------
<CODE> 1 (was CODE)
  Relative segment, address: A9B2 - A9DD (0x2c bytes), align: 1
  Segment part 30.            Intra module refs:   Segment part 24
                                                   pad
           LOCAL                   ADDRESS         
           =====                   =======         
           _PutcharsLargeNoMb      A9B2 
               calls direct
    -------------------------------------------------------------------------
<CODE> 1 (was CODE)
  Relative segment, address: B828 - B835 (0xe bytes), align: 1
  Segment part 20.            Intra module refs:   _PrintfLargeNoMb
    -------------------------------------------------------------------------
<CODE> 1 (was CODE)
  Relative segment, address: B92C - B935 (0xa bytes), align: 1
  Segment part 21.            Intra module refs:   _PrintfLargeNoMb
    -------------------------------------------------------------------------
<CODE> 1 (was CODE)
  Relative segment, address: B516 - B527 (0x12 bytes), align: 1
  Segment part 22.            Intra module refs:   _PrintfLargeNoMb
    -------------------------------------------------------------------------
<CODE> 1 (was CODE)
  Relative segment, address: A09E - A0DB (0x3e bytes), align: 1
  Segment part 27.            Intra module refs:   _PrintfLargeNoMb
    -------------------------------------------------------------------------
DATA16_C
  Relative segment, address: 5F3E - 5F44 (0x7 bytes), align: 0
  Segment part 2.             Intra module refs:   _PrintfLargeNoMb
    -------------------------------------------------------------------------
DATA16_C
  Relative segment, address: 5F45 - 5F48 (0x4 bytes), align: 0
  Segment part 3.             Intra module refs:   _LdtobLargeNoMb
    -------------------------------------------------------------------------
DATA16_C
  Relative segment, address: 5F49 - 5F4C (0x4 bytes), align: 0
  Segment part 4.             Intra module refs:   _LdtobLargeNoMb
    -------------------------------------------------------------------------
DATA16_C
  Relative segment, address: 5F4D - 5F50 (0x4 bytes), align: 0
  Segment part 5.             Intra module refs:   _LdtobLargeNoMb
    -------------------------------------------------------------------------
DATA16_C
  Relative segment, address: 5F51 - 5F54 (0x4 bytes), align: 0
  Segment part 6.             Intra module refs:   _LdtobLargeNoMb
    -------------------------------------------------------------------------
DATA16_C
  Relative segment, address: 5F55 - 5F56 (0x2 bytes), align: 0
  Segment part 7.             Intra module refs:   _GenldLargeNoMb

    -------------------------------------------------------------------------
  LIBRARY MODULE, NAME : ?xprout

  SEGMENTS IN THE MODULE
  ======================
<CODE> 1 (was CODE)
  Relative segment, address: B302 - B319 (0x18 bytes), align: 1
  Segment part 2.
           ENTRY                   ADDRESS         REF BY
           =====                   =======         ======
           _Prout                  B302            printf (?printf)
               calls direct

    -------------------------------------------------------------------------
  LIBRARY MODULE, NAME : ?xxmemxcalloc

  SEGMENTS IN THE MODULE
  ======================
<CODE> 1 (was CODE)
  Relative segment, address: A338 - A371 (0x3a bytes), align: 1
  Segment part 2.
           ENTRY                   ADDRESS         REF BY
           =====                   =======         ======
           __data16_calloc         A338            calloc (dualpool)
               calls direct

    -------------------------------------------------------------------------
  LIBRARY MODULE, NAME : ?xxmemxfree

  SEGMENTS IN THE MODULE
  ======================
<CODE> 1 (was CODE)
  Relative segment, address: 9192 - 9217 (0x86 bytes), align: 1
  Segment part 2.
           ENTRY                   ADDRESS         REF BY
           =====                   =======         ======
           __data16_free           9192            __data16_findmem (?xxmemxmalloc)
                                                   free (Console)
                                                   operator delete(void *) (?delop_0)

    -------------------------------------------------------------------------
  LIBRARY MODULE, NAME : ?xxmemxmalloc

  SEGMENTS IN THE MODULE
  ======================
DATA16_Z
  Relative segment, address: 1C44 - 1C47 (0x4 bytes), align: 1
  Segment part 2.             Intra module refs:   __data16_findmem
                                                   __data16_malloc
           ENTRY                   ADDRESS         REF BY
           =====                   =======         ======
           __data16_Aldata         1C44            __data16_free (?xxmemxfree)
    -------------------------------------------------------------------------
<CODE> 1 (was CODE)
  Relative segment, address: 9582 - 95E5 (0x64 bytes), align: 1
  Segment part 3.             Intra module refs:   __data16_malloc
           LOCAL                   ADDRESS         
           =====                   =======         
           __data16_findmem        9582 
               calls direct
    -------------------------------------------------------------------------
<CODE> 1 (was CODE)
  Relative segment, address: 936C - 93D9 (0x6e bytes), align: 1
  Segment part 4.
           ENTRY                   ADDRESS         REF BY
           =====                   =======         ======
           __data16_malloc         936C            __data16_calloc (?xxmemxcalloc)
                                                   operator new(size_t) (?newop_0)
               calls direct




                ****************************************
                *                                      *
                *      SEGMENTS IN ADDRESS ORDER       *
                *                                      *
                ****************************************


SEGMENT              SPACE    START ADDRESS   END ADDRESS     SIZE  TYPE  ALIGN
=======              =====    =============   ===========     ====  ====  =====
DATA16_AN                              0100 - 0103               4   rel    0
                                       0120 - 0121               2 
                                       0124 - 0127               4 
                                       012C - 012D               2 
                                       015C - 015D               2 
                                       0168 - 016F               8 
                                       0200 - 0205               6 
                                       020A - 020B               2 
                                       021A - 021D               4 
                                       0220 - 0225               6 
                                       022A - 022B               2 
                                       0244 - 0245               2 
                                       024A - 024B               2 
                                       0262 - 0265               4 
                                       026A - 026B               2 
                                       0280 - 0285               6 
                                       028A - 028B               2 
                                       02A4 - 02A5               2 
                                       0340 - 0343               4 
                                       0352 - 0353               2 
                                       0380 - 0383               4 
                                       0392 - 0393               2 
                                       03C0 - 03C7               8 
                                       03D2 - 03D7               6 
                                       03EE - 03EF               2 
                                       05C0 - 05C1               2 
                                       05C6 - 05C8               3 
                                       05CC - 05CC               1 
                                       05CE - 05CE               1 
                                       05DC - 05DD               2 
                                       0600 - 0601               2 
                                       0606 - 0608               3 
                                       060C - 060C               1 
                                       060E - 060E               1 
                                       061C - 061D               2 
                                       0680 - 0681               2 
                                       0686 - 0688               3 
                                       068C - 068C               1 
                                       068E - 068E               1 
                                       069C - 069D               2 
DATA16_I                               1C00 - 1C03               4   rel    1
DATA16_Z                               1C04 - 2510             90D   rel    1
DATA16_HEAP                            2512 - 4451            1F40   rel    1
DATA20_I                                  4452                       rel    1
DATA20_Z                                  4452                       rel    1
DATA20_N                                  4452                       rel    1
CODE_I                                    4452                       rel    1
CSTACK                                 4C60 - 5BFF             FA0   rel    1
DATA16_C                               5C00 - 5F56             357   rel    1
DATA16_ID                              5F58 - 5F5B               4   rel    1
CSTART                                 5F5C - 5F89              2E   rel    1
ISR_CODE                               5F8A - 6311             388   rel    1
<CODE> 1                               6312 - BCAD            599C   rel    1
CODE_ID                                   BCAE                       rel    1
DATA20_ID                                 BCAE                       rel    1
DATA20_C                                  BCAE                       rel    1
INTVEC                                 FF80 - FFF9              7A   com    1
RESET                                  FFFE - FFFF               2   rel    1

                ****************************************
                *                                      *
                *        END OF CROSS REFERENCE        *
                *                                      *
                ****************************************

 24 014 bytes of CODE  memory
 14 321 bytes of DATA  memory (+ 117 absolute )
    859 bytes of CONST memory

Errors: none
Warnings: 1

