Warning[w6]: Type conflict for external/entry "BleDriverInstall", in module uart_config against external/entry in module blueTooth; function return types are different; different basic types
  /* In module uart_config: */
  /* K&R Function, args 0, attr 0 */
  int (__cc_version2 BleDriverInstall)();
  /* In module blueTooth: */
  /* K&R Function, args 0, attr 0 */
  void (__cc_version2 BleDriverInstall)();
Warning[w6]: Type conflict for external/entry "ble_waiting_query", in module uart_config against external/entry in module blueTooth; function return types are different; different basic types
  /* In module uart_config: */
  /* K&R Function, args 0, attr 0 */
  int (__cc_version2 ble_waiting_query)();
  /* In module blueTooth: */
  /* K&R Function, args 0, attr 0 */
  void (__cc_version2 ble_waiting_query)();
Warning[w6]: Type conflict for external/entry "camera", in module message against external/entry in module camera; function return types are different; different basic types
  /* In module message: */
  /* K&R Function, args 0, attr 0 */
  int (__cc_version2 camera)();
  /* In module camera: */
  /* K&R Function, args 0, attr 0 */
  void (__cc_version2 camera)();
Warning[w6]: Type conflict for external/entry "System_Delayms", in module lowpower against external/entry in module common; prototyped function vs K&R function
  /* In module lowpower: */
  /* K&R Function, args 0, attr 0 */
  int (__cc_version2 System_Delayms)();
  /* In module common: */
  /* Function, args 1, attr 0 */
  void (__cc_version2 System_Delayms)(unsigned int);
Warning[w6]: Type conflict for external/entry "Read_Flash_Segment", in module hydrologycommand against external/entry in module flash; prototyped function vs K&R function
  /* In module hydrologycommand: */
  /* K&R Function, args 0, attr 0 */
  int (__cc_version2 Read_Flash_Segment)();
  /* In module flash: */
  /* Function, args 3, attr 0 */
  void (__cc_version2 Read_Flash_Segment)(unsigned long,
                                          char *,
                                          int);
Warning[w6]: Type conflict for external/entry "Write_Flash_Segment", in module hydrologycommand against external/entry in module flash; prototyped function vs K&R function
  /* In module hydrologycommand: */
  /* K&R Function, args 0, attr 0 */
  int (__cc_version2 Write_Flash_Segment)();
  /* In module flash: */
  /* Function, args 3, attr 0 */
  void (__cc_version2 Write_Flash_Segment)(unsigned long,
                                           char *,
                                           int);
Warning[w6]: Type conflict for external/entry "GSM_Close", in module main against external/entry in module GSM; prototyped function vs K&R function
  /* In module main: */
  /* K&R Function, args 0, attr 0 */
  int (__cc_version2 GSM_Close)();
  /* In module GSM: */
  /* Function, args 1, attr 0 */
  int (__cc_version2 GSM_Close)(int);
Warning[w6]: Type conflict for external/entry "GSM_Process", in module main against external/entry in module GSM; prototyped function vs K&R function
  /* In module main: */
  /* K&R Function, args 0, attr 0 */
  int (__cc_version2 GSM_Process)();
  /* In module GSM: */
  /* Function, args 2, attr 0 */
  int (__cc_version2 GSM_Process)(int,
                                  int);
Warning[w6]: Type conflict for external/entry "GSM_SendMsgTxt", in module main against external/entry in module GSM; prototyped function vs K&R function
  /* In module main: */
  /* K&R Function, args 0, attr 0 */
  int (__cc_version2 GSM_SendMsgTxt)();
  /* In module GSM: */
  /* Function, args 3, attr 0 */
  int (__cc_version2 GSM_SendMsgTxt)(char *,
                                     char *,
                                     int);
Warning[w6]: Type conflict for external/entry "Led1_WorkLightOff", in module GTM900C against external/entry in module led; function return types are different; different basic types
  /* In module GTM900C: */
  /* K&R Function, args 0, attr 0 */
  int (__cc_version2 Led1_WorkLightOff)();
  /* In module led: */
  /* K&R Function, args 0, attr 0 */
  void (__cc_version2 Led1_WorkLightOff)();
Warning[w6]: Type conflict for external/entry "Led_OffAll", in module adc against external/entry in module led; function return types are different; different basic types
  /* In module adc: */
  /* K&R Function, args 0, attr 0 */
  int (__cc_version2 Led_OffAll)();
  /* In module led: */
  /* K&R Function, args 0, attr 0 */
  void (__cc_version2 Led_OffAll)();
Warning[w6]: Type conflict for external/entry "Hydrology_ReadDataPacketCount", in module main against external/entry in module message; prototyped function vs K&R function
  /* In module main: */
  /* K&R Function, args 0, attr 0 */
  int (__cc_version2 Hydrology_ReadDataPacketCount)();
  /* In module message: */
  /* Function, args 1, attr 0 */
  int (__cc_version2 Hydrology_ReadDataPacketCount)(int *);
Warning[w6]: Type conflict for external/entry "Hydrology_ReadEndIdx", in module main against external/entry in module message; prototyped function vs K&R function
  /* In module main: */
  /* K&R Function, args 0, attr 0 */
  int (__cc_version2 Hydrology_ReadEndIdx)();
  /* In module message: */
  /* Function, args 1, attr 0 */
  int (__cc_version2 Hydrology_ReadEndIdx)(int *);
Warning[w6]: Type conflict for external/entry "Hydrology_ReadStartIdx", in module main against external/entry in module message; prototyped function vs K&R function
  /* In module main: */
  /* K&R Function, args 0, attr 0 */
  int (__cc_version2 Hydrology_ReadStartIdx)();
  /* In module message: */
  /* Function, args 1, attr 0 */
  int (__cc_version2 Hydrology_ReadStartIdx)(int *);
Warning[w6]: Type conflict for external/entry "Hydrology_SetDataPacketCount", in module main against external/entry in module message; prototyped function vs K&R function
  /* In module main: */
  /* K&R Function, args 0, attr 0 */
  int (__cc_version2 Hydrology_SetDataPacketCount)();
  /* In module message: */
  /* Function, args 1, attr 0 */
  int (__cc_version2 Hydrology_SetDataPacketCount)(int);
Warning[w6]: Type conflict for external/entry "Hydrology_SetStartIdx", in module main against external/entry in module message; prototyped function vs K&R function
  /* In module main: */
  /* K&R Function, args 0, attr 0 */
  int (__cc_version2 Hydrology_SetStartIdx)();
  /* In module message: */
  /* Function, args 1, attr 0 */
  int (__cc_version2 Hydrology_SetStartIdx)(int);
Warning[w6]: Type conflict for external/entry "mallocElement", in module hydrologytask against external/entry in module message; prototyped function vs K&R function
  /* In module hydrologytask: */
  /* K&R Function, args 0, attr 0 */
  int (__cc_version2 mallocElement)();
  /* In module message: */
  /* Function, args 4, attr 0 */
  int (__cc_version2 mallocElement)(char,
                                    char,
                                    char,
                                    hydrologyElement *);
    typedef struct tagHydrologyElement hydrologyElement;
Warning[w6]: Type conflict for external/entry "_BCDtoHEX", in module hydrologycommand against external/entry in module rtc; prototyped function vs K&R function
  /* In module hydrologycommand: */
  /* K&R Function, args 0, attr 0 */
  int (__cc_version2 _BCDtoHEX)();
  /* In module rtc: */
  /* Function, args 1, attr 0 */
  char (__cc_version2 _BCDtoHEX)(char);
Warning[w6]: Type conflict for external/entry "_BCDtoHEX", in module ec200 against external/entry in module rtc; prototyped function vs K&R function
  /* In module ec200: */
  /* K&R Function, args 0, attr 0 */
  int (__cc_version2 _BCDtoHEX)();
  /* In module rtc: */
  /* Function, args 1, attr 0 */
  char (__cc_version2 _BCDtoHEX)(char);
Warning[w6]: Type conflict for external/entry "led_flash_init", in module adc against external/entry in module sys_status; prototyped function vs K&R function
  /* In module adc: */
  /* K&R Function, args 0, attr 0 */
  int (__cc_version2 led_flash_init)();
  /* In module sys_status: */
  /* Function, args 1, attr 0 */
  void (__cc_version2 led_flash_init)(unsigned int);
Warning[w6]: Type conflict for external/entry "sys_error_status", in module timer against external/entry in module sys_status; prototyped function vs K&R function
  /* In module timer: */
  /* K&R Function, args 0, attr 0 */
  int (__cc_version2 sys_error_status)();
  /* In module sys_status: */
  /* Function, args 1, attr 0 */
  void (__cc_version2 sys_error_status)(unsigned int);
Warning[w6]: Type conflict for external/entry "Timer0_A0_Clear", in module adc against external/entry in module timer; function return types are different; different basic types
  /* In module adc: */
  /* K&R Function, args 0, attr 0 */
  int (__cc_version2 Timer0_A0_Clear)();
  /* In module timer: */
  /* K&R Function, args 0, attr 0 */
  void (__cc_version2 Timer0_A0_Clear)();
Warning[w6]: Type conflict for external/entry "Timer0_A0_Enable", in module adc against external/entry in module timer; function return types are different; different basic types
  /* In module adc: */
  /* K&R Function, args 0, attr 0 */
  int (__cc_version2 Timer0_A0_Enable)();
  /* In module timer: */
  /* K&R Function, args 0, attr 0 */
  void (__cc_version2 Timer0_A0_Enable)();
Warning[w6]: Type conflict for external/entry "Timer0_A0_Init", in module main against external/entry in module timer; prototyped function vs K&R function
  /* In module main: */
  /* K&R Function, args 0, attr 0 */
  int (__cc_version2 Timer0_A0_Init)();
  /* In module timer: */
  /* Function, args 1, attr 0 */
  void (__cc_version2 Timer0_A0_Init)(unsigned int);
Warning[w6]: Type conflict for external/entry "Timer1_A0_Init", in module main against external/entry in module timer; prototyped function vs K&R function
  /* In module main: */
  /* K&R Function, args 0, attr 0 */
  int (__cc_version2 Timer1_A0_Init)();
  /* In module timer: */
  /* Function, args 1, attr 0 */
  void (__cc_version2 Timer1_A0_Init)(unsigned int);
Warning[w6]: Type conflict for external/entry "sys_errorcode_runcode", in module uart_config against external/entry in module timer; different basic types
  /* In module uart_config: */
  bool sys_errorcode_runcode;
    typedef bool bool;
  /* In module timer: */
  unsigned int sys_errorcode_runcode;
Warning[w6]: Type conflict for external/entry "Judge_Watermeter", in module uart3 against external/entry in module uart1; function return types are different; different basic types
  /* In module uart3: */
  /* K&R Function, args 0, attr 0 */
  int (__cc_version2 Judge_Watermeter)();
  /* In module uart1: */
  /* K&R Function, args 0, attr 0 */
  void (__cc_version2 Judge_Watermeter)();
Warning[w6]: Type conflict for external/entry "printf", in module ioDev against external/entry in module ?printf; prototyped function vs K&R function
  /* In module ioDev: */
  /* K&R Function, args 0, attr 0 */
  int (__cc_version2 printf)();
  /* In module ?printf: */
  /* Function, args 2, attr 0 */
  int (__cc_version2 printf)(char const *,
                             ...);
################################################################################
#                                                                              #
#      IAR Universal Linker V6.5.4.100                                         #
#                                                                              #
#           Link time     =  10/Oct/2020  10:53:13                             #
#           Target CPU    =  MSP430                                            #
#           List file     =  \\Mac\Home\work\ETL\Debug\List\RTUtest_GP.map     #
#           Output file 1 =  \\Mac\Home\work\ETL\Debug\Exe\RTUtest_GP.d43      #
#                            Format: ubrof10                                   #
#                            UBROF version 10.0.6                              #
#                            Using library modules for C-SPY (-rt)             #
#           Command line  =  -f C:\Users\83797\AppData\Local\Temp\EW5500.tmp   #
#                            (\\Mac\Home\work\ETL\Debug\Obj\adc.r43            #
#                            \\Mac\Home\work\ETL\Debug\Obj\adc10_a.r43         #
#                            \\Mac\Home\work\ETL\Debug\Obj\adc12_a.r43         #
#                            \\Mac\Home\work\ETL\Debug\Obj\aes.r43             #
#                            \\Mac\Home\work\ETL\Debug\Obj\battbak.r43         #
#                            \\Mac\Home\work\ETL\Debug\Obj\BC95.r43            #
#                            \\Mac\Home\work\ETL\Debug\Obj\blueTooth.r43       #
#                            \\Mac\Home\work\ETL\Debug\Obj\camera.r43          #
#                            \\Mac\Home\work\ETL\Debug\Obj\common.r43          #
#                            \\Mac\Home\work\ETL\Debug\Obj\comp_b.r43          #
#                            \\Mac\Home\work\ETL\Debug\Obj\Console.r43         #
#                            \\Mac\Home\work\ETL\Debug\Obj\crc.r43             #
#                            \\Mac\Home\work\ETL\Debug\Obj\cstartup.r43        #
#                            \\Mac\Home\work\ETL\Debug\Obj\ctsd16.r43          #
#                            \\Mac\Home\work\ETL\Debug\Obj\dac12_a.r43         #
#                            \\Mac\Home\work\ETL\Debug\Obj\debug.r43           #
#                            \\Mac\Home\work\ETL\Debug\Obj\dma.r43             #
#                            \\Mac\Home\work\ETL\Debug\Obj\ec200.r43           #
#                            \\Mac\Home\work\ETL\Debug\Obj\eusci_a_spi.r43     #
#                            \\Mac\Home\work\ETL\Debug\Obj\eusci_a_uart.r43    #
#                            \\Mac\Home\work\ETL\Debug\Obj\eusci_b_i2c.r43     #
#                            \\Mac\Home\work\ETL\Debug\Obj\eusci_b_spi.r43     #
#                            \\Mac\Home\work\ETL\Debug\Obj\flash.r43           #
#                            \\Mac\Home\work\ETL\Debug\Obj\flashctl.r43        #
#                            \\Mac\Home\work\ETL\Debug\Obj\flow.r43            #
#                            \\Mac\Home\work\ETL\Debug\Obj\gpio.r43            #
#                            \\Mac\Home\work\ETL\Debug\Obj\GSM.r43             #
#                            \\Mac\Home\work\ETL\Debug\Obj\GTM900C.r43         #
#                            \\Mac\Home\work\ETL\Debug\Obj\hydrologycommand.r4 #
#                            3                                                 #
#                            \\Mac\Home\work\ETL\Debug\Obj\hydrologytask.r43   #
#                            \\Mac\Home\work\ETL\Debug\Obj\ioDev.r43           #
#                            \\Mac\Home\work\ETL\Debug\Obj\lcd_b.r43           #
#                            \\Mac\Home\work\ETL\Debug\Obj\lcd_c.r43           #
#                            \\Mac\Home\work\ETL\Debug\Obj\ldopwr.r43          #
#                            \\Mac\Home\work\ETL\Debug\Obj\led.r43             #
#                            \\Mac\Home\work\ETL\Debug\Obj\lowpower.r43        #
#                            \\Mac\Home\work\ETL\Debug\Obj\main.r43            #
#                            \\Mac\Home\work\ETL\Debug\Obj\message.r43         #
#                            \\Mac\Home\work\ETL\Debug\Obj\mpy32.r43           #
#                            \\Mac\Home\work\ETL\Debug\Obj\oa.r43              #
#                            \\Mac\Home\work\ETL\Debug\Obj\packet.r43          #
#                            \\Mac\Home\work\ETL\Debug\Obj\pmap.r43            #
#                            \\Mac\Home\work\ETL\Debug\Obj\pmm.r43             #
#                            \\Mac\Home\work\ETL\Debug\Obj\ram.r43             #
#                            \\Mac\Home\work\ETL\Debug\Obj\ref.r43             #
#                            "\\Mac\Home\work\ETL\Debug\Obj\reportbinding .r43 #
#                            "                                                 #
#                            \\Mac\Home\work\ETL\Debug\Obj\rom.r43             #
#                            \\Mac\Home\work\ETL\Debug\Obj\rtc.r43             #
#                            \\Mac\Home\work\ETL\Debug\Obj\rtc_a.r43           #
#                            \\Mac\Home\work\ETL\Debug\Obj\rtc_b.r43           #
#                            \\Mac\Home\work\ETL\Debug\Obj\rtc_c.r43           #
#                            \\Mac\Home\work\ETL\Debug\Obj\Sampler.r43         #
#                            \\Mac\Home\work\ETL\Debug\Obj\sd24_b.r43          #
#                            \\Mac\Home\work\ETL\Debug\Obj\sfr.r43             #
#                            \\Mac\Home\work\ETL\Debug\Obj\store.r43           #
#                            \\Mac\Home\work\ETL\Debug\Obj\sys_status.r43      #
#                            \\Mac\Home\work\ETL\Debug\Obj\sysctl.r43          #
#                            \\Mac\Home\work\ETL\Debug\Obj\tec.r43             #
#                            \\Mac\Home\work\ETL\Debug\Obj\timer.r43           #
#                            \\Mac\Home\work\ETL\Debug\Obj\timer_a.r43         #
#                            \\Mac\Home\work\ETL\Debug\Obj\timer_b.r43         #
#                            \\Mac\Home\work\ETL\Debug\Obj\timer_d.r43         #
#                            \\Mac\Home\work\ETL\Debug\Obj\tlv.r43             #
#                            \\Mac\Home\work\ETL\Debug\Obj\uart0.r43           #
#                            \\Mac\Home\work\ETL\Debug\Obj\uart1.r43           #
#                            \\Mac\Home\work\ETL\Debug\Obj\uart2.r43           #
#                            \\Mac\Home\work\ETL\Debug\Obj\uart3.r43           #
#                            \\Mac\Home\work\ETL\Debug\Obj\uart_config.r43     #
#                            \\Mac\Home\work\ETL\Debug\Obj\ucs.r43             #
#                            \\Mac\Home\work\ETL\Debug\Obj\usci_a_spi.r43      #
#                            \\Mac\Home\work\ETL\Debug\Obj\usci_a_uart.r43     #
#                            \\Mac\Home\work\ETL\Debug\Obj\usci_b_i2c.r43      #
#                            \\Mac\Home\work\ETL\Debug\Obj\usci_b_spi.r43      #
#                            \\Mac\Home\work\ETL\Debug\Obj\wdt_a.r43           #
#                            \\Mac\Home\work\ETL\Debug\Obj\wifi_config.r43     #
#                            -o \\Mac\Home\work\ETL\Debug\Exe\RTUtest_GP.d43   #
#                            -l                                                #
#                            \\Mac\Home\work\ETL\Debug\List\RTUtest_GP.map     #
#                            -xms                                              #
#                            "-IC:\Program Files (x86)\IAR Systems\Embedded Wo #
#                            rkbench 8.0\430\LIB\"                             #
#                            -f                                                #
#                            "C:\Program Files (x86)\IAR Systems\Embedded Work #
#                            bench 8.0\430\config\linker\lnk430f5438a.xcl"     #
#                            (-cmsp430 -D?CPU30_OFFSET=2 -QCODE_I=CODE_ID      #
#                            -QTLS16_I=TLS16_ID -D__iar_HWMUL=4C0              #
#                            -Z(CONST)INFO=1800-19FF                           #
#                            -Z(CONST)INFOA=1980-19FF                          #
#                            -Z(CONST)INFOB=1900-197F                          #
#                            -Z(CONST)INFOC=1880-18FF                          #
#                            -Z(CONST)INFOD=1800-187F                          #
#                            -Z(DATA)DATA16_I,DATA16_Z,DATA16_N,TLS16_I=1C00-5 #
#                            BFF                                               #
#                            -Z(DATA)DATA16_HEAP+_DATA16_HEAP_SIZE             #
#                            -Z(DATA)CODE_I                                    #
#                            -Z(DATA)DATA20_I,DATA20_Z,DATA20_N,DATA20_HEAP+_D #
#                            ATA20_HEAP_SIZE                                   #
#                            -Z(DATA)CSTACK+_STACK_SIZE#                       #
#                            -Z(CONST)DATA16_C,DATA16_ID,TLS16_ID,DIFUNCT,CHEC #
#                            KSUM=5C00-FF7F                                    #
#                            -Z(CODE)CSTART,ISR_CODE,CODE16=5C00-FF7F          #
#                            -P(CODE)CODE=5C00-FF7F,10000-45BFF                #
#                            -Z(CONST)DATA20_C,DATA20_ID,CODE_ID=5C00-FF7F,100 #
#                            40-45BFF                                          #
#                            -Z(CODE)INTVEC=FF80-FFFF                          #
#                            -Z(CODE)RESET=FFFE-FFFF) -f                       #
#                            "C:\Program Files (x86)\IAR Systems\Embedded Work #
#                            bench 8.0\430\config\linker\multiplier32.xcl"     #
#                            (-e?Mul8Hw=?Mul8 -e?Mul16Hw=?Mul16                #
#                            -e?Mul16to32uHw=?Mul16to32u                       #
#                            -e?Mul16to32sHw=?Mul16to32s -e?Mul32Hw32=?Mul32   #
#                            -e?Mul64Hw32=_Mul64i                              #
#                            -e?Mul32u32uto64iHw32=_Mul32u32uto64i             #
#                            -e?Mul32fHw32=_Mul32f                             #
#                            -e_Mul64fHw32Ptr=_Mul64fPtr) -D_STACK_SIZE=13B8   #
#                            -rt                                               #
#                            "C:\Program Files (x86)\IAR Systems\Embedded Work #
#                            bench 8.0\430\lib\dlib\dl430xlsfn.r43"            #
#                            -D_DATA16_HEAP_SIZE=1770 -s __program_start       #
#                            -D_DATA20_HEAP_SIZE=50)                           #
#                                                                              #
#                           Copyright (C) 1987-2018 IAR Systems AB.            #
################################################################################





                ****************************************
                *                                      *
                *           CROSS REFERENCE            *
                *                                      *
                ****************************************

       Program entry at :           7B02  Relocatable, from module : ?cstart




                ****************************************
                *                                      *
                *            RUNTIME MODEL             *
                *                                      *
                ****************************************

  __Heap_Handler             = Basic
  __SystemLibrary            = DLib
  __code_model               = large
  __core                     = 430X
  __data_model               = small
  __dlib_file_descriptor     = 0
  __dlib_full_locale_support = 0
  __double_size              = 32
  __pic                      = no
  __reg_r4                   = free
  __reg_r5                   = free
  __rt_version               = 3

                ****************************************
                *                                      *
                *    AUTOMATIC SYMBOL REDIRECTIONS     *
                *                                      *
                ****************************************

       All references to: _Printf
         were redirected to: _PrintfFullNoMb



                ****************************************
                *                                      *
                *              MODULE MAP              *
                *                                      *
                ****************************************


  DEFINED ABSOLUTE ENTRIES
    *************************************************************************

  DEFINED ABSOLUTE ENTRIES
  PROGRAM MODULE, NAME : ?ABS_ENTRY_MOD

Absolute parts
           ENTRY                   ADDRESS         REF BY
           =====                   =======         ======
           _DATA20_HEAP_SIZE       0050 
           _DATA16_HEAP_SIZE       1770 
           _STACK_SIZE             13B8 
           __iar_HWMUL             04C0            ?Mul16to32sHw (?Mul16to32sHw)
                                                   ?Mul32Hw32 (?Mul32Hw32)
                                                   ?Mul32fHw32 (?Mul32fHw32)
                                                   ?Mul64Hw32 (?Mul64Hw32)
                                                   CalcNextWakeupTime (lowpower)
                                                   GPRS_AT_OpenTCPLink (GTM900C)
                                                   HydrologyTask (hydrologytask)
                                                   Hydrology_ReadRom (message)
                                                   OpenTran (ec200)
                                                   Segment part 1 (?Mul8Hw)
                                                   Store_CheckDataItemSended (store)
                                                   Store_ReadDataItem (store)
                                                   Store_WriteDataItem (store)
                                                   _HEXtoBCD (rtc)
                                                   getstreamid (message)
                                                   setWakeupInterval (main)
           ?CPU30_OFFSET           0002 
    *************************************************************************

  FILE NAME : \\Mac\Home\work\ETL\Debug\Obj\adc.r43
  PROGRAM MODULE, NAME : adc

  SEGMENTS IN THE MODULE
  ======================
DATA16_AN
  Relative segment, address: 0700 - 0701 (0x2 bytes), align: 0
  Segment part 1. ROOT        Intra module refs:   ADC_Close
                                                   ADC_Open
                                                   ADC_Sample
           ENTRY                   ADDRESS         REF BY
           =====                   =======         ======
           _A_ADC12CTL0_L          0700 
           LOCAL                   ADDRESS         
           =====                   =======         
           ADC12CTL0               0700 
           ADC12CTL0_H             0701 
           ADC12CTL0_L             0700 
    -------------------------------------------------------------------------
DATA16_AN
  Relative segment, address: 0702 - 0703 (0x2 bytes), align: 0
  Segment part 2. ROOT        Intra module refs:   ADC_Open
                                                   ADC_Sample
           ENTRY                   ADDRESS         REF BY
           =====                   =======         ======
           _A_ADC12CTL1_L          0702 
           LOCAL                   ADDRESS         
           =====                   =======         
           ADC12CTL1               0702 
           ADC12CTL1_H             0703 
           ADC12CTL1_L             0702 
    -------------------------------------------------------------------------
DATA16_AN
  Relative segment, address: 0720 - 0721 (0x2 bytes), align: 0
  Segment part 3. ROOT        Intra module refs:   ADC_Sample
           ENTRY                   ADDRESS         REF BY
           =====                   =======         ======
           _A_ADC12MEM0_L          0720 
           LOCAL                   ADDRESS         
           =====                   =======         
           ADC12MEM0               0720 
           ADC12MEM0_H             0721 
           ADC12MEM0_L             0720 
    -------------------------------------------------------------------------
DATA16_AN
  Relative segment, address: 0722 - 0723 (0x2 bytes), align: 0
  Segment part 4. ROOT        Intra module refs:   ADC_Sample
           ENTRY                   ADDRESS         REF BY
           =====                   =======         ======
           _A_ADC12MEM1_L          0722 
           LOCAL                   ADDRESS         
           =====                   =======         
           ADC12MEM1               0722 
           ADC12MEM1_H             0723 
           ADC12MEM1_L             0722 
    -------------------------------------------------------------------------
DATA16_AN
  Relative segment, address: 0724 - 0725 (0x2 bytes), align: 0
  Segment part 5. ROOT        Intra module refs:   ADC_Sample
           ENTRY                   ADDRESS         REF BY
           =====                   =======         ======
           _A_ADC12MEM2_L          0724 
           LOCAL                   ADDRESS         
           =====                   =======         
           ADC12MEM2               0724 
           ADC12MEM2_H             0725 
           ADC12MEM2_L             0724 
    -------------------------------------------------------------------------
DATA16_AN
  Relative segment, address: 0726 - 0727 (0x2 bytes), align: 0
  Segment part 6. ROOT        Intra module refs:   ADC_Sample
           ENTRY                   ADDRESS         REF BY
           =====                   =======         ======
           _A_ADC12MEM3_L          0726 
           LOCAL                   ADDRESS         
           =====                   =======         
           ADC12MEM3               0726 
           ADC12MEM3_H             0727 
           ADC12MEM3_L             0726 
    -------------------------------------------------------------------------
DATA16_AN
  Relative segment, address: 0728 - 0729 (0x2 bytes), align: 0
  Segment part 7. ROOT        Intra module refs:   ADC_Sample
           ENTRY                   ADDRESS         REF BY
           =====                   =======         ======
           _A_ADC12MEM4_L          0728 
           LOCAL                   ADDRESS         
           =====                   =======         
           ADC12MEM4               0728 
           ADC12MEM4_H             0729 
           ADC12MEM4_L             0728 
    -------------------------------------------------------------------------
DATA16_AN
  Relative segment, address: 072A - 072B (0x2 bytes), align: 0
  Segment part 8. ROOT        Intra module refs:   ADC_Sample
           ENTRY                   ADDRESS         REF BY
           =====                   =======         ======
           _A_ADC12MEM5_L          072A 
           LOCAL                   ADDRESS         
           =====                   =======         
           ADC12MEM5               072A 
           ADC12MEM5_H             072B 
           ADC12MEM5_L             072A 
    -------------------------------------------------------------------------
DATA16_AN
  Relative segment, address: 072C - 072D (0x2 bytes), align: 0
  Segment part 9. ROOT        Intra module refs:   ADC_Sample
           ENTRY                   ADDRESS         REF BY
           =====                   =======         ======
           _A_ADC12MEM6_L          072C 
           LOCAL                   ADDRESS         
           =====                   =======         
           ADC12MEM6               072C 
           ADC12MEM6_H             072D 
           ADC12MEM6_L             072C 
    -------------------------------------------------------------------------
DATA16_AN
  Relative segment, address: 072E - 072F (0x2 bytes), align: 0
  Segment part 10. ROOT       Intra module refs:   ADC_Sample
           ENTRY                   ADDRESS         REF BY
           =====                   =======         ======
           _A_ADC12MEM7_L          072E 
           LOCAL                   ADDRESS         
           =====                   =======         
           ADC12MEM7               072E 
           ADC12MEM7_H             072F 
           ADC12MEM7_L             072E 
    -------------------------------------------------------------------------
DATA16_AN
  Relative segment, address: 0730 - 0731 (0x2 bytes), align: 0
  Segment part 11. ROOT       Intra module refs:   ADC_Sample
           ENTRY                   ADDRESS         REF BY
           =====                   =======         ======
           _A_ADC12MEM8_L          0730 
           LOCAL                   ADDRESS         
           =====                   =======         
           ADC12MEM8               0730 
           ADC12MEM8_H             0731 
           ADC12MEM8_L             0730 
    -------------------------------------------------------------------------
DATA16_AN
  Relative segment, address: 0732 - 0733 (0x2 bytes), align: 0
  Segment part 12. ROOT       Intra module refs:   ADC_Sample
           ENTRY                   ADDRESS         REF BY
           =====                   =======         ======
           _A_ADC12MEM9_L          0732 
           LOCAL                   ADDRESS         
           =====                   =======         
           ADC12MEM9               0732 
           ADC12MEM9_H             0733 
           ADC12MEM9_L             0732 
    -------------------------------------------------------------------------
DATA16_AN
  Relative segment, address: 0734 - 0735 (0x2 bytes), align: 0
  Segment part 13. ROOT       Intra module refs:   ADC_Sample
           ENTRY                   ADDRESS         REF BY
           =====                   =======         ======
           _A_ADC12MEM10_L         0734 
           LOCAL                   ADDRESS         
           =====                   =======         
           ADC12MEM10              0734 
           ADC12MEM10_H            0735 
           ADC12MEM10_L            0734 
    -------------------------------------------------------------------------
DATA16_AN
  Relative segment, address: 0736 - 0737 (0x2 bytes), align: 0
  Segment part 14. ROOT       Intra module refs:   ADC_Sample
           ENTRY                   ADDRESS         REF BY
           =====                   =======         ======
           _A_ADC12MEM11_L         0736 
           LOCAL                   ADDRESS         
           =====                   =======         
           ADC12MEM11              0736 
           ADC12MEM11_H            0737 
           ADC12MEM11_L            0736 
    -------------------------------------------------------------------------
DATA16_AN
  Relative segment, address: 0738 - 0739 (0x2 bytes), align: 0
  Segment part 15. ROOT       Intra module refs:   ADC_Sample
           ENTRY                   ADDRESS         REF BY
           =====                   =======         ======
           _A_ADC12MEM12_L         0738 
           LOCAL                   ADDRESS         
           =====                   =======         
           ADC12MEM12              0738 
           ADC12MEM12_H            0739 
           ADC12MEM12_L            0738 
    -------------------------------------------------------------------------
DATA16_AN
  Relative segment, address: 073A - 073B (0x2 bytes), align: 0
  Segment part 16. ROOT       Intra module refs:   ADC_Sample
           ENTRY                   ADDRESS         REF BY
           =====                   =======         ======
           _A_ADC12MEM13_L         073A 
           LOCAL                   ADDRESS         
           =====                   =======         
           ADC12MEM13              073A 
           ADC12MEM13_H            073B 
           ADC12MEM13_L            073A 
    -------------------------------------------------------------------------
DATA16_AN
  Relative segment, address: 073C - 073D (0x2 bytes), align: 0
  Segment part 17. ROOT       Intra module refs:   ADC_Sample
           ENTRY                   ADDRESS         REF BY
           =====                   =======         ======
           _A_ADC12MEM14_L         073C 
           LOCAL                   ADDRESS         
           =====                   =======         
           ADC12MEM14              073C 
           ADC12MEM14_H            073D 
           ADC12MEM14_L            073C 
    -------------------------------------------------------------------------
DATA16_AN
  Relative segment, address: 073E - 073F (0x2 bytes), align: 0
  Segment part 18. ROOT       Intra module refs:   ADC_Sample
           ENTRY                   ADDRESS         REF BY
           =====                   =======         ======
           _A_ADC12MEM15_L         073E 
           LOCAL                   ADDRESS         
           =====                   =======         
           ADC12MEM15              073E 
           ADC12MEM15_H            073F 
           ADC12MEM15_L            073E 
    -------------------------------------------------------------------------
DATA16_AN
  Relative segment, address: 0710 - 0710 (0x1 bytes), align: 0
  Segment part 19. ROOT       Intra module refs:   ADC_Open
           ENTRY                   ADDRESS         REF BY
           =====                   =======         ======
           ADC12MCTL0              0710 
    -------------------------------------------------------------------------
DATA16_AN
  Relative segment, address: 0711 - 0711 (0x1 bytes), align: 0
  Segment part 20. ROOT       Intra module refs:   ADC_Open
           ENTRY                   ADDRESS         REF BY
           =====                   =======         ======
           ADC12MCTL1              0711 
    -------------------------------------------------------------------------
DATA16_AN
  Relative segment, address: 0712 - 0712 (0x1 bytes), align: 0
  Segment part 21. ROOT       Intra module refs:   ADC_Open
           ENTRY                   ADDRESS         REF BY
           =====                   =======         ======
           ADC12MCTL2              0712 
    -------------------------------------------------------------------------
DATA16_AN
  Relative segment, address: 0713 - 0713 (0x1 bytes), align: 0
  Segment part 22. ROOT       Intra module refs:   ADC_Open
           ENTRY                   ADDRESS         REF BY
           =====                   =======         ======
           ADC12MCTL3              0713 
    -------------------------------------------------------------------------
DATA16_AN
  Relative segment, address: 0714 - 0714 (0x1 bytes), align: 0
  Segment part 23. ROOT       Intra module refs:   ADC_Open
           ENTRY                   ADDRESS         REF BY
           =====                   =======         ======
           ADC12MCTL4              0714 
    -------------------------------------------------------------------------
DATA16_AN
  Relative segment, address: 0715 - 0715 (0x1 bytes), align: 0
  Segment part 24. ROOT       Intra module refs:   ADC_Open
           ENTRY                   ADDRESS         REF BY
           =====                   =======         ======
           ADC12MCTL5              0715 
    -------------------------------------------------------------------------
DATA16_AN
  Relative segment, address: 0716 - 0716 (0x1 bytes), align: 0
  Segment part 25. ROOT       Intra module refs:   ADC_Open
           ENTRY                   ADDRESS         REF BY
           =====                   =======         ======
           ADC12MCTL6              0716 
    -------------------------------------------------------------------------
DATA16_AN
  Relative segment, address: 0717 - 0717 (0x1 bytes), align: 0
  Segment part 26. ROOT       Intra module refs:   ADC_Open
           ENTRY                   ADDRESS         REF BY
           =====                   =======         ======
           ADC12MCTL7              0717 
    -------------------------------------------------------------------------
DATA16_AN
  Relative segment, address: 0718 - 0718 (0x1 bytes), align: 0
  Segment part 27. ROOT       Intra module refs:   ADC_Open
           ENTRY                   ADDRESS         REF BY
           =====                   =======         ======
           ADC12MCTL8              0718 
    -------------------------------------------------------------------------
DATA16_AN
  Relative segment, address: 0719 - 0719 (0x1 bytes), align: 0
  Segment part 28. ROOT       Intra module refs:   ADC_Open
           ENTRY                   ADDRESS         REF BY
           =====                   =======         ======
           ADC12MCTL9              0719 
    -------------------------------------------------------------------------
DATA16_AN
  Relative segment, address: 071A - 071A (0x1 bytes), align: 0
  Segment part 29. ROOT       Intra module refs:   ADC_Open
           ENTRY                   ADDRESS         REF BY
           =====                   =======         ======
           ADC12MCTL10             071A 
    -------------------------------------------------------------------------
DATA16_AN
  Relative segment, address: 071B - 071B (0x1 bytes), align: 0
  Segment part 30. ROOT       Intra module refs:   ADC_Open
           ENTRY                   ADDRESS         REF BY
           =====                   =======         ======
           ADC12MCTL11             071B 
    -------------------------------------------------------------------------
DATA16_AN
  Relative segment, address: 071C - 071C (0x1 bytes), align: 0
  Segment part 31. ROOT       Intra module refs:   ADC_Open
           ENTRY                   ADDRESS         REF BY
           =====                   =======         ======
           ADC12MCTL12             071C 
    -------------------------------------------------------------------------
DATA16_AN
  Relative segment, address: 071D - 071D (0x1 bytes), align: 0
  Segment part 32. ROOT       Intra module refs:   ADC_Open
           ENTRY                   ADDRESS         REF BY
           =====                   =======         ======
           ADC12MCTL13             071D 
    -------------------------------------------------------------------------
DATA16_AN
  Relative segment, address: 071E - 071E (0x1 bytes), align: 0
  Segment part 33. ROOT       Intra module refs:   ADC_Open
           ENTRY                   ADDRESS         REF BY
           =====                   =======         ======
           ADC12MCTL14             071E 
    -------------------------------------------------------------------------
DATA16_AN
  Relative segment, address: 071F - 071F (0x1 bytes), align: 0
  Segment part 34. ROOT       Intra module refs:   ADC_Open
           ENTRY                   ADDRESS         REF BY
           =====                   =======         ======
           ADC12MCTL15             071F 
    -------------------------------------------------------------------------
DATA16_AN
  Relative segment, address: 0242 - 0243 (0x2 bytes), align: 0
  Segment part 35. ROOT       Intra module refs:   ADC_Sample
           ENTRY                   ADDRESS         REF BY
           =====                   =======         ======
           _A_PCOUT_L              0242 
           LOCAL                   ADDRESS         
           =====                   =======         
           PCOUT                   0242 
           PCOUT_H                 0243 
           PCOUT_L                 0242 
    -------------------------------------------------------------------------
DATA16_AN
  Relative segment, address: 024A - 024B (0x2 bytes), align: 0
  Segment part 36. ROOT       Intra module refs:   ADC_Open
                                                   ADC_Sample
                                                   Clock_Init (common)
                                                   UART1_Open_9600 (uart1)
           ENTRY                   ADDRESS         REF BY
           =====                   =======         ======
           _A_PCSEL_L              024A 
           LOCAL                   ADDRESS         
           =====                   =======         
           PCSEL                   024A 
           PCSEL_H                 024B 
           PCSEL_L                 024A 
    -------------------------------------------------------------------------
DATA16_Z
  Relative segment, address: 1C70 - 1C8F (0x20 bytes), align: 1
  Segment part 38.            Intra module refs:   ADC_Sample
           ENTRY                   ADDRESS         REF BY
           =====                   =======         ======
           A                       1C70            ADC_Element (hydrologytask)
    -------------------------------------------------------------------------
<CODE> 2 (was CODE)
  Relative segment, address: 00014B60 - 00014BFB (0x9c bytes), align: 1
  Segment part 39.
           ENTRY                   ADDRESS         REF BY
           =====                   =======         ======
           ADC_Open                00014B60        Sampler_Open (Sampler)
               calls direct
    -------------------------------------------------------------------------
<CODE> 1 (was CODE)
  Relative segment, address: C4F0 - C9D3 (0x4e4 bytes), align: 1
  Segment part 41.
           ENTRY                   ADDRESS         REF BY
           =====                   =======         ======
           ADC_Sample              C4F0            HydrologySample (hydrologytask)
               calls direct
    -------------------------------------------------------------------------
<CODE> 2 (was CODE)
  Relative segment, address: 00019B28 - 00019B33 (0xc bytes), align: 1
  Segment part 42.
           ENTRY                   ADDRESS         REF BY
           =====                   =======         ======
           ADC_Close               00019B28        Sampler_Close (Sampler)

    *************************************************************************

  FILE NAME : \\Mac\Home\work\ETL\Debug\Obj\adc10_a.r43
    *************************************************************************

  FILE NAME : \\Mac\Home\work\ETL\Debug\Obj\adc12_a.r43
    *************************************************************************

  FILE NAME : \\Mac\Home\work\ETL\Debug\Obj\aes.r43
    *************************************************************************

  FILE NAME : \\Mac\Home\work\ETL\Debug\Obj\battbak.r43
    *************************************************************************

  FILE NAME : \\Mac\Home\work\ETL\Debug\Obj\BC95.r43
  PROGRAM MODULE, NAME : BC95

  SEGMENTS IN THE MODULE
  ======================
DATA16_AN
  Relative segment, address: 0282 - 0283 (0x2 bytes), align: 0
  Segment part 1. ROOT        Intra module refs:   GSM_Close (GSM)
                                                   GSM_Open (GSM)
                                                   IIC_SCL_HIGH (rtc)
                                                   IIC_SCL_LOW (rtc)
                                                   IIC_SDA_HIGH (rtc)
                                                   IIC_SDA_LOW (rtc)
                                                   Max3222_Close (common)
                                                   Max3222_Open (common)
                                                   Restart_Init (main)
                                                   Sampler_Close (Sampler)
                                                   Sampler_Open (Sampler)
                                                   camera_change (camera)
           ENTRY                   ADDRESS         REF BY
           =====                   =======         ======
           _A_PEOUT_L              0282 
           LOCAL                   ADDRESS         
           =====                   =======         
           PEOUT                   0282 
           PEOUT_H                 0283 
           PEOUT_L                 0282 
    -------------------------------------------------------------------------
DATA16_AN
  Relative segment, address: 0284 - 0285 (0x2 bytes), align: 0
  Segment part 2. ROOT        Intra module refs:   GSM_Close (GSM)
                                                   GSM_Open (GSM)
                                                   IIC_Ack (rtc)
                                                   IIC_NAck (rtc)
                                                   IIC_Read_Byte (rtc)
                                                   IIC_Send_Byte (rtc)
                                                   IIC_Start (rtc)
                                                   IIC_Stop (rtc)
                                                   IIC_Wait_Ack (rtc)
                                                   Max3222_Close (common)
                                                   Max3222_Open (common)
                                                   RTC_Open (rtc)
                                                   Restart_Init (main)
                                                   Sampler_Close (Sampler)
                                                   Sampler_Open (Sampler)
                                                   UART2_Open (uart2)
                                                   UART3_Open (uart3)
           ENTRY                   ADDRESS         REF BY
           =====                   =======         ======
           _A_PEDIR_L              0284 
           LOCAL                   ADDRESS         
           =====                   =======         
           PEDIR                   0284 
           PEDIR_H                 0285 
           PEDIR_L                 0284 
    -------------------------------------------------------------------------
<CODE> 2 (was CODE)
  Relative segment, address: 00019CC0 - 00019CC3 (0x4 bytes), align: 1
  Segment part 88.            Intra module refs:   ATTEST (blueTooth)
                                                   BLE_ADVSTART (blueTooth)
                                                   BLE_ATE (blueTooth)
                                                   BLE_BLESP (blueTooth)
                                                   BLE_BLESPPCFG (blueTooth)
                                                   BLE_CONNECT (blueTooth)
                                                   BLE_GATTSSRVCRE (blueTooth)
                                                   BLE_GATTSSRVSTART (blueTooth)
                                                   BLE_RST (blueTooth)
                                                   BLE_RecAt (blueTooth)
                                                   BLE_SERVER (blueTooth)
                                                   BLE_SERVER_INIT (blueTooth)
                                                   BLE_SetName (blueTooth)
                                                   CloseTran (ec200)
                                                   OpenTran (ec200)
                                                   QueryCerg (ec200)
                                                   QuerySIMSignal (ec200)
                                                   SetNoEcho (ec200)
                                                   TransmissionActivation (ec200)
                                                   TransmissionConfiguration (ec200)
                                                   TransmissionDeactivation (ec200)
                                                   get_time (ec200)
           ENTRY                   ADDRESS         REF BY
           =====                   =======         ======
           strstr                  00019CC0 
               calls direct
    -------------------------------------------------------------------------
<CODE> 2 (was CODE)
  Relative segment, address: 00019C98 - 00019C9B (0x4 bytes), align: 1
  Segment part 89.            Intra module refs:   Console_WriteHexCharln (Console)
                                                   Ec200RecvMsg (ec200)
                                                   GPRS_Send (GTM900C)
                                                   GRPS_AT_Receive_Response (GTM900C)
                                                   GRPS_AT_Send (GTM900C)
                                                   HydrologySaveData (hydrologytask)
                                                   Hydrology_ProcessGPRSReceieve (GTM900C)
                                                   Hydrology_SendData (message)
                                                   WriteFlashInBank (flash)
                                                   camera_Take (camera)
                                                   hydrologyExitReceieve (message)
                                                   hydrologyExitSend (message)
           ENTRY                   ADDRESS         REF BY
           =====                   =======         ======
           free                    00019C98 
               calls direct
    -------------------------------------------------------------------------
<CODE> 2 (was CODE)
  Relative segment, address: 00019C90 - 00019C93 (0x4 bytes), align: 1
  Segment part 90.            Intra module refs:   Console_WriteHexCharln (Console)
                                                   Ec200RecvMsg (ec200)
                                                   GPRS_Send (GTM900C)
                                                   GRPS_AT_Receive_Response (GTM900C)
                                                   GRPS_AT_Send (GTM900C)
                                                   HydrologySaveData (hydrologytask)
                                                   Hydrology_CalElementInfo (message)
                                                   Hydrology_SendData (message)
                                                   WriteFlashInBank (flash)
                                                   camera_Take (camera)
                                                   hydrologyInitReceieve (message)
                                                   hydrologyInitSend (message)
                                                   hydrologyMakeDownBody (message)
                                                   hydrologyMakeUpBody (message)
                                                   mallocElement (message)
           ENTRY                   ADDRESS         REF BY
           =====                   =======         ======
           malloc                  00019C90 
               calls direct

    *************************************************************************

  FILE NAME : \\Mac\Home\work\ETL\Debug\Obj\blueTooth.r43
  PROGRAM MODULE, NAME : blueTooth

  SEGMENTS IN THE MODULE
  ======================
DATA16_AN
  Relative segment, address: 0262 - 0263 (0x2 bytes), align: 0
  Segment part 1. ROOT        Intra module refs:   BLE_Close
                                                   BLE_INIT
                                                   Clear_ExternWatchdog (common)
                                                   PowerOff (ec200)
                                                   PowerOn (ec200)
                                                   Restart_Init (main)
                                                   TimerB_Init (timer)
                                                   UART2_Open (uart2)
           ENTRY                   ADDRESS         REF BY
           =====                   =======         ======
           _A_PDOUT_L              0262 
           LOCAL                   ADDRESS         
           =====                   =======         
           PDOUT                   0262 
           PDOUT_H                 0263 
           PDOUT_L                 0262 
    -------------------------------------------------------------------------
DATA16_AN
  Relative segment, address: 0264 - 0265 (0x2 bytes), align: 0
  Segment part 2. ROOT        Intra module refs:   BLE_INIT
                                                   PowerOff (ec200)
                                                   PowerOn (ec200)
                                                   Restart_Init (main)
                                                   TimerB_Init (timer)
                                                   UART2_Open (uart2)
           ENTRY                   ADDRESS         REF BY
           =====                   =======         ======
           _A_PDDIR_L              0264 
           LOCAL                   ADDRESS         
           =====                   =======         
           PDDIR                   0264 
           PDDIR_H                 0265 
           PDDIR_L                 0264 
    -------------------------------------------------------------------------
DATA16_Z
  Relative segment, address: 1C90 - 1C91 (0x2 bytes), align: 1
  Segment part 74.            Intra module refs:   BLE_Open
                                                   BLE_RST
                                                   ble_isinit
           ENTRY                   ADDRESS         REF BY
           =====                   =======         ======
           BLEINIT                 1C90 
    -------------------------------------------------------------------------
DATA16_Z
  Relative segment, address: 1C92 - 1C93 (0x2 bytes), align: 1
  Segment part 75.            Intra module refs:   BLE_BLESPP
                                                   BLE_BLESPPEND
                                                   ble_getMsg
                                                   ble_getMsgNoWait
                                                   ble_isCanUse
                                                   ble_sendMsg
                                                   ble_sppflag
           ENTRY                   ADDRESS         REF BY
           =====                   =======         ======
           sppflag                 1C92 
    -------------------------------------------------------------------------
DATA16_Z
  Relative segment, address: 1C94 - 1C95 (0x2 bytes), align: 1
  Segment part 76.            Intra module refs:   BLE_INIT
                                                   BLE_ISFINDBT
                                                   ble_task_start
           ENTRY                   ADDRESS         REF BY
           =====                   =======         ======
           isbt                    1C94 
    -------------------------------------------------------------------------
<CODE> 2 (was CODE)
  Relative segment, address: 00019C84 - 00019C87 (0x4 bytes), align: 1
  Segment part 81.            Intra module refs:   ATTEST
                                                   BLE_BLESP
                                                   BLE_BLESPPEND
                                                   BLE_CONNECT
                                                   BLE_GATTSSRVCRE
                                                   BLE_INIT
                                                   BLE_SendAtCmd
           ENTRY                   ADDRESS         REF BY
           =====                   =======         ======
           BLE_buffer_Clear        00019C84 
               calls direct
    -------------------------------------------------------------------------
<CODE> 2 (was CODE)
  Relative segment, address: 00019CA8 - 00019CAB (0x4 bytes), align: 1
  Segment part 83.            Intra module refs:   ble_sendMsg
           ENTRY                   ADDRESS         REF BY
           =====                   =======         ======
           SPPRX                   00019CA8 
               calls direct
    -------------------------------------------------------------------------
<CODE> 2 (was CODE)
  Relative segment, address: 00018F32 - 00018F61 (0x30 bytes), align: 1
  Segment part 84.            Intra module refs:   ble_getMsg
           ENTRY                   ADDRESS         REF BY
           =====                   =======         ======
           SPPTX                   00018F32 
               calls direct
    -------------------------------------------------------------------------
<CODE> 2 (was CODE)
  Relative segment, address: 00019B92 - 00019B9B (0xa bytes), align: 1
  Segment part 85.            Intra module refs:   ble_getMsgNoWait
           ENTRY                   ADDRESS         REF BY
           =====                   =======         ======
           SPPTX_NOWAIT            00019B92 
               calls direct
    -------------------------------------------------------------------------
<CODE> 2 (was CODE)
  Relative segment, address: 00017D1A - 00017D67 (0x4e bytes), align: 1
  Segment part 86.            Intra module refs:   ATTEST
                                                   BLE_ADVSTART
                                                   BLE_ATE
                                                   BLE_BLESP
                                                   BLE_BLESPPCFG
                                                   BLE_CONNECT
                                                   BLE_GATTSSRVSTART
                                                   BLE_RST
                                                   BLE_SERVER
                                                   BLE_SERVER_INIT
                                                   BLE_SetName
           ENTRY                   ADDRESS         REF BY
           =====                   =======         ======
           BLE_SendAtCmd           00017D1A 
               calls direct
    -------------------------------------------------------------------------
<CODE> 2 (was CODE)
  Relative segment, address: 00019C66 - 00019C6B (0x6 bytes), align: 1
  Segment part 82.            Intra module refs:   SPPRX
           ENTRY                   ADDRESS         REF BY
           =====                   =======         ======
           BLE_SendMsg             00019C66 
               calls direct
    -------------------------------------------------------------------------
<CODE> 2 (was CODE)
  Relative segment, address: 00017A9A - 00017AEB (0x52 bytes), align: 1
  Segment part 88.            Intra module refs:   ATTEST
                                                   BLE_ADVSTART
                                                   BLE_ATE
                                                   BLE_BLESP
                                                   BLE_BLESPPCFG
                                                   BLE_BLESPPEND
                                                   BLE_CONNECT
                                                   BLE_GATTSSRVCRE
                                                   BLE_GATTSSRVSTART
                                                   BLE_RST
                                                   BLE_SERVER
                                                   BLE_SERVER_INIT
                                                   BLE_SetName
           ENTRY                   ADDRESS         REF BY
           =====                   =======         ======
           BLE_RecAt               00017A9A 
               calls direct
    -------------------------------------------------------------------------
<CODE> 2 (was CODE)
  Relative segment, address: 00016B18 - 00016B87 (0x70 bytes), align: 1
  Segment part 89.            Intra module refs:   BLE_INIT
           ENTRY                   ADDRESS         REF BY
           =====                   =======         ======
           BLE_ATE                 00016B18 
               calls direct
    -------------------------------------------------------------------------
<CODE> 2 (was CODE)
  Relative segment, address: 00015B0E - 00015B95 (0x88 bytes), align: 1
  Segment part 90.            Intra module refs:   BLE_BLESPPEND
                                                   BLE_INIT
           ENTRY                   ADDRESS         REF BY
           =====                   =======         ======
           ATTEST                  00015B0E 
               calls direct
    -------------------------------------------------------------------------
<CODE> 2 (was CODE)
  Relative segment, address: 00017794 - 000177ED (0x5a bytes), align: 1
  Segment part 91.            Intra module refs:   BLE_Open
           ENTRY                   ADDRESS         REF BY
           =====                   =======         ======
           BLE_SetName             00017794 
               calls direct
    -------------------------------------------------------------------------
<CODE> 2 (was CODE)
  Relative segment, address: 000176DE - 00017739 (0x5c bytes), align: 1
  Segment part 92.            Intra module refs:   BLE_Open
           ENTRY                   ADDRESS         REF BY
           =====                   =======         ======
           BLE_SERVER_INIT         000176DE 
               calls direct
    -------------------------------------------------------------------------
<CODE> 2 (was CODE)
  Relative segment, address: 00017512 - 0001756D (0x5c bytes), align: 1
  Segment part 93.            Intra module refs:   BLE_Open
           ENTRY                   ADDRESS         REF BY
           =====                   =======         ======
           BLE_SERVER              00017512 
               calls direct
    -------------------------------------------------------------------------
<CODE> 2 (was CODE)
  Relative segment, address: 00014C96 - 00014D2D (0x98 bytes), align: 1
  Segment part 94.            Intra module refs:   BLE_Open
           ENTRY                   ADDRESS         REF BY
           =====                   =======         ======
           BLE_GATTSSRVCRE         00014C96 
               calls direct
    -------------------------------------------------------------------------
<CODE> 2 (was CODE)
  Relative segment, address: 000175CA - 00017625 (0x5c bytes), align: 1
  Segment part 95.            Intra module refs:   BLE_Open
           ENTRY                   ADDRESS         REF BY
           =====                   =======         ======
           BLE_GATTSSRVSTART       000175CA 
               calls direct
    -------------------------------------------------------------------------
<CODE> 2 (was CODE)
  Relative segment, address: 00017626 - 00017681 (0x5c bytes), align: 1
  Segment part 96.            Intra module refs:   BLE_Open
                                                   ble_adv
           ENTRY                   ADDRESS         REF BY
           =====                   =======         ======
           BLE_ADVSTART            00017626 
               calls direct
    -------------------------------------------------------------------------
<CODE> 2 (was CODE)
  Relative segment, address: 00017682 - 000176DD (0x5c bytes), align: 1
  Segment part 97.            Intra module refs:   BLE_BLESP
           ENTRY                   ADDRESS         REF BY
           =====                   =======         ======
           BLE_BLESPPCFG           00017682 
               calls direct
    -------------------------------------------------------------------------
<CODE> 2 (was CODE)
  Relative segment, address: 000151CC - 0001525B (0x90 bytes), align: 1
  Segment part 98.            Intra module refs:   BLE_BLESPP
           ENTRY                   ADDRESS         REF BY
           =====                   =======         ======
           BLE_BLESP               000151CC 
               calls direct
    -------------------------------------------------------------------------
<CODE> 2 (was CODE)
  Relative segment, address: 00017EE4 - 00017F2D (0x4a bytes), align: 1
  Segment part 99.            Intra module refs:   ble_open
           ENTRY                   ADDRESS         REF BY
           =====                   =======         ======
           BLE_BLESPP              00017EE4 
               calls direct
    -------------------------------------------------------------------------
<CODE> 2 (was CODE)
  Relative segment, address: 00016444 - 000164BD (0x7a bytes), align: 1
  Segment part 100.           Intra module refs:   BLE_INIT
                                                   ble_close
           ENTRY                   ADDRESS         REF BY
           =====                   =======         ======
           BLE_BLESPPEND           00016444 
               calls direct
    -------------------------------------------------------------------------
<CODE> 2 (was CODE)
  Relative segment, address: 000143A2 - 00014451 (0xb0 bytes), align: 1
  Segment part 102.           Intra module refs:   BLE_MAIN
           ENTRY                   ADDRESS         REF BY
           =====                   =======         ======
           BLE_INIT                000143A2 
               calls direct
    -------------------------------------------------------------------------
<CODE> 2 (was CODE)
  Relative segment, address: 00013DD4 - 00013E9D (0xca bytes), align: 1
  Segment part 103.           Intra module refs:   BLE_MAIN
           ENTRY                   ADDRESS         REF BY
           =====                   =======         ======
           BLE_Open                00013DD4 
               calls direct
    -------------------------------------------------------------------------
<CODE> 2 (was CODE)
  Relative segment, address: 00016DAC - 00016E17 (0x6c bytes), align: 1
  Segment part 104.           Intra module refs:   BLE_MAIN
                                                   ble_isCanUse
           ENTRY                   ADDRESS         REF BY
           =====                   =======         ======
           BLE_CONNECT             00016DAC 
               calls direct
    -------------------------------------------------------------------------
<CODE> 2 (was CODE)
  Relative segment, address: 00016A38 - 00016AA7 (0x70 bytes), align: 1
  Segment part 101.           Intra module refs:   BLE_INIT
                                                   ble_rst
           ENTRY                   ADDRESS         REF BY
           =====                   =======         ======
           BLE_RST                 00016A38 
               calls direct
    -------------------------------------------------------------------------
<CODE> 2 (was CODE)
  Relative segment, address: 00019B1C - 00019B27 (0xc bytes), align: 1
  Segment part 107.           Intra module refs:   ble_task_start
           ENTRY                   ADDRESS         REF BY
           =====                   =======         ======
           BLE_Close               00019B1C 
               calls direct
    -------------------------------------------------------------------------
<CODE> 2 (was CODE)
  Relative segment, address: 00019366 - 00019387 (0x22 bytes), align: 1
  Segment part 87.            Intra module refs:   BLE_RecAt
           ENTRY                   ADDRESS         REF BY
           =====                   =======         ======
           BLE_RecvLineTry         00019366 
               calls direct
    -------------------------------------------------------------------------
<CODE> 2 (was CODE)
  Relative segment, address: 000159FE - 00015A85 (0x88 bytes), align: 1
  Segment part 108.           Intra module refs:   ble_init
           ENTRY                   ADDRESS         REF BY
           =====                   =======         ======
           BLE_MAIN                000159FE 
               calls direct
    -------------------------------------------------------------------------
<CODE> 2 (was CODE)
  Relative segment, address: 000197EE - 00019803 (0x16 bytes), align: 1
  Segment part 109.           Intra module refs:   ble_adv
                                                   ble_getMsg
                                                   ble_getMsgNoWait
                                                   ble_open
                                                   ble_sendMsg
                                                   ble_task_end
                                                   ble_task_start
                                                   ble_waiting_query
           ENTRY                   ADDRESS         REF BY
           =====                   =======         ======
           BLE_ISFINDBT            000197EE        Hydrology_ProcessBLEReceieve (uart_config)
    -------------------------------------------------------------------------
DATA16_I
  Relative segment, address: 1C00 - 1C37 (0x38 bytes), align: 1
  Segment part 77.            Intra module refs:   BleDriverInstall
                                                   ble_init
                                                   ble_isCanUse
           ENTRY                   ADDRESS         REF BY
           =====                   =======         ======
           T_CommuteDevBLE         1C00 
    -------------------------------------------------------------------------
<CODE> 2 (was CODE)
  Relative segment, address: 00019C8C - 00019C8F (0x4 bytes), align: 1
  Segment part 110.           Intra module refs:   Segment part 78
                                                   ble_task_start
           ENTRY                   ADDRESS         REF BY
           =====                   =======         ======
           ble_rst                 00019C8C 
               calls direct
    -------------------------------------------------------------------------
<CODE> 2 (was CODE)
  Relative segment, address: 00019C18 - 00019C1D (0x6 bytes), align: 1
  Segment part 111.           Intra module refs:   Segment part 78
                                                   ble_task_end
           ENTRY                   ADDRESS         REF BY
           =====                   =======         ======
           ble_sppflag             00019C18 
    -------------------------------------------------------------------------
<CODE> 2 (was CODE)
  Relative segment, address: 00019C12 - 00019C17 (0x6 bytes), align: 1
  Segment part 112.           Intra module refs:   Segment part 78
           ENTRY                   ADDRESS         REF BY
           =====                   =======         ======
           ble_isinit              00019C12 
    -------------------------------------------------------------------------
<CODE> 2 (was CODE)
  Relative segment, address: 00019A6E - 00019A7B (0xe bytes), align: 1
  Segment part 113.           Intra module refs:   Segment part 78
                                                   ble_task_start
           ENTRY                   ADDRESS         REF BY
           =====                   =======         ======
           ble_adv                 00019A6E 
               calls direct
    -------------------------------------------------------------------------
<CODE> 2 (was CODE)
  Relative segment, address: 000185BE - 000185FB (0x3e bytes), align: 1
  Segment part 115.           Intra module refs:   Segment part 78
           ENTRY                   ADDRESS         REF BY
           =====                   =======         ======
           ble_task_start          000185BE 
               calls direct
    -------------------------------------------------------------------------
<CODE> 2 (was CODE)
  Relative segment, address: 000197AC - 000197C1 (0x16 bytes), align: 1
  Segment part 116.           Intra module refs:   Segment part 78
           ENTRY                   ADDRESS         REF BY
           =====                   =======         ======
           ble_task_end            000197AC 
               calls direct
    -------------------------------------------------------------------------
<CODE> 2 (was CODE)
  Relative segment, address: 000191B0 - 000191D5 (0x26 bytes), align: 1
  Segment part 117.           Intra module refs:   BleDriverInstall
                                                   Segment part 78
                                                   ble_task_start
           ENTRY                   ADDRESS         REF BY
           =====                   =======         ======
           ble_init                000191B0 
               calls direct
    -------------------------------------------------------------------------
<CODE> 2 (was CODE)
  Relative segment, address: 00019590 - 000195AB (0x1c bytes), align: 1
  Segment part 118.           Intra module refs:   Segment part 78
                                                   ble_task_start
           ENTRY                   ADDRESS         REF BY
           =====                   =======         ======
           ble_isCanUse            00019590 
               calls direct
    -------------------------------------------------------------------------
<CODE> 2 (was CODE)
  Relative segment, address: 0001981A - 0001982D (0x14 bytes), align: 1
  Segment part 119.           Intra module refs:   Segment part 78
                                                   ble_task_start
           ENTRY                   ADDRESS         REF BY
           =====                   =======         ======
           ble_open                0001981A 
               calls direct
    -------------------------------------------------------------------------
<CODE> 2 (was CODE)
  Relative segment, address: 000196EC - 00019703 (0x18 bytes), align: 1
  Segment part 120.           Intra module refs:   Segment part 78
                                                   ble_waiting_query
           ENTRY                   ADDRESS         REF BY
           =====                   =======         ======
           ble_getMsg              000196EC 
               calls direct
    -------------------------------------------------------------------------
<CODE> 2 (was CODE)
  Relative segment, address: 00019764 - 0001977B (0x18 bytes), align: 1
  Segment part 121.           Intra module refs:   Segment part 78
           ENTRY                   ADDRESS         REF BY
           =====                   =======         ======
           ble_getMsgNoWait        00019764 
               calls direct
    -------------------------------------------------------------------------
<CODE> 2 (was CODE)
  Relative segment, address: 0001946A - 00019487 (0x1e bytes), align: 1
  Segment part 122.           Intra module refs:   Segment part 78
                                                   ble_waiting_query
           ENTRY                   ADDRESS         REF BY
           =====                   =======         ======
           ble_sendMsg             0001946A 
               calls direct
    -------------------------------------------------------------------------
<CODE> 2 (was CODE)
  Relative segment, address: 00019BCA - 00019BD1 (0x8 bytes), align: 1
  Segment part 114.           Intra module refs:   Segment part 78
                                                   ble_task_end
                                                   ble_task_start
           ENTRY                   ADDRESS         REF BY
           =====                   =======         ======
           ble_close               00019BCA 
               calls direct
    -------------------------------------------------------------------------
<CODE> 2 (was CODE)
  Relative segment, address: 000190EE - 00019115 (0x28 bytes), align: 1
  Segment part 123.
           ENTRY                   ADDRESS         REF BY
           =====                   =======         ======
           BleDriverInstall        000190EE        Hydrology_InitWaitConfig (uart_config)
               calls direct
    -------------------------------------------------------------------------
DATA16_Z
  Relative segment, address: 1C96 - 1C97 (0x2 bytes), align: 1
  Segment part 79.            Intra module refs:   ble_waiting_query
           ENTRY                   ADDRESS         REF BY
           =====                   =======         ======
           ble_query_flag          1C96            Hydrology_SendData (message)
    -------------------------------------------------------------------------
<CODE> 2 (was CODE)
  Relative segment, address: 00016E18 - 00016E83 (0x6c bytes), align: 1
  Segment part 125.
           ENTRY                   ADDRESS         REF BY
           =====                   =======         ======
           ble_waiting_query       00016E18        Hydrology_InitWaitConfig (uart_config)
               calls direct
    -------------------------------------------------------------------------
DATA16_ID
  Relative segment, address: 7A92 - 7AC9 (0x38 bytes), align: 1
  Segment part 78.            Intra module refs:   T_CommuteDevBLE
    -------------------------------------------------------------------------
DATA16_C
  Relative segment, address: 5C2E - 5C31 (0x4 bytes), align: 0
  Segment part 4.             Intra module refs:   Segment part 78
    -------------------------------------------------------------------------
DATA16_C
  Relative segment, address: 5C32 - 5C33 (0x2 bytes), align: 0
  Segment part 5.             Intra module refs:   BLE_SendAtCmd
    -------------------------------------------------------------------------
DATA16_C
  Relative segment, address: 5C34 - 5C36 (0x3 bytes), align: 0
  Segment part 6.             Intra module refs:   BLE_BLESP
                                                   BLE_RecAt
    -------------------------------------------------------------------------
DATA16_C
  Relative segment, address: 5C37 - 5C39 (0x3 bytes), align: 0
  Segment part 7.             Intra module refs:   BLE_RecAt
    -------------------------------------------------------------------------
DATA16_C
  Relative segment, address: 5C3A - 5C3E (0x5 bytes), align: 0
  Segment part 8.             Intra module refs:   BLE_ATE
    -------------------------------------------------------------------------
DATA16_C
  Relative segment, address: 5C3F - 5CA2 (0x64 bytes), align: 0
  Segment part 9.             Intra module refs:   BLE_ATE
    -------------------------------------------------------------------------
DATA16_C
  Relative segment, address: 5CA3 - 5CA4 (0x2 bytes), align: 0
  Segment part 10.            Intra module refs:   ATTEST
                                                   BLE_ADVSTART
                                                   BLE_ATE
                                                   BLE_BLESPPCFG
                                                   BLE_GATTSSRVCRE
                                                   BLE_GATTSSRVSTART
                                                   BLE_SERVER
                                                   BLE_SERVER_INIT
                                                   BLE_SetName
    -------------------------------------------------------------------------
DATA16_C
  Relative segment, address: 5CA5 - 5CA7 (0x3 bytes), align: 0
  Segment part 11.            Intra module refs:   ATTEST
    -------------------------------------------------------------------------
DATA16_C
  Relative segment, address: 5CA8 - 5D0B (0x64 bytes), align: 0
  Segment part 12.            Intra module refs:   ATTEST
    -------------------------------------------------------------------------
DATA16_C
  Relative segment, address: 5D0C - 5D0D (0x2 bytes), align: 0
  Segment part 13.            Intra module refs:   ATTEST
    -------------------------------------------------------------------------
DATA16_C
  Relative segment, address: 5D0E - 5D36 (0x29 bytes), align: 0
  Segment part 14.            Intra module refs:   BLE_SetName
    -------------------------------------------------------------------------
DATA16_C
  Relative segment, address: 5D37 - 5D9A (0x64 bytes), align: 0
  Segment part 15.            Intra module refs:   BLE_SetName
    -------------------------------------------------------------------------
DATA16_C
  Relative segment, address: 5D9B - 5DA7 (0xd bytes), align: 0
  Segment part 16.            Intra module refs:   BLE_SERVER_INIT
    -------------------------------------------------------------------------
DATA16_C
  Relative segment, address: 5DA8 - 5E0B (0x64 bytes), align: 0
  Segment part 17.            Intra module refs:   BLE_SERVER_INIT
    -------------------------------------------------------------------------
DATA16_C
  Relative segment, address: 5E0C - 5E18 (0xd bytes), align: 0
  Segment part 18.            Intra module refs:   BLE_SERVER
    -------------------------------------------------------------------------
DATA16_C
  Relative segment, address: 5E19 - 5E7C (0x64 bytes), align: 0
  Segment part 19.            Intra module refs:   BLE_SERVER
    -------------------------------------------------------------------------
DATA16_C
  Relative segment, address: 5E7D - 5E8E (0x12 bytes), align: 0
  Segment part 20.            Intra module refs:   BLE_GATTSSRVCRE
    -------------------------------------------------------------------------
DATA16_C
  Relative segment, address: 5E8F - 5EF2 (0x64 bytes), align: 0
  Segment part 21.            Intra module refs:   BLE_GATTSSRVCRE
    -------------------------------------------------------------------------
DATA16_C
  Relative segment, address: 5EF3 - 5EF4 (0x2 bytes), align: 0
  Segment part 22.            Intra module refs:   BLE_GATTSSRVCRE
    -------------------------------------------------------------------------
DATA16_C
  Relative segment, address: 5EF5 - 5EF7 (0x3 bytes), align: 0
  Segment part 23.            Intra module refs:   BLE_GATTSSRVCRE
    -------------------------------------------------------------------------
DATA16_C
  Relative segment, address: 5EF8 - 5F0B (0x14 bytes), align: 0
  Segment part 24.            Intra module refs:   BLE_GATTSSRVSTART
    -------------------------------------------------------------------------
DATA16_C
  Relative segment, address: 5F0C - 5F6F (0x64 bytes), align: 0
  Segment part 25.            Intra module refs:   BLE_GATTSSRVSTART
    -------------------------------------------------------------------------
DATA16_C
  Relative segment, address: 5F70 - 5F7E (0xf bytes), align: 0
  Segment part 26.            Intra module refs:   BLE_ADVSTART
    -------------------------------------------------------------------------
DATA16_C
  Relative segment, address: 5F7F - 5FE2 (0x64 bytes), align: 0
  Segment part 27.            Intra module refs:   BLE_ADVSTART
    -------------------------------------------------------------------------
DATA16_C
  Relative segment, address: 5FE3 - 5FF9 (0x17 bytes), align: 0
  Segment part 28.            Intra module refs:   BLE_BLESPPCFG
    -------------------------------------------------------------------------
DATA16_C
  Relative segment, address: 5FFA - 605D (0x64 bytes), align: 0
  Segment part 29.            Intra module refs:   BLE_BLESPPCFG
    -------------------------------------------------------------------------
DATA16_C
  Relative segment, address: 605E - 6067 (0xa bytes), align: 0
  Segment part 30.            Intra module refs:   BLE_BLESP
    -------------------------------------------------------------------------
DATA16_C
  Relative segment, address: 6068 - 60CB (0x64 bytes), align: 0
  Segment part 31.            Intra module refs:   BLE_BLESP
    -------------------------------------------------------------------------
DATA16_C
  Relative segment, address: 60CC - 60CD (0x2 bytes), align: 0
  Segment part 32.            Intra module refs:   BLE_BLESP
    -------------------------------------------------------------------------
DATA16_C
  Relative segment, address: 60CE - 60CF (0x2 bytes), align: 0
  Segment part 33.            Intra module refs:   BLE_BLESP
    -------------------------------------------------------------------------
DATA16_C
  Relative segment, address: 60D0 - 60D8 (0x9 bytes), align: 0
  Segment part 34.            Intra module refs:   BLE_BLESPP
    -------------------------------------------------------------------------
DATA16_C
  Relative segment, address: 60D9 - 60E5 (0xd bytes), align: 0
  Segment part 35.            Intra module refs:   BLE_BLESPP
    -------------------------------------------------------------------------
DATA16_C
  Relative segment, address: 60E6 - 60ED (0x8 bytes), align: 0
  Segment part 36.            Intra module refs:   BLE_BLESPP
    -------------------------------------------------------------------------
DATA16_C
  Relative segment, address: 60EE - 60F1 (0x4 bytes), align: 0
  Segment part 37.            Intra module refs:   BLE_BLESPPEND
    -------------------------------------------------------------------------
DATA16_C
  Relative segment, address: 60F2 - 6155 (0x64 bytes), align: 0
  Segment part 38.            Intra module refs:   BLE_BLESPPEND
    -------------------------------------------------------------------------
DATA16_C
  Relative segment, address: 6156 - 6161 (0xc bytes), align: 0
  Segment part 39.            Intra module refs:   BLE_BLESPPEND
    -------------------------------------------------------------------------
DATA16_C
  Relative segment, address: 6162 - 616D (0xc bytes), align: 0
  Segment part 40.            Intra module refs:   BLE_INIT
    -------------------------------------------------------------------------
DATA16_C
  Relative segment, address: 616E - 6180 (0x13 bytes), align: 0
  Segment part 41.            Intra module refs:   BLE_INIT
    -------------------------------------------------------------------------
DATA16_C
  Relative segment, address: 6181 - 619C (0x1c bytes), align: 0
  Segment part 42.            Intra module refs:   BLE_INIT
    -------------------------------------------------------------------------
DATA16_C
  Relative segment, address: 619D - 61AE (0x12 bytes), align: 0
  Segment part 43.            Intra module refs:   BLE_Open
    -------------------------------------------------------------------------
DATA16_C
  Relative segment, address: 61AF - 61BB (0xd bytes), align: 0
  Segment part 44.            Intra module refs:   BLE_Open
    -------------------------------------------------------------------------
DATA16_C
  Relative segment, address: 61BC - 61CA (0xf bytes), align: 0
  Segment part 45.            Intra module refs:   BLE_Open
    -------------------------------------------------------------------------
DATA16_C
  Relative segment, address: 61CB - 61D8 (0xe bytes), align: 0
  Segment part 46.            Intra module refs:   BLE_Open
    -------------------------------------------------------------------------
DATA16_C
  Relative segment, address: 61D9 - 61EC (0x14 bytes), align: 0
  Segment part 47.            Intra module refs:   BLE_Open
    -------------------------------------------------------------------------
DATA16_C
  Relative segment, address: 61ED - 61FC (0x10 bytes), align: 0
  Segment part 48.            Intra module refs:   BLE_Open
    -------------------------------------------------------------------------
DATA16_C
  Relative segment, address: 61FD - 6208 (0xc bytes), align: 0
  Segment part 49.            Intra module refs:   BLE_CONNECT
    -------------------------------------------------------------------------
DATA16_C
  Relative segment, address: 6209 - 620C (0x4 bytes), align: 0
  Segment part 51.            Intra module refs:   BLE_CONNECT
    -------------------------------------------------------------------------
DATA16_C
  Relative segment, address: 620D - 6213 (0x7 bytes), align: 0
  Segment part 54.            Intra module refs:   BLE_RST
    -------------------------------------------------------------------------
DATA16_C
  Relative segment, address: 6214 - 6277 (0x64 bytes), align: 0
  Segment part 55.            Intra module refs:   BLE_RST
    -------------------------------------------------------------------------
DATA16_C
  Relative segment, address: 6278 - 627A (0x3 bytes), align: 0
  Segment part 56.            Intra module refs:   BLE_RST
    -------------------------------------------------------------------------
DATA16_C
  Relative segment, address: 627B - 6290 (0x16 bytes), align: 0
  Segment part 61.            Intra module refs:   BLE_MAIN
    -------------------------------------------------------------------------
DATA16_C
  Relative segment, address: 6291 - 62B0 (0x20 bytes), align: 0
  Segment part 62.            Intra module refs:   BLE_MAIN
    -------------------------------------------------------------------------
DATA16_C
  Relative segment, address: 62B1 - 62CD (0x1d bytes), align: 0
  Segment part 63.            Intra module refs:   BLE_MAIN
    -------------------------------------------------------------------------
DATA16_C
  Relative segment, address: 62CE - 62E3 (0x16 bytes), align: 0
  Segment part 64.            Intra module refs:   BLE_MAIN
    -------------------------------------------------------------------------
DATA16_C
  Relative segment, address: 62E4 - 62F0 (0xd bytes), align: 0
  Segment part 65.            Intra module refs:   BLE_MAIN
    -------------------------------------------------------------------------
DATA16_C
  Relative segment, address: 62F1 - 6304 (0x14 bytes), align: 0
  Segment part 66.            Intra module refs:   BLE_MAIN
    -------------------------------------------------------------------------
DATA16_C
  Relative segment, address: 6305 - 6313 (0xf bytes), align: 0
  Segment part 67.            Intra module refs:   BLE_MAIN
    -------------------------------------------------------------------------
DATA16_C
  Relative segment, address: 6314 - 633B (0x28 bytes), align: 0
  Segment part 68.            Intra module refs:   ble_init
    -------------------------------------------------------------------------
DATA16_C
  Relative segment, address: 633C - 6355 (0x1a bytes), align: 0
  Segment part 69.            Intra module refs:   BleDriverInstall
    -------------------------------------------------------------------------
DATA16_C
  Relative segment, address: 6356 - 6374 (0x1f bytes), align: 0
  Segment part 70.            Intra module refs:   BleDriverInstall
    -------------------------------------------------------------------------
DATA16_C
  Relative segment, address: 6375 - 6388 (0x14 bytes), align: 0
  Segment part 71.            Intra module refs:   ble_waiting_query
    -------------------------------------------------------------------------
DATA16_C
  Relative segment, address: 6389 - 639A (0x12 bytes), align: 0
  Segment part 72.            Intra module refs:   ble_waiting_query
    -------------------------------------------------------------------------
DATA16_C
  Relative segment, address: 639B - 63A2 (0x8 bytes), align: 0
  Segment part 73.            Intra module refs:   ble_waiting_query

    *************************************************************************

  FILE NAME : \\Mac\Home\work\ETL\Debug\Obj\camera.r43
  PROGRAM MODULE, NAME : camera

  SEGMENTS IN THE MODULE
  ======================
DATA16_C
  Relative segment, address: 63A3 - 63A9 (0x7 bytes), align: 0
  Segment part 3.             Intra module refs:   camera_TakeCmdSend
    -------------------------------------------------------------------------
DATA16_C
  Relative segment, address: 63AA - 63AF (0x6 bytes), align: 0
  Segment part 4.             Intra module refs:   camera_GetCmdSend
    -------------------------------------------------------------------------
DATA16_C
  Relative segment, address: 63B0 - 63BF (0x10 bytes), align: 0
  Segment part 5.             Intra module refs:   camera_InfoRead
           LOCAL                   ADDRESS         
           =====                   =======         
           camera_InfoRead::__FUNCTION__
                                   63B0 
    -------------------------------------------------------------------------
DATA16_C
  Relative segment, address: 63C0 - 63D9 (0x1a bytes), align: 0
  Segment part 7.             Intra module refs:   camera_InfoRead
    -------------------------------------------------------------------------
DATA16_C
  Relative segment, address: 63DA - 63F3 (0x1a bytes), align: 0
  Segment part 8.             Intra module refs:   camera_InfoRead
    -------------------------------------------------------------------------
DATA16_C
  Relative segment, address: 63F4 - 640D (0x1a bytes), align: 0
  Segment part 9.             Intra module refs:   camera_InfoRead
    -------------------------------------------------------------------------
DATA16_C
  Relative segment, address: 640E - 640F (0x2 bytes), align: 0
  Segment part 10.            Intra module refs:   camera_PicturePacketHead
    -------------------------------------------------------------------------
DATA16_C
  Relative segment, address: 6410 - 6424 (0x15 bytes), align: 0
  Segment part 11.            Intra module refs:   camera_PicturePacket
           LOCAL                   ADDRESS         
           =====                   =======         
           camera_PicturePacket::__FUNCTION__
                                   6410 
    -------------------------------------------------------------------------
DATA16_C
  Relative segment, address: 6425 - 642B (0x7 bytes), align: 0
  Segment part 16.            Intra module refs:   camera
           LOCAL                   ADDRESS         
           =====                   =======         
           camera::__FUNCTION__    6425 
    -------------------------------------------------------------------------
DATA16_C
  Relative segment, address: 642C - 6440 (0x15 bytes), align: 0
  Segment part 17.            Intra module refs:   camera
    -------------------------------------------------------------------------
DATA16_C
  Relative segment, address: 6441 - 6454 (0x14 bytes), align: 0
  Segment part 18.            Intra module refs:   camera
    -------------------------------------------------------------------------
DATA16_C
  Relative segment, address: 6455 - 6455 (0x1 bytes), align: 0
  Segment part 19.            Intra module refs:   camera_TakeCmdSend
           LOCAL                   ADDRESS         
           =====                   =======         
           reso                    6455 
    -------------------------------------------------------------------------
DATA16_Z
  Relative segment, address: 1D8C - 1D8F (0x4 bytes), align: 0
  Segment part 20.            Intra module refs:   camera_AckRead
                                                   camera_PictureGet
                                                   camera_PictureTake
           ENTRY                   ADDRESS         REF BY
           =====                   =======         ======
           ack                     1D8C 
    -------------------------------------------------------------------------
DATA16_Z
  Relative segment, address: 1D90 - 1D99 (0xa bytes), align: 0
  Segment part 21.            Intra module refs:   camera_InfoRead
                                                   camera_PictureTake
           ENTRY                   ADDRESS         REF BY
           =====                   =======         ======
           pic_info                1D90 
    -------------------------------------------------------------------------
DATA16_Z
  Relative segment, address: 1C98 - 1C99 (0x2 bytes), align: 1
  Segment part 22.            Intra module refs:   camera_DatapackRead
                                                   camera_PictureGet
                                                   camera_Take
           ENTRY                   ADDRESS         REF BY
           =====                   =======         ======
           pic_packet              1C98 
    -------------------------------------------------------------------------
DATA16_Z
  Relative segment, address: 1D9A - 1D9A (0x1 bytes), align: 0
  Segment part 23.            Intra module refs:   camera_InfoRead
           ENTRY                   ADDRESS         REF BY
           =====                   =======         ======
           device_id               1D9A            UART2_RX_ISR (uart2)
    -------------------------------------------------------------------------
DATA16_Z
  Relative segment, address: 1D9B - 1D9B (0x1 bytes), align: 0
  Segment part 24.            Intra module refs:   camera_PacketSend
                                                   camera_PicturePacketHead
           ENTRY                   ADDRESS         REF BY
           =====                   =======         ======
           pack_num_sd             1D9B 
    -------------------------------------------------------------------------
DATA16_Z
  Relative segment, address: 1D9C - 1D9C (0x1 bytes), align: 0
  Segment part 25.            Intra module refs:   camera_PacketSend
                                                   camera_PicturePacketHead
           ENTRY                   ADDRESS         REF BY
           =====                   =======         ======
           serial_num              1D9C 
    -------------------------------------------------------------------------
DATA16_Z
  Relative segment, address: 1D9D - 1DA2 (0x6 bytes), align: 0
  Segment part 26.            Intra module refs:   camera_PacketSend
                                                   camera_PicturePacketInfo
           ENTRY                   ADDRESS         REF BY
           =====                   =======         ======
           send_time               1D9D 
    -------------------------------------------------------------------------
DATA16_Z
  Relative segment, address: 1DA3 - 1DA7 (0x5 bytes), align: 0
  Segment part 27.            Intra module refs:   camera_PicturePacketInfo
                                                   camera_Take
           ENTRY                   ADDRESS         REF BY
           =====                   =======         ======
           shoot_time              1DA3 
    -------------------------------------------------------------------------
DATA16_Z
  Relative segment, address: 1DA8 - 1DA8 (0x1 bytes), align: 0
  Segment part 28.            Intra module refs:   camera_DatapackRead
                                                   camera_Take
           ENTRY                   ADDRESS         REF BY
           =====                   =======         ======
           last_packet             1DA8            UART2_RX_ISR (uart2)
    -------------------------------------------------------------------------
DATA16_Z
  Relative segment, address: 1C9A - 1CAD (0x14 bytes), align: 1
  Segment part 29.            Intra module refs:   camera_DatapackRead
                                                   camera_InfoRead
                                                   camera_Init
                                                   camera_PacketSend
                                                   camera_PictureGet
                                                   camera_Take
           ENTRY                   ADDRESS         REF BY
           =====                   =======         ======
           camera_i                1C9A            UART2_RX_ISR (uart2)
    -------------------------------------------------------------------------
DATA16_Z
  Relative segment, address: 1CAE - 1CC1 (0x14 bytes), align: 1
  Segment part 30.            Intra module refs:   camera_DatapackRead
                                                   camera_InfoRead
                                                   camera_Init
                                                   camera_PacketSend
                                                   camera_PictureGet
                                                   camera_Take
           ENTRY                   ADDRESS         REF BY
           =====                   =======         ======
           camera_ii               1CAE            UART2_RX_ISR (uart2)
    -------------------------------------------------------------------------
<CODE> 2 (was CODE)
  Relative segment, address: 000179A2 - 000179F5 (0x54 bytes), align: 1
  Segment part 33.            Intra module refs:   camera_PictureTake
           ENTRY                   ADDRESS         REF BY
           =====                   =======         ======
           camera_TakeCmdSend      000179A2 
               calls direct
    -------------------------------------------------------------------------
<CODE> 2 (was CODE)
  Relative segment, address: 000184BE - 000184FD (0x40 bytes), align: 1
  Segment part 34.            Intra module refs:   camera_PictureGet
           ENTRY                   ADDRESS         REF BY
           =====                   =======         ======
           camera_GetCmdSend       000184BE 
               calls direct
    -------------------------------------------------------------------------
<CODE> 2 (was CODE)
  Relative segment, address: 000193EA - 00019409 (0x20 bytes), align: 1
  Segment part 35.            Intra module refs:   camera_PictureGet
                                                   camera_PictureTake
           ENTRY                   ADDRESS         REF BY
           =====                   =======         ======
           camera_AckRead          000193EA 
               calls direct
    -------------------------------------------------------------------------
<CODE> 2 (was CODE)
  Relative segment, address: 00010000 - 00010197 (0x198 bytes), align: 1
  Segment part 36.            Intra module refs:   camera_PictureTake
           ENTRY                   ADDRESS         REF BY
           =====                   =======         ======
           camera_InfoRead         00010000 
               calls direct
    -------------------------------------------------------------------------
<CODE> 2 (was CODE)
  Relative segment, address: 00017B8E - 00017BDD (0x50 bytes), align: 1
  Segment part 37.            Intra module refs:   camera_PictureGet
           ENTRY                   ADDRESS         REF BY
           =====                   =======         ======
           camera_DatapackRead     00017B8E 
               calls direct
    -------------------------------------------------------------------------
<CODE> 2 (was CODE)
  Relative segment, address: 00018946 - 0001897D (0x38 bytes), align: 1
  Segment part 38.            Intra module refs:   camera_Take
           ENTRY                   ADDRESS         REF BY
           =====                   =======         ======
           camera_PictureTake      00018946 
               calls direct
    -------------------------------------------------------------------------
<CODE> 2 (was CODE)
  Relative segment, address: 000163C8 - 00016443 (0x7c bytes), align: 1
  Segment part 39.            Intra module refs:   camera_Take
           ENTRY                   ADDRESS         REF BY
           =====                   =======         ======
           camera_PictureGet       000163C8 
               calls direct
    -------------------------------------------------------------------------
<CODE> 2 (was CODE)
  Relative segment, address: 0001172A - 0001185B (0x132 bytes), align: 1
  Segment part 40.            Intra module refs:   camera_PicturePacket
           ENTRY                   ADDRESS         REF BY
           =====                   =======         ======
           camera_PicturePacketHead
                                   0001172A 
               calls direct
    -------------------------------------------------------------------------
<CODE> 2 (was CODE)
  Relative segment, address: 000133B8 - 0001349B (0xe4 bytes), align: 1
  Segment part 41.            Intra module refs:   camera_PicturePacket
           ENTRY                   ADDRESS         REF BY
           =====                   =======         ======
           camera_PicturePacketInfo
                                   000133B8 
               calls direct
    -------------------------------------------------------------------------
<CODE> 2 (was CODE)
  Relative segment, address: 00019044 - 0001906F (0x2c bytes), align: 1
  Segment part 42.            Intra module refs:   camera_PicturePacket
           ENTRY                   ADDRESS         REF BY
           =====                   =======         ======
           camera_PicturePacketElement
                                   00019044 
               calls direct
    -------------------------------------------------------------------------
<CODE> 2 (was CODE)
  Relative segment, address: 000104B6 - 00010631 (0x17c bytes), align: 1
  Segment part 43.            Intra module refs:   camera_PacketSend
           ENTRY                   ADDRESS         REF BY
           =====                   =======         ======
           camera_PicturePacket    000104B6 
               calls direct
    -------------------------------------------------------------------------
<CODE> 2 (was CODE)
  Relative segment, address: 00013654 - 0001372D (0xda bytes), align: 1
  Segment part 44.            Intra module refs:   camera
           ENTRY                   ADDRESS         REF BY
           =====                   =======         ======
           camera_Take             00013654 
               calls direct
    -------------------------------------------------------------------------
<CODE> 2 (was CODE)
  Relative segment, address: 000140D6 - 00014189 (0xb4 bytes), align: 1
  Segment part 45.            Intra module refs:   camera
           ENTRY                   ADDRESS         REF BY
           =====                   =======         ======
           camera_PacketSend       000140D6 
               calls direct
    -------------------------------------------------------------------------
<CODE> 2 (was CODE)
  Relative segment, address: 00018334 - 00018375 (0x42 bytes), align: 1
  Segment part 46.            Intra module refs:   camera
           ENTRY                   ADDRESS         REF BY
           =====                   =======         ======
           camera_Init             00018334 
    -------------------------------------------------------------------------
<CODE> 2 (was CODE)
  Relative segment, address: 0001951E - 0001953B (0x1e bytes), align: 1
  Segment part 47.            Intra module refs:   camera
           ENTRY                   ADDRESS         REF BY
           =====                   =======         ======
           camera_change           0001951E 
    -------------------------------------------------------------------------
<CODE> 2 (was CODE)
  Relative segment, address: 00017026 - 0001708B (0x66 bytes), align: 1
  Segment part 48.
           ENTRY                   ADDRESS         REF BY
           =====                   =======         ======
           camera                  00017026        hydrologyProcessSend (message)
               calls direct

    *************************************************************************

  FILE NAME : \\Mac\Home\work\ETL\Debug\Obj\common.r43
  PROGRAM MODULE, NAME : common

  SEGMENTS IN THE MODULE
  ======================
DATA16_AN
  Relative segment, address: 021A - 021B (0x2 bytes), align: 0
  Segment part 1. ROOT        Intra module refs:   Restart_Init (main)
           ENTRY                   ADDRESS         REF BY
           =====                   =======         ======
           _A_PAIE_L               021A 
           LOCAL                   ADDRESS         
           =====                   =======         
           PAIE                    021A 
           PAIE_H                  021B 
           PAIE_L                  021A 
    -------------------------------------------------------------------------
DATA16_AN
  Relative segment, address: 021C - 021D (0x2 bytes), align: 0
  Segment part 2. ROOT        Intra module refs:   PORT1_ISR (Sampler)
           ENTRY                   ADDRESS         REF BY
           =====                   =======         ======
           _A_PAIFG_L              021C 
           LOCAL                   ADDRESS         
           =====                   =======         
           PAIFG                   021C 
           PAIFG_H                 021D 
           PAIFG_L                 021C 
    -------------------------------------------------------------------------
DATA16_AN
  Relative segment, address: 026A - 026B (0x2 bytes), align: 0
  Segment part 5. ROOT        Intra module refs:   Clock_Init
           ENTRY                   ADDRESS         REF BY
           =====                   =======         ======
           _A_PDSEL_L              026A 
           LOCAL                   ADDRESS         
           =====                   =======         
           PDSEL                   026A 
           PDSEL_H                 026B 
           PDSEL_L                 026A 
    -------------------------------------------------------------------------
DATA16_AN
  Relative segment, address: 0120 - 0121 (0x2 bytes), align: 0
  Segment part 8. ROOT        Intra module refs:   Set_Vcore
           ENTRY                   ADDRESS         REF BY
           =====                   =======         ======
           _A_PMMCTL0_L            0120 
           LOCAL                   ADDRESS         
           =====                   =======         
           PMMCTL0                 0120 
           PMMCTL0_H               0121 
           PMMCTL0_L               0120 
    -------------------------------------------------------------------------
DATA16_AN
  Relative segment, address: 0124 - 0125 (0x2 bytes), align: 0
  Segment part 9. ROOT        Intra module refs:   Set_Vcore
           ENTRY                   ADDRESS         REF BY
           =====                   =======         ======
           _A_SVSMHCTL_L           0124 
           LOCAL                   ADDRESS         
           =====                   =======         
           SVSMHCTL                0124 
           SVSMHCTL_H              0125 
           SVSMHCTL_L              0124 
    -------------------------------------------------------------------------
DATA16_AN
  Relative segment, address: 0126 - 0127 (0x2 bytes), align: 0
  Segment part 10. ROOT       Intra module refs:   Set_Vcore
           ENTRY                   ADDRESS         REF BY
           =====                   =======         ======
           _A_SVSMLCTL_L           0126 
           LOCAL                   ADDRESS         
           =====                   =======         
           SVSMLCTL                0126 
           SVSMLCTL_H              0127 
           SVSMLCTL_L              0126 
    -------------------------------------------------------------------------
DATA16_AN
  Relative segment, address: 012C - 012D (0x2 bytes), align: 0
  Segment part 11. ROOT       Intra module refs:   Set_Vcore
           ENTRY                   ADDRESS         REF BY
           =====                   =======         ======
           _A_PMMIFG_L             012C 
           LOCAL                   ADDRESS         
           =====                   =======         
           PMMIFG                  012C 
           PMMIFG_H                012D 
           PMMIFG_L                012C 
    -------------------------------------------------------------------------
DATA16_AN
  Relative segment, address: 0102 - 0103 (0x2 bytes), align: 0
  Segment part 12. ROOT       Intra module refs:   Clock_ACLK_DIV
                                                   Clock_Init
                                                   Clock_SMCLK_DIV
           ENTRY                   ADDRESS         REF BY
           =====                   =======         ======
           _A_SFRIFG1_L            0102 
           LOCAL                   ADDRESS         
           =====                   =======         
           SFRIFG1                 0102 
           SFRIFG1_H               0103 
           SFRIFG1_L               0102 
    -------------------------------------------------------------------------
DATA16_AN
  Relative segment, address: 0168 - 0169 (0x2 bytes), align: 0
  Segment part 13. ROOT       Intra module refs:   Clock_Init
           ENTRY                   ADDRESS         REF BY
           =====                   =======         ======
           _A_UCSCTL4_L            0168 
           LOCAL                   ADDRESS         
           =====                   =======         
           UCSCTL4                 0168 
           UCSCTL4_H               0169 
           UCSCTL4_L               0168 
    -------------------------------------------------------------------------
DATA16_AN
  Relative segment, address: 016A - 016B (0x2 bytes), align: 0
  Segment part 14. ROOT       Intra module refs:   Clock_ACLK_DIV
                                                   Clock_SMCLK_DIV
           ENTRY                   ADDRESS         REF BY
           =====                   =======         ======
           _A_UCSCTL5_L            016A 
           LOCAL                   ADDRESS         
           =====                   =======         
           UCSCTL5                 016A 
           UCSCTL5_H               016B 
           UCSCTL5_L               016A 
    -------------------------------------------------------------------------
DATA16_AN
  Relative segment, address: 016C - 016D (0x2 bytes), align: 0
  Segment part 15. ROOT       Intra module refs:   Clock_Init
           ENTRY                   ADDRESS         REF BY
           =====                   =======         ======
           _A_UCSCTL6_L            016C 
           LOCAL                   ADDRESS         
           =====                   =======         
           UCSCTL6                 016C 
           UCSCTL6_H               016D 
           UCSCTL6_L               016C 
    -------------------------------------------------------------------------
DATA16_AN
  Relative segment, address: 016E - 016F (0x2 bytes), align: 0
  Segment part 16. ROOT       Intra module refs:   Clock_Init
           ENTRY                   ADDRESS         REF BY
           =====                   =======         ======
           _A_UCSCTL7_L            016E 
           LOCAL                   ADDRESS         
           =====                   =======         
           UCSCTL7                 016E 
           UCSCTL7_H               016F 
           UCSCTL7_L               016E 
    -------------------------------------------------------------------------
DATA16_AN
  Relative segment, address: 015C - 015D (0x2 bytes), align: 0
  Segment part 17. ROOT       Intra module refs:   Clock_Init
                                                   System_Reset
                                                   WatchDog_Clear (timer)
                                                   WatchDog_Init (timer)
           ENTRY                   ADDRESS         REF BY
           =====                   =======         ======
           _A_WDTCTL_L             015C 
           LOCAL                   ADDRESS         
           =====                   =======         
           WDTCTL                  015C 
           WDTCTL_H                015D 
           WDTCTL_L                015C 
    -------------------------------------------------------------------------
DATA16_Z
  Relative segment, address: 1CC2 - 1CC3 (0x2 bytes), align: 1
  Segment part 50.            Intra module refs:   TraceFunctionLine
                                                   TraceHexMsgFuncLine
                                                   TraceInt4FuncLine
                                                   TraceMsgFuncLine
                                                   TraceOpen
           ENTRY                   ADDRESS         REF BY
           =====                   =======         ======
           trace_open              1CC2            WIFI_Open (wifi_config)
    -------------------------------------------------------------------------
DATA16_Z
  Relative segment, address: 1CC4 - 1CC5 (0x2 bytes), align: 1
  Segment part 51.            Intra module refs:   System_Delayms
                                                   System_Delayus
           LOCAL                   ADDRESS         
           =====                   =======         
           s_clock                 1CC4 
    -------------------------------------------------------------------------
DATA16_Z
  Relative segment, address: 1CC6 - 1CC7 (0x2 bytes), align: 1
  Segment part 52.            Intra module refs:   DownInt
                                                   UpInt
           LOCAL                   ADDRESS         
           =====                   =======         
           _int                    1CC6 
    -------------------------------------------------------------------------
DATA16_Z
  Relative segment, address: 1CC8 - 1CC9 (0x2 bytes), align: 1
  Segment part 53.            Intra module refs:   Clear_ExternWatchdog
           LOCAL                   ADDRESS         
           =====                   =======         
           s_reset_pin             1CC8 
    -------------------------------------------------------------------------
<CODE> 2 (was CODE)
  Relative segment, address: 00019A98 - 00019AA5 (0xe bytes), align: 1
  Segment part 54.
           ENTRY                   ADDRESS         REF BY
           =====                   =======         ======
           TraceOpen               00019A98        Main_Init (main)
               calls direct
    -------------------------------------------------------------------------
<CODE> 2 (was CODE)
  Relative segment, address: 000193CA - 000193E9 (0x20 bytes), align: 1
  Segment part 55.            Intra module refs:   TraceHexMsgFuncLine
                                                   TraceInt4FuncLine
                                                   TraceMsgFuncLine
           ENTRY                   ADDRESS         REF BY
           =====                   =======         ======
           TraceFunctionLine       000193CA 
               calls direct
    -------------------------------------------------------------------------
<CODE> 2 (was CODE)
  Relative segment, address: 0001942A - 00019449 (0x20 bytes), align: 1
  Segment part 56.
           ENTRY                   ADDRESS         REF BY
           =====                   =======         ======
           TraceHexMsgFuncLine     0001942A        HydrologyInstantWaterLevel (hydrologytask)
                                                   Hydrology_ProcessBLEReceieve (uart_config)
                                                   Hydrology_ProcessGPRSReceieve (GTM900C)
                                                   Hydrology_ProcessUARTReceieve (uart_config)
                                                   Hydrology_SendData (message)
                                                   OpenTran (ec200)
                                                   RS485_Read (hydrologycommand)
                                                   RS485_Send (hydrologycommand)
                                                   camera_InfoRead (camera)
                                                   camera_PicturePacket (camera)
               calls direct
    -------------------------------------------------------------------------
<CODE> 2 (was CODE)
  Relative segment, address: 00018D78 - 00018DA9 (0x32 bytes), align: 1
  Segment part 57.            Intra module refs:   System_Reset
           ENTRY                   ADDRESS         REF BY
           =====                   =======         ======
           TraceMsgFuncLine        00018D78        FlowCheckSampleData (flow)
                                                   GPRS_AT_ActiveGPRSNet (GTM900C)
                                                   GPRS_AT_CheckSimStat (GTM900C)
                                                   GPRS_AT_OpenTCPLink (GTM900C)
                                                   GPRS_AT_QueryIP (GTM900C)
                                                   GPRS_AT_QueryOperater (GTM900C)
                                                   GPRS_AT_SetAPN (GTM900C)
                                                   GPRS_AT_SetIOMode (GTM900C)
                                                   GPRS_Send (GTM900C)
                                                   GRPS_AT_Send (GTM900C)
                                                   GSM_AT_CloseFeedback (GSM)
                                                   GSM_Close (GSM)
                                                   GSM_DealData (GSM)
                                                   GSM_Open (GSM)
                                                   HydrologyInstantWaterLevel (hydrologytask)
                                                   HydrologySample (hydrologytask)
                                                   HydrologySaveData (hydrologytask)
                                                   Hydrology_InitWaitConfig (uart_config)
                                                   Hydrology_Printf (message)
                                                   Hydrology_SendData (message)
                                                   Hydrology_TimeCheck (hydrologytask)
                                                   OpenTran (ec200)
                                                   PORT1_ISR (Sampler)
                                                   PowerOff (ec200)
                                                   PowerOn (ec200)
                                                   TryToSyncTime (hydrologytask)
                                                   UART2_RX_ISR (uart2)
                                                   WIFI_Open (wifi_config)
                                                   camera (camera)
                                                   camera_InfoRead (camera)
                                                   main (main)
               calls direct
    -------------------------------------------------------------------------
<CODE> 2 (was CODE)
  Relative segment, address: 00017FBE - 00018003 (0x46 bytes), align: 1
  Segment part 62.
           ENTRY                   ADDRESS         REF BY
           =====                   =======         ======
           TraceInt4FuncLine       00017FBE        FlowCheckSampleData (flow)
                                                   HydrologyInstantWaterLevel (hydrologytask)
                                                   HydrologyUpdateElementTable (hydrologytask)
                                                   PORT1_ISR (Sampler)
                                                   UART1_RecvLineTry (uart1)
                                                   UART2_RecvLineTry (uart2)
                                                   UART3_RecvLineTry (uart3)
                                                   hydrologySetPara (hydrologycommand)
               calls direct
    -------------------------------------------------------------------------
<CODE> 2 (was CODE)
  Relative segment, address: 000171B8 - 0001721B (0x64 bytes), align: 1
  Segment part 63.
           ENTRY                   ADDRESS         REF BY
           =====                   =======         ======
           hex_2_ascii             000171B8        GPRS_Send (GTM900C)
                                                   Hydrology_SendData (message)
                                                   Hydrology_SetTime (message)
               calls direct
    -------------------------------------------------------------------------
<CODE> 2 (was CODE)
  Relative segment, address: 00019248 - 0001926D (0x26 bytes), align: 1
  Segment part 64.
           ENTRY                   ADDRESS         REF BY
           =====                   =======         ======
           Utility_atoi            00019248        GRPS_AT_Receive_Response (GTM900C)
    -------------------------------------------------------------------------
<CODE> 2 (was CODE)
  Relative segment, address: 0001897E - 000189B5 (0x38 bytes), align: 1
  Segment part 65.            Intra module refs:   Clock_Init
                                                   Select_Debug_Mode
                                                   System_Reset
           ENTRY                   ADDRESS         REF BY
           =====                   =======         ======
           System_Delayms          0001897E        ADC_Open (adc)
                                                   ADC_Sample (adc)
                                                   ATTEST (blueTooth)
                                                   BLE_BLESP (blueTooth)
                                                   BLE_BLESPP (blueTooth)
                                                   BLE_BLESPPEND (blueTooth)
                                                   BLE_CONNECT (blueTooth)
                                                   BLE_GATTSSRVCRE (blueTooth)
                                                   BLE_INIT (blueTooth)
                                                   BLE_MAIN (blueTooth)
                                                   BLE_Open (blueTooth)
                                                   BLE_SendAtCmd (blueTooth)
                                                   CloseTran (ec200)
                                                   Ec200Poweron (ec200)
                                                   ExitTTMode (ec200)
                                                   GPRS_AT_CheckSimStat (GTM900C)
                                                   GPRS_Close_GSM (GTM900C)
                                                   GPRS_Print_Error (GTM900C)
                                                   GPRS_Proc_AT_Response (GTM900C)
                                                   GPRS_Send (GTM900C)
                                                   GRPS_AT_Send (GTM900C)
                                                   GSM_Close (GSM)
                                                   GSM_Open (GSM)
                                                   HydrologyDataPacketInit (hydrologytask)
                                                   HydrologyInstantWaterLevel (hydrologytask)
                                                   Hydrology_InitWaitConfig (uart_config)
                                                   Hydrology_ProcessUARTReceieve (uart_config)
                                                   Hydrology_TimeCheck (hydrologytask)
                                                   I2C_STOP (rom)
                                                   Led_Round (led)
                                                   Led_WARN1 (led)
                                                   OpenTran (ec200)
                                                   PowerOff (ec200)
                                                   PowerOn (ec200)
                                                   QueryCerg (ec200)
                                                   QuerySIMSignal (ec200)
                                                   RS485_Delayms (hydrologycommand)
                                                   RS485_Read (hydrologycommand)
                                                   RTC_Open (rtc)
                                                   Sampler_Open (Sampler)
                                                   SetNoEcho (ec200)
                                                   TransmissionActivation (ec200)
                                                   TransmissionConfiguration (ec200)
                                                   TransmissionDeactivation (ec200)
                                                   TransmissionInit (ec200)
                                                   TryToSyncTime (hydrologytask)
                                                   UART0_RecvLineWait (uart0)
                                                   UART0_Send (uart0)
                                                   UART1_Send (uart1)
                                                   UART2_RecvLineLongWait (uart2)
                                                   UART2_RecvLineWait (uart2)
                                                   UART2_Send (uart2)
                                                   UART3_Send (uart3)
                                                   WIFI_InitCmd (wifi_config)
                                                   WIFI_Open (wifi_config)
                                                   WIFI_SendData (wifi_config)
                                                   WIFI_Server_Start (wifi_config)
                                                   WIFI_WaitSendResult (wifi_config)
                                                   camera (camera)
                                                   get_time (ec200)
                                                   setWakeupInterval (main)
    -------------------------------------------------------------------------
<CODE> 2 (was CODE)
  Relative segment, address: 00018B6E - 00018BA3 (0x36 bytes), align: 1
  Segment part 66.
           ENTRY                   ADDRESS         REF BY
           =====                   =======         ======
           System_Delayus          00018B6E        HydrologyUpdateElementTable (hydrologytask)
                                                   RS485_Delayus (hydrologycommand)
                                                   main (main)
    -------------------------------------------------------------------------
<CODE> 2 (was CODE)
  Relative segment, address: 00019B6A - 00019B73 (0xa bytes), align: 1
  Segment part 67.
           ENTRY                   ADDRESS         REF BY
           =====                   =======         ======
           DownInt                 00019B6A        ROM_Init (rom)
                                                   ROM_ReadByte (rom)
                                                   ROM_ReadBytes_Page (rom)
                                                   ROM_WriteByte (rom)
                                                   ROM_WriteBytes_Page_ (rom)
                                                   RTC_Open (rtc)
                                                   RTC_ReadTimeBytes5 (rtc)
                                                   RTC_ReadTimeBytes6 (rtc)
                                                   RTC_RetrievePulseBytes (rtc)
                                                   RTC_SetTimeStr6_B (rtc)
                                                   UART0_ClearBuffer (uart0)
                                                   UART1_ClearBuffer (uart1)
                                                   UART2_ClearBuffer (uart2)
                                                   UART3_ClearBuffer (uart3)
    -------------------------------------------------------------------------
<CODE> 2 (was CODE)
  Relative segment, address: 0001977C - 00019793 (0x18 bytes), align: 1
  Segment part 68.
           ENTRY                   ADDRESS         REF BY
           =====                   =======         ======
           UpInt                   0001977C        ROM_Init (rom)
                                                   ROM_ReadByte (rom)
                                                   ROM_ReadBytes_Page (rom)
                                                   ROM_WriteByte (rom)
                                                   ROM_WriteBytes_Page_ (rom)
                                                   RTC_Open (rtc)
                                                   RTC_ReadTimeBytes5 (rtc)
                                                   RTC_ReadTimeBytes6 (rtc)
                                                   RTC_RetrievePulseBytes (rtc)
                                                   RTC_SetTimeStr6_B (rtc)
                                                   UART0_ClearBuffer (uart0)
                                                   UART1_ClearBuffer (uart1)
                                                   UART2_ClearBuffer (uart2)
                                                   UART3_ClearBuffer (uart3)
    -------------------------------------------------------------------------
<CODE> 2 (was CODE)
  Relative segment, address: 00019C60 - 00019C65 (0x6 bytes), align: 1
  Segment part 72.
           ENTRY                   ADDRESS         REF BY
           =====                   =======         ======
           EnInt                   00019C60        Main_Init (main)
    -------------------------------------------------------------------------
<CODE> 2 (was CODE)
  Relative segment, address: 00019AB4 - 00019AC1 (0xe bytes), align: 1
  Segment part 73.            Intra module refs:   Select_Debug_Mode
           ENTRY                   ADDRESS         REF BY
           =====                   =======         ======
           Max3222_Open            00019AB4 
    -------------------------------------------------------------------------
<CODE> 2 (was CODE)
  Relative segment, address: 00019ADE - 00019AEB (0xe bytes), align: 1
  Segment part 74.            Intra module refs:   Select_Debug_Mode
           ENTRY                   ADDRESS         REF BY
           =====                   =======         ======
           Max3222_Close           00019ADE 
    -------------------------------------------------------------------------
<CODE> 2 (was CODE)
  Relative segment, address: 00018FC0 - 00018FEB (0x2c bytes), align: 1
  Segment part 75.
           ENTRY                   ADDRESS         REF BY
           =====                   =======         ======
           Select_Debug_Mode       00018FC0        main (main)
               calls direct
    -------------------------------------------------------------------------
<CODE> 2 (was CODE)
  Relative segment, address: 0001944A - 00019469 (0x20 bytes), align: 1
  Segment part 76.
           ENTRY                   ADDRESS         REF BY
           =====                   =======         ======
           System_Reset            0001944A        HydrologyInstantWaterLevel (hydrologytask)
                                                   Hydrology_TimeCheck (hydrologytask)
                                                   TIMERB1_ISR (timer)
               calls direct
    -------------------------------------------------------------------------
<CODE> 2 (was CODE)
  Relative segment, address: 00016FBE - 00017025 (0x68 bytes), align: 1
  Segment part 77.            Intra module refs:   Clock_Init
           ENTRY                   ADDRESS         REF BY
           =====                   =======         ======
           Clock_SMCLK_DIV         00016FBE 
    -------------------------------------------------------------------------
<CODE> 2 (was CODE)
  Relative segment, address: 00016EEE - 00016F55 (0x68 bytes), align: 1
  Segment part 78.            Intra module refs:   Clock_Init
           ENTRY                   ADDRESS         REF BY
           =====                   =======         ======
           Clock_ACLK_DIV          00016EEE 
    -------------------------------------------------------------------------
<CODE> 2 (was CODE)
  Relative segment, address: 0001794C - 000179A1 (0x56 bytes), align: 1
  Segment part 79.            Intra module refs:   Clock_Init
           ENTRY                   ADDRESS         REF BY
           =====                   =======         ======
           Set_Vcore               0001794C 
    -------------------------------------------------------------------------
<CODE> 2 (was CODE)
  Relative segment, address: 000174B6 - 00017511 (0x5c bytes), align: 1
  Segment part 80.
           ENTRY                   ADDRESS         REF BY
           =====                   =======         ======
           Clock_Init              000174B6        Restart_Init (main)
               calls direct
    -------------------------------------------------------------------------
<CODE> 2 (was CODE)
  Relative segment, address: 000197D8 - 000197ED (0x16 bytes), align: 1
  Segment part 82.
           ENTRY                   ADDRESS         REF BY
           =====                   =======         ======
           Utility_Strlen          000197D8        Console_WriteString (Console)
                                                   Console_WriteStringln (Console)
                                                   Ec200Send (ec200)
                                                   Ec200SendWithCR (ec200)
                                                   GPRS_AT_OpenTCPLink (GTM900C)
                                                   GPRS_AT_SetAPN (GTM900C)
                                                   OpenTran (ec200)
                                                   WIFI_InitCmd (wifi_config)
                                                   WIFI_SendData (wifi_config)
                                                   WIFI_Server_Start (wifi_config)
    -------------------------------------------------------------------------
<CODE> 2 (was CODE)
  Relative segment, address: 0001953C - 00019557 (0x1c bytes), align: 1
  Segment part 81.            Intra module refs:   Utility_Is_A_CheckTime
                                                   Utility_Is_A_SaveTime
           ENTRY                   ADDRESS         REF BY
           =====                   =======         ======
           Utility_Strncpy         0001953C        GPRS_AT_OpenTCPLink (GTM900C)
                                                   GPRS_AT_SetAPN (GTM900C)
                                                   GRPS_AT_Receive_Response (GTM900C)
                                                   GRPS_AT_Send (GTM900C)
                                                   HydrologyInstantWaterLevel (hydrologytask)
                                                   HydrologySample (hydrologytask)
                                                   HydrologySaveData (hydrologytask)
                                                   OpenTran (ec200)
    -------------------------------------------------------------------------
<CODE> 2 (was CODE)
  Relative segment, address: 000192B6 - 000192D9 (0x24 bytes), align: 1
  Segment part 92.
           ENTRY                   ADDRESS         REF BY
           =====                   =======         ======
           Utility_Strncmp         000192B6        GPRS_AT_CheckSimStat_Response (GTM900C)
                                                   GPRS_AT_CloseTCPLink_Response (GTM900C)
                                                   GPRS_AT_OFF_CALL (GTM900C)
                                                   GPRS_AT_OpenTCPLink (GTM900C)
                                                   GPRS_AT_QueryIP_Response (GTM900C)
                                                   GPRS_AT_QueryOperater_Response (GTM900C)
                                                   GPRS_AT_QueryRemainData_Response (GTM900C)
                                                   GPRS_AT_QueryTCPLink_Response (GTM900C)
                                                   GPRS_AT_QuitGPRSNet_Response (GTM900C)
                                                   GPRS_AT_SetIOMode_Response (GTM900C)
                                                   GPRS_PrepareForSend (GTM900C)
                                                   GPRS_SubProc_AT_ResponseOne (GTM900C)
                                                   GPRS_SubProc_AT_ResponseTwo (GTM900C)
                                                   GRPS_AT_Receive_Response (GTM900C)
                                                   GRPS_AT_Send_Response (GTM900C)
                                                   GSM_AT_CloseFeedback (GSM)
                                                   GSM_AT_OffCall (GSM)
                                                   GSM_AT_ShutDown (GSM)
                                                   GSM_DealData (GSM)
                                                   OpenTran (ec200)
                                                   WIFI_WaitSendResult (wifi_config)
    -------------------------------------------------------------------------
<CODE> 2 (was CODE)
  Relative segment, address: 000180D4 - 00018117 (0x44 bytes), align: 1
  Segment part 93.
           ENTRY                   ADDRESS         REF BY
           =====                   =======         ======
           Utility_CharToHex       000180D4        Console_WriteHexCharln (Console)
    -------------------------------------------------------------------------
<CODE> 2 (was CODE)
  Relative segment, address: 00016D40 - 00016DAB (0x6c bytes), align: 1
  Segment part 59.            Intra module refs:   TraceInt4FuncLine
           ENTRY                   ADDRESS         REF BY
           =====                   =======         ======
           Utility_UintToStr4      00016D40        Console_WriteInt (Console)
                                                   Hydrology_SetDataPacketCount (message)
                                                   Hydrology_SetEndIdx (message)
                                                   Hydrology_SetStartIdx (message)
               calls direct
    -------------------------------------------------------------------------
<CODE> 1 (was CODE)
  Relative segment, address: F100 - F345 (0x246 bytes), align: 1
  Segment part 111.
           ENTRY                   ADDRESS         REF BY
           =====                   =======         ======
           Utility_Is_A_CheckTime
                                   F100            HydrologySample (hydrologytask)
               calls direct
    -------------------------------------------------------------------------
<CODE> 1 (was CODE)
  Relative segment, address: F346 - F58B (0x246 bytes), align: 1
  Segment part 112.
           ENTRY                   ADDRESS         REF BY
           =====                   =======         ======
           Utility_Is_A_SaveTime   F346            HydrologySaveData (hydrologytask)
               calls direct
    -------------------------------------------------------------------------
<CODE> 1 (was CODE)
  Relative segment, address: F58C - F7B9 (0x22e bytes), align: 1
  Segment part 113.
           ENTRY                   ADDRESS         REF BY
           =====                   =======         ======
           Utility_Is_A_ReportTime
                                   F58C            HydrologyInstantWaterLevel (hydrologytask)
               calls direct
    -------------------------------------------------------------------------
<CODE> 2 (was CODE)
  Relative segment, address: 00019488 - 000194A5 (0x1e bytes), align: 1
  Segment part 121.
           ENTRY                   ADDRESS         REF BY
           =====                   =======         ======
           Clear_ExternWatchdog    00019488        TIMERB1_ISR (timer)
    -------------------------------------------------------------------------
DATA16_C
  Relative segment, address: 6456 - 6457 (0x2 bytes), align: 0
  Segment part 19.            Intra module refs:   TraceFunctionLine
    -------------------------------------------------------------------------
DATA16_C
  Relative segment, address: 5C00 - 5C11 (0x12 bytes), align: 1
  Segment part 20.            Intra module refs:   hex_2_ascii
    -------------------------------------------------------------------------
DATA16_C
  Relative segment, address: 6458 - 6464 (0xd bytes), align: 0
  Segment part 21.            Intra module refs:   System_Reset
           LOCAL                   ADDRESS         
           =====                   =======         
           System_Reset::__FUNCTION__
                                   6458 
    -------------------------------------------------------------------------
DATA16_C
  Relative segment, address: 6465 - 6471 (0xd bytes), align: 0
  Segment part 22.            Intra module refs:   System_Reset

    *************************************************************************

  FILE NAME : \\Mac\Home\work\ETL\Debug\Obj\comp_b.r43
    *************************************************************************

  FILE NAME : \\Mac\Home\work\ETL\Debug\Obj\Console.r43
  PROGRAM MODULE, NAME : Console

  SEGMENTS IN THE MODULE
  ======================
<CODE> 2 (was CODE)
  Relative segment, address: 00019B60 - 00019B69 (0xa bytes), align: 1
  Segment part 6.
           ENTRY                   ADDRESS         REF BY
           =====                   =======         ======
           Console_Open            00019B60        Restart_Init (main)
                                                   Store_ReadPulseRangeBytes (store)
                                                   TraceOpen (common)
               calls direct
    -------------------------------------------------------------------------
<CODE> 2 (was CODE)
  Relative segment, address: 00019BF2 - 00019BF9 (0x8 bytes), align: 1
  Segment part 7.
           ENTRY                   ADDRESS         REF BY
           =====                   =======         ======
           Console_Close           00019BF2        TraceOpen (common)
               calls direct
    -------------------------------------------------------------------------
<CODE> 2 (was CODE)
  Relative segment, address: 0001727E - 000172DD (0x60 bytes), align: 1
  Segment part 10.
           ENTRY                   ADDRESS         REF BY
           =====                   =======         ======
           Console_WriteHexCharln
                                   0001727E        TraceHexMsgFuncLine (common)
               calls direct
    -------------------------------------------------------------------------
<CODE> 2 (was CODE)
  Relative segment, address: 000184FE - 0001853D (0x40 bytes), align: 1
  Segment part 11.
           ENTRY                   ADDRESS         REF BY
           =====                   =======         ======
           Console_WriteString     000184FE        TraceFunctionLine (common)
                                                   TraceMsgFuncLine (common)
               calls direct
    -------------------------------------------------------------------------
<CODE> 2 (was CODE)
  Relative segment, address: 0001857E - 000185BD (0x40 bytes), align: 1
  Segment part 9.             Intra module refs:   Console_WriteHexCharln
           ENTRY                   ADDRESS         REF BY
           =====                   =======         ======
           Console_WriteStringln   0001857E        CloseTran (ec200)
                                                   Ec200RecvMsg (ec200)
                                                   GPRS_AT_ActiveGPRSNet (GTM900C)
                                                   GPRS_AT_CheckSimStat (GTM900C)
                                                   GPRS_AT_OpenTCPLink (GTM900C)
                                                   GPRS_AT_QueryIP (GTM900C)
                                                   GPRS_AT_QueryOperater (GTM900C)
                                                   GPRS_AT_SetAPN (GTM900C)
                                                   GPRS_AT_SetIOMode (GTM900C)
                                                   GPRS_Print_Error (GTM900C)
                                                   GPRS_Send (GTM900C)
                                                   GRPS_AT_Receive_Response (GTM900C)
                                                   GRPS_AT_Send (GTM900C)
                                                   GSM_AT_CloseFeedback (GSM)
                                                   OpenTran (ec200)
                                                   QueryCerg (ec200)
                                                   QuerySIMSignal (ec200)
                                                   SetNoEcho (ec200)
                                                   TraceMsgFuncLine (common)
                                                   TransmissionActivation (ec200)
                                                   TransmissionConfiguration (ec200)
                                                   TransmissionDeactivation (ec200)
                                                   get_time (ec200)
               calls direct
    -------------------------------------------------------------------------
<CODE> 2 (was CODE)
  Relative segment, address: 000191D6 - 000191FB (0x26 bytes), align: 1
  Segment part 12.
           ENTRY                   ADDRESS         REF BY
           =====                   =======         ======
           Console_WriteBytes      000191D6        TraceInt4FuncLine (common)
               calls direct
    -------------------------------------------------------------------------
<CODE> 2 (was CODE)
  Relative segment, address: 0001918A - 000191AF (0x26 bytes), align: 1
  Segment part 8.             Intra module refs:   Console_WriteHexCharln
                                                   Console_WriteInt
           ENTRY                   ADDRESS         REF BY
           =====                   =======         ======
           Console_WriteBytesln    0001918A        TraceInt4FuncLine (common)
               calls direct
    -------------------------------------------------------------------------
<CODE> 2 (was CODE)
  Relative segment, address: 000196B8 - 000196D1 (0x1a bytes), align: 1
  Segment part 13.
           ENTRY                   ADDRESS         REF BY
           =====                   =======         ======
           Console_WriteInt        000196B8        TraceFunctionLine (common)
               calls direct
    -------------------------------------------------------------------------
DATA16_C
  Relative segment, address: 6472 - 6496 (0x25 bytes), align: 0
  Segment part 2.             Intra module refs:   Console_WriteHexCharln

    *************************************************************************

  FILE NAME : \\Mac\Home\work\ETL\Debug\Obj\crc.r43
    *************************************************************************

  FILE NAME : \\Mac\Home\work\ETL\Debug\Obj\cstartup.r43
  LIBRARY MODULE, NAME : ?cstart

Absolute parts
           LOCAL                   ADDRESS         
           =====                   =======         
           __MSP430F5212__         0000 
  SEGMENTS IN THE MODULE
  ======================
CSTACK
  Relative segment, address: 4848, align: 1
  Segment part 1.
    -------------------------------------------------------------------------
DATA16_Z
  Relative segment, address: 1CCA, align: 1
  Segment part 2.
    -------------------------------------------------------------------------
DATA16_I
  Relative segment, address: 1C38, align: 1
  Segment part 3.
    -------------------------------------------------------------------------
DATA16_ID
  Relative segment, address: 7ACA, align: 1
  Segment part 4.
    -------------------------------------------------------------------------
CODE_I
  Relative segment, address: 45AC, align: 1
  Segment part 5.
    -------------------------------------------------------------------------
CODE_ID
  Relative segment, address: 00019CD0, align: 1
  Segment part 6.
    -------------------------------------------------------------------------
DATA20_Z
  Relative segment, address: 45AC, align: 1
  Segment part 7.
    -------------------------------------------------------------------------
DATA20_I
  Relative segment, address: 45AC, align: 1
  Segment part 8.
    -------------------------------------------------------------------------
DATA20_ID
  Relative segment, address: 00019CD0, align: 1
  Segment part 9.
    -------------------------------------------------------------------------
DATA20_C
  Relative segment, address: 00019CD0, align: 1
  Segment part 10.
    -------------------------------------------------------------------------
DATA20_N
  Relative segment, address: 45AC, align: 1
  Segment part 12.
    -------------------------------------------------------------------------
CSTART
  Relative segment, address: 7B02 - 7B0B (0xa bytes), align: 1
  Segment part 15.
           ENTRY                   ADDRESS         REF BY
           =====                   =======         ======
           __program_start         7B02            ?reset_vector (?reset_vector)
                                                   Absolute parts (?ABS_ENTRY_MOD)
           ?cstart_begin           7B02 
    -------------------------------------------------------------------------
CSTART
  Relative segment, address: 7B0C - 7B17 (0xc bytes), align: 1
  Segment part 20.
           ENTRY                   ADDRESS         REF BY
           =====                   =======         ======
           ?cstart_init_zero       7B0C            A (adc)
                                                   ADCElementCount (message)
                                                   BLEINIT (blueTooth)
                                                   DataPacketLen (message)
                                                   Element_table (message)
                                                   Extend_Flag (message)
                                                   HydrologyInstantWaterLevel::endtime (hydrologytask)
                                                   HydrologyInstantWaterLevel::time (hydrologytask)
                                                   HydrologySample::sampletime (hydrologytask)
                                                   HydrologySaveData::storetime (hydrologytask)
                                                   Hydrology_ReadRS485::rs485_count (hydrologycommand)
                                                   IO_STATUSElementCount (message)
                                                   ISR_COUNTElementCount (message)
                                                   IsGetInput (uart0)
                                                   IsQuery (hydrologycommand)
                                                   Is_RS485_1 (main)
                                                   Is_uart1_RX_INT (main)
                                                   Is_uart3_RX_INT (uart3)
                                                   LED_OnOff_Flag (sys_status)
                                                   PORT1_ISR::a (Sampler)
                                                   PacketSendTimes (message)
                                                   RS485ElementCount (message)
                                                   RS485RegisterCount (hydrologycommand)
                                                   RemainingData (GTM900C)
                                                   RomElementBeginAddr (message)
                                                   Segment part 2 (?xgetmemchunk)
                                                   SinglePacketSendCount (message)
                                                   SinglePacketSize (message)
                                                   TelecomOperater (GTM900C)
                                                   UART0_Rx_BufLen (uart0)
                                                   UART0_Rx_Buffer (uart0)
                                                   UART0_Rx_INTIndex (uart0)
                                                   UART0_Rx_INTLen (uart0)
                                                   UART0_Rx_RecvIndex (uart0)
                                                   UART0_Tx_Buf (uart0)
                                                   UART0_Tx_Flag (uart0)
                                                   UART0_Tx_Len (uart0)
                                                   UART1_Rx_BufLen (uart1)
                                                   UART1_Rx_Buffer (uart1)
                                                   UART1_Rx_INTIndex (uart1)
                                                   UART1_Rx_INTLen (uart1)
                                                   UART1_Rx_RecvIndex (uart1)
                                                   UART1_Tx_Buf (uart1)
                                                   UART1_Tx_Flag (uart1)
                                                   UART1_Tx_Len (uart1)
                                                   UART2_Rx_BufLen (uart2)
                                                   UART2_Rx_Buffer (uart2)
                                                   UART2_Rx_INTIndex (uart2)
                                                   UART2_Rx_INTLen (uart2)
                                                   UART2_Rx_RecvIndex (uart2)
                                                   UART2_Tx_Buf (uart2)
                                                   UART2_Tx_Flag (uart2)
                                                   UART2_Tx_Len (uart2)
                                                   UART3_Rx_BufLen (uart3)
                                                   UART3_Rx_Buffer (uart3)
                                                   UART3_Rx_INTIndex (uart3)
                                                   UART3_Rx_INTLen (uart3)
                                                   UART3_Rx_RecvIndex (uart3)
                                                   UART3_Tx_Buf (uart3)
                                                   UART3_Tx_Flag (uart3)
                                                   UART3_Tx_Len (uart3)
                                                   UserElementCount (message)
                                                   WIFI_Inited_Flag (wifi_config)
                                                   _ReceiveData (GTM900C)
                                                   _ReceiveDataLen (GTM900C)
                                                   __data16_Aldata (?xxmemxmalloc)
                                                   __iar_Errno (?errno)
                                                   _int (common)
                                                   ack (camera)
                                                   ble_query_flag (blueTooth)
                                                   camera_i (camera)
                                                   camera_ii (camera)
                                                   centerIP (GTM900C)
                                                   centerIP (ec200)
                                                   centerPort (GTM900C)
                                                   centerPort (ec200)
                                                   connected (ec200)
                                                   dataLen (GTM900C)
                                                   device_id (camera)
                                                   g_HydrologyDownHeader (message)
                                                   g_HydrologyMsg (message)
                                                   g_HydrologyUpHeader (message)
                                                   g_ptIODevHead (ioDev)
                                                   g_pulse_range (Sampler)
                                                   g_pulse_rate (Sampler)
                                                   g_rtc_nowTime (rtc)
                                                   g_wifi_connetflag (wifi_config)
                                                   g_wifi_index (wifi_config)
                                                   getstreamid::id (message)
                                                   inputPara (message)
                                                   isUARTConfig (uart_config)
                                                   isbt (blueTooth)
                                                   last_packet (camera)
                                                   pack_num_sd (camera)
                                                   pic_info (camera)
                                                   pic_packet (camera)
                                                   power (ec200)
                                                   psrc (GTM900C)
                                                   s_ClockTicks (timer)
                                                   s_MsgArray (GSM)
                                                   s_MsgLeft (GSM)
                                                   s_MsgNum (GSM)
                                                   s_ProcIdx (GSM)
                                                   s_RING (GSM)
                                                   s_RTC_lastTime (rtc)
                                                   s_RecvIdx (GSM)
                                                   s_TimeOut (GSM)
                                                   s_clock (common)
                                                   s_isr_count_flag (hydrologytask)
                                                   s_picture_flag (hydrologytask)
                                                   s_pulse1_flag (Sampler)
                                                   s_pulse2_flag (Sampler)
                                                   s_pulse3_flag (Sampler)
                                                   s_pulse4_flag (Sampler)
                                                   s_pulse5_flag (Sampler)
                                                   s_pulse6_flag (Sampler)
                                                   s_pulse7_flag (Sampler)
                                                   s_pulse8_flag (Sampler)
                                                   s_reset_count (timer)
                                                   s_reset_pin (common)
                                                   s_uart0_type (uart0)
                                                   s_uart1_type (uart1)
                                                   s_uart2_type (uart2)
                                                   s_uart3_type (uart3)
                                                   send_time (camera)
                                                   serial_num (camera)
                                                   shoot_time (camera)
                                                   sppflag (blueTooth)
                                                   time_10min (hydrologytask)
                                                   time_5min (hydrologytask)
                                                   trace_open (common)
                                                   value (hydrologytask)
    -------------------------------------------------------------------------
CSTART
  Relative segment, address: 7B18 - 7B27 (0x10 bytes), align: 1
  Segment part 21.
           ENTRY                   ADDRESS         REF BY
           =====                   =======         ======
           ?cstart_init_copy       7B18            HYDROLOGY_MODE (message)
                                                   IsDebug (main)
                                                   Opened (main)
                                                   T_CommuteDevBLE (blueTooth)
                                                   _GTM900SendBufLeft (GTM900C)
                                                   g_sleep_interval (lowpower)
                                                   g_sleep_interval_type (lowpower)
                                                   g_ssidname (wifi_config)
                                                   g_wifipwd (wifi_config)
                                                   gprsConfigSuccess (GTM900C)
                                                   line_len (uart2)
                                                   s_EndIdx (store)
                                                   s_RTC_PulseBytes (rtc)
                                                   s_StartIdx (store)
                                                   sys_errorcode_runcode (timer)
                                                   time_1min (hydrologytask)
    -------------------------------------------------------------------------
CSTART
  Relative segment, address: 7B28 - 7B2F (0x8 bytes), align: 1
  Segment part 27.            Intra module refs:   Segment part 15
           ENTRY                   ADDRESS         REF BY
           =====                   =======         ======
           ?cstart_call_main       7B28 
           ?cstart_end             7B30 
    -------------------------------------------------------------------------
CODE_ID
  Relative segment, address: 00019CD0, align: 1
  Segment part 28.            Intra module refs:   Segment part 5

    -------------------------------------------------------------------------
  LIBRARY MODULE, NAME : ?reset_vector

  SEGMENTS IN THE MODULE
  ======================
RESET
  Relative segment, address: FFFE - FFFF (0x2 bytes), align: 1
  Segment part 0.
           ENTRY                   ADDRESS         REF BY
           =====                   =======         ======
           ?reset_vector           FFFE            Segment part 15 (?cstart)

    *************************************************************************

  FILE NAME : \\Mac\Home\work\ETL\Debug\Obj\ctsd16.r43
    *************************************************************************

  FILE NAME : \\Mac\Home\work\ETL\Debug\Obj\dac12_a.r43
    *************************************************************************

  FILE NAME : \\Mac\Home\work\ETL\Debug\Obj\debug.r43
    *************************************************************************

  FILE NAME : \\Mac\Home\work\ETL\Debug\Obj\dma.r43
    *************************************************************************

  FILE NAME : \\Mac\Home\work\ETL\Debug\Obj\ec200.r43
  PROGRAM MODULE, NAME : ec200

  SEGMENTS IN THE MODULE
  ======================
DATA16_Z
  Relative segment, address: 1DA9 - 1DB8 (0x10 bytes), align: 0
  Segment part 60.            Intra module refs:   OpenTran
           LOCAL                   ADDRESS         
           =====                   =======         
           centerIP                1DA9 
    -------------------------------------------------------------------------
DATA16_Z
  Relative segment, address: 1DB9 - 1DBF (0x7 bytes), align: 0
  Segment part 61.            Intra module refs:   OpenTran
           LOCAL                   ADDRESS         
           =====                   =======         
           centerPort              1DB9 
    -------------------------------------------------------------------------
DATA16_Z
  Relative segment, address: 1CCA - 1CCB (0x2 bytes), align: 1
  Segment part 62.            Intra module refs:   TransmissionEnd
                                                   TransmissionInit
                                                   get_time
           LOCAL                   ADDRESS         
           =====                   =======         
           connected               1CCA 
    -------------------------------------------------------------------------
DATA16_Z
  Relative segment, address: 1CCC - 1CCD (0x2 bytes), align: 1
  Segment part 63.            Intra module refs:   Ec200Poweroff
                                                   Ec200Poweron
           LOCAL                   ADDRESS         
           =====                   =======         
           power                   1CCC 
    -------------------------------------------------------------------------
<CODE> 2 (was CODE)
  Relative segment, address: 00017A48 - 00017A99 (0x52 bytes), align: 1
  Segment part 67.            Intra module refs:   Ec200Poweron
           LOCAL                   ADDRESS         
           =====                   =======         
           PowerOn                 00017A48 
               calls direct
    -------------------------------------------------------------------------
<CODE> 2 (was CODE)
  Relative segment, address: 00017CCC - 00017D19 (0x4e bytes), align: 1
  Segment part 68.            Intra module refs:   Ec200Poweroff
           LOCAL                   ADDRESS         
           =====                   =======         
           PowerOff                00017CCC 
               calls direct
    -------------------------------------------------------------------------
<CODE> 2 (was CODE)
  Relative segment, address: 0001966A - 00019683 (0x1a bytes), align: 1
  Segment part 69.            Intra module refs:   CloseTran
                                                   OpenTran
                                                   QueryCerg
                                                   QuerySIMSignal
                                                   SetNoEcho
                                                   TransmissionActivation
                                                   TransmissionConfiguration
                                                   TransmissionDeactivation
                                                   get_time
           LOCAL                   ADDRESS         
           =====                   =======         
           Ec200SendWithCR         0001966A 
               calls direct
    -------------------------------------------------------------------------
<CODE> 2 (was CODE)
  Relative segment, address: 00019B7E - 00019B87 (0xa bytes), align: 1
  Segment part 70.            Intra module refs:   Ec200SendMsg
           LOCAL                   ADDRESS         
           =====                   =======         
           Ec200SendWithLen        00019B7E 
               calls direct
    -------------------------------------------------------------------------
<CODE> 2 (was CODE)
  Relative segment, address: 00019636 - 0001964F (0x1a bytes), align: 1
  Segment part 71.            Intra module refs:   ExitTTMode
           LOCAL                   ADDRESS         
           =====                   =======         
           Ec200Send               00019636 
               calls direct
    -------------------------------------------------------------------------
<CODE> 2 (was CODE)
  Relative segment, address: 00015CA2 - 00015D27 (0x86 bytes), align: 1
  Segment part 72.            Intra module refs:   Ec200CheckIfNormal
                                                   ExitTTMode
           LOCAL                   ADDRESS         
           =====                   =======         
           SetNoEcho               00015CA2 
               calls direct
    -------------------------------------------------------------------------
<CODE> 2 (was CODE)
  Relative segment, address: 000160CC - 0001614D (0x82 bytes), align: 1
  Segment part 73.            Intra module refs:   TransmissionInit
           LOCAL                   ADDRESS         
           =====                   =======         
           QueryCerg               000160CC 
               calls direct
    -------------------------------------------------------------------------
<CODE> 2 (was CODE)
  Relative segment, address: 0001513A - 000151CB (0x92 bytes), align: 1
  Segment part 74.            Intra module refs:   TransmissionInit
           LOCAL                   ADDRESS         
           =====                   =======         
           QuerySIMSignal          0001513A 
               calls direct
    -------------------------------------------------------------------------
<CODE> 2 (was CODE)
  Relative segment, address: 000168E2 - 00016953 (0x72 bytes), align: 1
  Segment part 77.            Intra module refs:   TransmissionInit
           LOCAL                   ADDRESS         
           =====                   =======         
           TransmissionConfiguration
                                   000168E2 
               calls direct
    -------------------------------------------------------------------------
<CODE> 2 (was CODE)
  Relative segment, address: 000167FE - 0001686F (0x72 bytes), align: 1
  Segment part 78.            Intra module refs:   TransmissionInit
           LOCAL                   ADDRESS         
           =====                   =======         
           TransmissionActivation
                                   000167FE 
               calls direct
    -------------------------------------------------------------------------
<CODE> 2 (was CODE)
  Relative segment, address: 00016954 - 000169C5 (0x72 bytes), align: 1
  Segment part 79.            Intra module refs:   TransmissionEnd
           LOCAL                   ADDRESS         
           =====                   =======         
           TransmissionDeactivation
                                   00016954 
               calls direct
    -------------------------------------------------------------------------
<CODE> 2 (was CODE)
  Relative segment, address: 00016870 - 000168E1 (0x72 bytes), align: 1
  Segment part 80.            Intra module refs:   TransmissionEnd
           LOCAL                   ADDRESS         
           =====                   =======         
           CloseTran               00016870 
               calls direct
    -------------------------------------------------------------------------
<CODE> 2 (was CODE)
  Relative segment, address: 00017E00 - 00017E4B (0x4c bytes), align: 1
  Segment part 81.            Intra module refs:   TransmissionEnd
           LOCAL                   ADDRESS         
           =====                   =======         
           ExitTTMode              00017E00 
               calls direct
    -------------------------------------------------------------------------
<CODE> 2 (was CODE)
  Relative segment, address: 0001789E - 000178F5 (0x58 bytes), align: 1
  Segment part 82.            Intra module refs:   OpenTran
           LOCAL                   ADDRESS         
           =====                   =======         
           judgeintlen             0001789E 
    -------------------------------------------------------------------------
<CODE> 2 (was CODE)
  Relative segment, address: 0001739C - 000173F9 (0x5e bytes), align: 1
  Segment part 83.            Intra module refs:   OpenTran
           LOCAL                   ADDRESS         
           =====                   =======         
           judgeportlen            0001739C 
    -------------------------------------------------------------------------
<CODE> 1 (was CODE)
  Relative segment, address: A8BC - B01D (0x762 bytes), align: 1
  Segment part 84.            Intra module refs:   TransmissionInit
           LOCAL                   ADDRESS         
           =====                   =======         
           OpenTran                A8BC 
               calls direct
    -------------------------------------------------------------------------
<CODE> 2 (was CODE)
  Relative segment, address: 0001290E - 00012A13 (0x106 bytes), align: 1
  Segment part 85.            Intra module refs:   Ec200CreateLink
           LOCAL                   ADDRESS         
           =====                   =======         
           TransmissionInit        0001290E 
               calls direct
    -------------------------------------------------------------------------
<CODE> 2 (was CODE)
  Relative segment, address: 00016F56 - 00016FBD (0x68 bytes), align: 1
  Segment part 86.            Intra module refs:   Ec200CloseLink
           LOCAL                   ADDRESS         
           =====                   =======         
           TransmissionEnd         00016F56 
               calls direct
    -------------------------------------------------------------------------
<CODE> 1 (was CODE)
  Relative segment, address: FD30 - FECD (0x19e bytes), align: 1
  Segment part 87.            Intra module refs:   Ec200GetNetworktime
           LOCAL                   ADDRESS         
           =====                   =======         
           get_time                FD30 
               calls direct
    -------------------------------------------------------------------------
<CODE> 2 (was CODE)
  Relative segment, address: 000199E0 - 000199EF (0x10 bytes), align: 1
  Segment part 88.            Intra module refs:   Ec200Poweron
           ENTRY                   ADDRESS         REF BY
           =====                   =======         ======
           Ec200CheckIfNormal      000199E0 
               calls direct
    -------------------------------------------------------------------------
<CODE> 2 (was CODE)
  Relative segment, address: 0001815C - 0001819F (0x44 bytes), align: 1
  Segment part 89.
           ENTRY                   ADDRESS         REF BY
           =====                   =======         ======
           Ec200Poweron            0001815C        HydrologyDataPacketInit (hydrologytask)
                                                   HydrologyTask (hydrologytask)
                                                   Hydrology_SendData (message)
               calls direct
    -------------------------------------------------------------------------
<CODE> 2 (was CODE)
  Relative segment, address: 00019892 - 000198A3 (0x12 bytes), align: 1
  Segment part 90.
           ENTRY                   ADDRESS         REF BY
           =====                   =======         ======
           Ec200Poweroff           00019892        HydrologyDataPacketInit (hydrologytask)
                                                   HydrologyInstantWaterLevel (hydrologytask)
                                                   HydrologyTask (hydrologytask)
               calls direct
    -------------------------------------------------------------------------
<CODE> 2 (was CODE)
  Relative segment, address: 00019BE2 - 00019BE9 (0x8 bytes), align: 1
  Segment part 93.
           ENTRY                   ADDRESS         REF BY
           =====                   =======         ======
           Ec200SendMsg            00019BE2        Hydrology_SendData (message)
               calls direct
    -------------------------------------------------------------------------
<CODE> 2 (was CODE)
  Relative segment, address: 0001843C - 0001847D (0x42 bytes), align: 1
  Segment part 94.
           ENTRY                   ADDRESS         REF BY
           =====                   =======         ======
           Ec200RecvMsg            0001843C        Hydrology_ProcessGPRSReceieve (GTM900C)
               calls direct
    -------------------------------------------------------------------------
<CODE> 2 (was CODE)
  Relative segment, address: 0001971C - 00019733 (0x18 bytes), align: 1
  Segment part 95.
           ENTRY                   ADDRESS         REF BY
           =====                   =======         ======
           Ec200CreateLink         0001971C        Hydrology_SendData (message)
               calls direct
    -------------------------------------------------------------------------
<CODE> 2 (was CODE)
  Relative segment, address: 00019930 - 0001993F (0x10 bytes), align: 1
  Segment part 96.
           ENTRY                   ADDRESS         REF BY
           =====                   =======         ======
           Ec200CloseLink          00019930        HydrologyInstantWaterLevel (hydrologytask)
               calls direct
    -------------------------------------------------------------------------
<CODE> 2 (was CODE)
  Relative segment, address: 000152EC - 00015379 (0x8e bytes), align: 1
  Segment part 97.
           ENTRY                   ADDRESS         REF BY
           =====                   =======         ======
           Ec200GetNetworktime     000152EC        HydrologyDataPacketInit (hydrologytask)
                                                   Hydrology_TimeCheck (hydrologytask)
                                                   TryToSyncTime (hydrologytask)
               calls direct
    -------------------------------------------------------------------------
DATA16_C
  Relative segment, address: 6497 - 649E (0x8 bytes), align: 0
  Segment part 4.             Intra module refs:   PowerOn
           LOCAL                   ADDRESS         
           =====                   =======         
           PowerOn::__FUNCTION__   6497 
    -------------------------------------------------------------------------
DATA16_C
  Relative segment, address: 649F - 64AC (0xe bytes), align: 0
  Segment part 5.             Intra module refs:   PowerOn
    -------------------------------------------------------------------------
DATA16_C
  Relative segment, address: 64AD - 64B5 (0x9 bytes), align: 0
  Segment part 6.             Intra module refs:   PowerOff
           LOCAL                   ADDRESS         
           =====                   =======         
           PowerOff::__FUNCTION__
                                   64AD 
    -------------------------------------------------------------------------
DATA16_C
  Relative segment, address: 64B6 - 64C4 (0xf bytes), align: 0
  Segment part 7.             Intra module refs:   PowerOff
    -------------------------------------------------------------------------
DATA16_C
  Relative segment, address: 64C5 - 64C9 (0x5 bytes), align: 0
  Segment part 9.             Intra module refs:   SetNoEcho
    -------------------------------------------------------------------------
DATA16_C
  Relative segment, address: 64CA - 64CC (0x3 bytes), align: 0
  Segment part 10.            Intra module refs:   CloseTran
                                                   QuerySIMSignal
                                                   SetNoEcho
                                                   TransmissionActivation
                                                   TransmissionConfiguration
                                                   TransmissionDeactivation
    -------------------------------------------------------------------------
DATA16_C
  Relative segment, address: 64CD - 64D2 (0x6 bytes), align: 0
  Segment part 11.            Intra module refs:   QuerySIMSignal
                                                   SetNoEcho
    -------------------------------------------------------------------------
DATA16_C
  Relative segment, address: 64D3 - 64DB (0x9 bytes), align: 0
  Segment part 13.            Intra module refs:   QueryCerg
    -------------------------------------------------------------------------
DATA16_C
  Relative segment, address: 64DC - 64DE (0x3 bytes), align: 0
  Segment part 14.            Intra module refs:   QueryCerg
    -------------------------------------------------------------------------
DATA16_C
  Relative segment, address: 64DF - 64E1 (0x3 bytes), align: 0
  Segment part 15.            Intra module refs:   QueryCerg
    -------------------------------------------------------------------------
DATA16_C
  Relative segment, address: 64E2 - 64E8 (0x7 bytes), align: 0
  Segment part 17.            Intra module refs:   QuerySIMSignal
    -------------------------------------------------------------------------
DATA16_C
  Relative segment, address: 64E9 - 64EE (0x6 bytes), align: 0
  Segment part 18.            Intra module refs:   QuerySIMSignal
    -------------------------------------------------------------------------
DATA16_C
  Relative segment, address: 64EF - 650C (0x1e bytes), align: 0
  Segment part 24.            Intra module refs:   TransmissionConfiguration
    -------------------------------------------------------------------------
DATA16_C
  Relative segment, address: 650D - 6517 (0xb bytes), align: 0
  Segment part 26.            Intra module refs:   TransmissionActivation
    -------------------------------------------------------------------------
DATA16_C
  Relative segment, address: 6518 - 6524 (0xd bytes), align: 0
  Segment part 28.            Intra module refs:   TransmissionDeactivation
    -------------------------------------------------------------------------
DATA16_C
  Relative segment, address: 6525 - 6531 (0xd bytes), align: 0
  Segment part 30.            Intra module refs:   CloseTran
    -------------------------------------------------------------------------
DATA16_C
  Relative segment, address: 6532 - 6535 (0x4 bytes), align: 0
  Segment part 32.            Intra module refs:   ExitTTMode
    -------------------------------------------------------------------------
DATA16_C
  Relative segment, address: 6536 - 653E (0x9 bytes), align: 0
  Segment part 34.            Intra module refs:   OpenTran
           LOCAL                   ADDRESS         
           =====                   =======         
           OpenTran::__FUNCTION__
                                   6536 
    -------------------------------------------------------------------------
DATA16_C
  Relative segment, address: 653F - 6570 (0x32 bytes), align: 0
  Segment part 40.            Intra module refs:   OpenTran
    -------------------------------------------------------------------------
DATA16_C
  Relative segment, address: 6571 - 657A (0xa bytes), align: 0
  Segment part 41.            Intra module refs:   OpenTran
    -------------------------------------------------------------------------
DATA16_C
  Relative segment, address: 657B - 6587 (0xd bytes), align: 0
  Segment part 42.            Intra module refs:   OpenTran
    -------------------------------------------------------------------------
DATA16_C
  Relative segment, address: 6588 - 658C (0x5 bytes), align: 0
  Segment part 43.            Intra module refs:   OpenTran
    -------------------------------------------------------------------------
DATA16_C
  Relative segment, address: 658D - 6594 (0x8 bytes), align: 0
  Segment part 45.            Intra module refs:   OpenTran
    -------------------------------------------------------------------------
DATA16_C
  Relative segment, address: 6595 - 65B1 (0x1d bytes), align: 0
  Segment part 46.            Intra module refs:   TransmissionInit
    -------------------------------------------------------------------------
DATA16_C
  Relative segment, address: 65B2 - 65C2 (0x11 bytes), align: 0
  Segment part 47.            Intra module refs:   TransmissionInit
    -------------------------------------------------------------------------
DATA16_C
  Relative segment, address: 65C3 - 65E3 (0x21 bytes), align: 0
  Segment part 48.            Intra module refs:   TransmissionInit
    -------------------------------------------------------------------------
DATA16_C
  Relative segment, address: 65E4 - 6601 (0x1e bytes), align: 0
  Segment part 49.            Intra module refs:   TransmissionInit
    -------------------------------------------------------------------------
DATA16_C
  Relative segment, address: 6602 - 6611 (0x10 bytes), align: 0
  Segment part 50.            Intra module refs:   TransmissionInit
    -------------------------------------------------------------------------
DATA16_C
  Relative segment, address: 6612 - 661A (0x9 bytes), align: 0
  Segment part 52.            Intra module refs:   get_time
    -------------------------------------------------------------------------
DATA16_C
  Relative segment, address: 661B - 6621 (0x7 bytes), align: 0
  Segment part 53.            Intra module refs:   get_time
    -------------------------------------------------------------------------
DATA16_C
  Relative segment, address: 6622 - 6631 (0x10 bytes), align: 0
  Segment part 54.            Intra module refs:   Ec200Poweron
    -------------------------------------------------------------------------
DATA16_C
  Relative segment, address: 6632 - 663C (0xb bytes), align: 0
  Segment part 55.            Intra module refs:   Ec200Poweron
    -------------------------------------------------------------------------
DATA16_C
  Relative segment, address: 663D - 664E (0x12 bytes), align: 0
  Segment part 56.            Intra module refs:   Ec200RecvMsg
    -------------------------------------------------------------------------
DATA16_C
  Relative segment, address: 664F - 666B (0x1d bytes), align: 0
  Segment part 57.            Intra module refs:   Ec200CreateLink

    *************************************************************************

  FILE NAME : \\Mac\Home\work\ETL\Debug\Obj\eusci_a_spi.r43
    *************************************************************************

  FILE NAME : \\Mac\Home\work\ETL\Debug\Obj\eusci_a_uart.r43
    *************************************************************************

  FILE NAME : \\Mac\Home\work\ETL\Debug\Obj\eusci_b_i2c.r43
    *************************************************************************

  FILE NAME : \\Mac\Home\work\ETL\Debug\Obj\eusci_b_spi.r43
    *************************************************************************

  FILE NAME : \\Mac\Home\work\ETL\Debug\Obj\flash.r43
  PROGRAM MODULE, NAME : flash

  SEGMENTS IN THE MODULE
  ======================
DATA16_AN
  Relative segment, address: 0140 - 0141 (0x2 bytes), align: 0
  Segment part 1. ROOT        Intra module refs:   FLASH_EraseOneBank
                                                   FLASH_EraseOneSEG
                                                   Write_Flash_Erase_Segment
                                                   Write_flash_Segment
           ENTRY                   ADDRESS         REF BY
           =====                   =======         ======
           _A_FCTL1_L              0140 
           LOCAL                   ADDRESS         
           =====                   =======         
           FCTL1                   0140 
           FCTL1_H                 0141 
           FCTL1_L                 0140 
    -------------------------------------------------------------------------
DATA16_AN
  Relative segment, address: 0144 - 0145 (0x2 bytes), align: 0
  Segment part 2. ROOT        Intra module refs:   FLASH_EraseOneBank
                                                   FLASH_EraseOneSEG
                                                   Read_Flashw
                                                   Write_Flash_Erase_Segment
                                                   Write_flash_Segment
           ENTRY                   ADDRESS         REF BY
           =====                   =======         ======
           _A_FCTL3_L              0144 
           LOCAL                   ADDRESS         
           =====                   =======         
           FCTL3                   0144 
           FCTL3_H                 0145 
           FCTL3_L                 0144 
    -------------------------------------------------------------------------
<CODE> 2 (was CODE)
  Relative segment, address: 00018BA4 - 00018BD9 (0x36 bytes), align: 1
  Segment part 7.
           ENTRY                   ADDRESS         REF BY
           =====                   =======         ======
           FLASH_EraseOneSEG       00018BA4        camera_InfoRead (camera)
    -------------------------------------------------------------------------
<CODE> 2 (was CODE)
  Relative segment, address: 00018ACC - 00018B01 (0x36 bytes), align: 1
  Segment part 8.
           ENTRY                   ADDRESS         REF BY
           =====                   =======         ======
           FLASH_EraseOneBank      00018ACC        camera_InfoRead (camera)
    -------------------------------------------------------------------------
<CODE> 2 (was CODE)
  Relative segment, address: 00019842 - 00019855 (0x14 bytes), align: 1
  Segment part 9.
           ENTRY                   ADDRESS         REF BY
           =====                   =======         ======
           Read_Flashw             00019842        camera_PicturePacketElement (camera)
    -------------------------------------------------------------------------
<CODE> 2 (was CODE)
  Relative segment, address: 0001756E - 000175C9 (0x5c bytes), align: 1
  Segment part 11.
           ENTRY                   ADDRESS         REF BY
           =====                   =======         ======
           Write_flash_Segment     0001756E        camera_PictureGet (camera)
    -------------------------------------------------------------------------
<CODE> 2 (was CODE)
  Relative segment, address: 000170F0 - 00017153 (0x64 bytes), align: 1
  Segment part 12.            Intra module refs:   WriteFlashInBank
           ENTRY                   ADDRESS         REF BY
           =====                   =======         ======
           Write_Flash_Erase_Segment
                                   000170F0 
    -------------------------------------------------------------------------
<CODE> 2 (was CODE)
  Relative segment, address: 0001525C - 000152EB (0x90 bytes), align: 1
  Segment part 14.            Intra module refs:   Write_Flash_Segment
           ENTRY                   ADDRESS         REF BY
           =====                   =======         ======
           WriteFlashInBank        0001525C 
               calls direct
    -------------------------------------------------------------------------
<CODE> 2 (was CODE)
  Relative segment, address: 00019CA0 - 00019CA3 (0x4 bytes), align: 1
  Segment part 15.
           ENTRY                   ADDRESS         REF BY
           =====                   =======         ======
           Write_Flash_Segment     00019CA0        hydrologySetPara (hydrologycommand)
               calls direct
    -------------------------------------------------------------------------
<CODE> 2 (was CODE)
  Relative segment, address: 0001876E - 000187A9 (0x3c bytes), align: 1
  Segment part 13.            Intra module refs:   WriteFlashInBank
           ENTRY                   ADDRESS         REF BY
           =====                   =======         ======
           Read_Flash_Segment      0001876E        ConvertAnalog (hydrologytask)
                                                   HydrologyDataPacketInit (hydrologytask)
                                                   HydrologyUpdateElementTable (hydrologytask)
                                                   Hydrology_ReadRS485 (hydrologycommand)
                                                   RS485_Read (hydrologycommand)
                                                   RS485_Send (hydrologycommand)
                                                   RS485_ValueDefine (hydrologycommand)
                                                   get_io_status_parse_type (hydrologycommand)
                                                   hydrologyReadParaSelect (hydrologycommand)
    -------------------------------------------------------------------------
DATA16_C
  Relative segment, address: 666C - 6681 (0x16 bytes), align: 0
  Segment part 4.             Intra module refs:   WriteFlashInBank

    *************************************************************************

  FILE NAME : \\Mac\Home\work\ETL\Debug\Obj\flashctl.r43
    *************************************************************************

  FILE NAME : \\Mac\Home\work\ETL\Debug\Obj\flow.r43
  PROGRAM MODULE, NAME : flow

  SEGMENTS IN THE MODULE
  ======================
<CODE> 2 (was CODE)
  Relative segment, address: 000114BC - 000115F5 (0x13a bytes), align: 1
  Segment part 18.
           ENTRY                   ADDRESS         REF BY
           =====                   =======         ======
           FlowCheckSampleData     000114BC        HydrologyInstantWaterLevel (hydrologytask)
               calls direct
    -------------------------------------------------------------------------
DATA16_C
  Relative segment, address: 6682 - 6695 (0x14 bytes), align: 0
  Segment part 2.             Intra module refs:   FlowCheckSampleData
           LOCAL                   ADDRESS         
           =====                   =======         
           FlowCheckSampleData::__FUNCTION__
                                   6682 
    -------------------------------------------------------------------------
DATA16_C
  Relative segment, address: 6696 - 66B2 (0x1d bytes), align: 0
  Segment part 3.             Intra module refs:   FlowCheckSampleData
    -------------------------------------------------------------------------
DATA16_C
  Relative segment, address: 66B3 - 66C1 (0xf bytes), align: 0
  Segment part 4.             Intra module refs:   FlowCheckSampleData
    -------------------------------------------------------------------------
DATA16_C
  Relative segment, address: 66C2 - 66CB (0xa bytes), align: 0
  Segment part 5.             Intra module refs:   FlowCheckSampleData
    -------------------------------------------------------------------------
DATA16_C
  Relative segment, address: 66CC - 66D3 (0x8 bytes), align: 0
  Segment part 6.             Intra module refs:   FlowCheckSampleData
    -------------------------------------------------------------------------
DATA16_C
  Relative segment, address: 66D4 - 66DD (0xa bytes), align: 0
  Segment part 7.             Intra module refs:   FlowCheckSampleData
    -------------------------------------------------------------------------
DATA16_C
  Relative segment, address: 66DE - 66E7 (0xa bytes), align: 0
  Segment part 8.             Intra module refs:   FlowCheckSampleData
    -------------------------------------------------------------------------
DATA16_C
  Relative segment, address: 66E8 - 66EF (0x8 bytes), align: 0
  Segment part 9.             Intra module refs:   FlowCheckSampleData

    *************************************************************************

  FILE NAME : \\Mac\Home\work\ETL\Debug\Obj\gpio.r43
  PROGRAM MODULE, NAME : gpio

  SEGMENTS IN THE MODULE
  ======================
DATA16_C
  Relative segment, address: 5C12 - 5C2D (0x1c bytes), align: 1
  Segment part 2.             Intra module refs:   GPIO_clearInterrupt
                                                   GPIO_getInputPinValue
                                                   GPIO_getInterruptStatus
                                                   GPIO_setAsInputPinWithPullUpResistor
           LOCAL                   ADDRESS         
           =====                   =======         
           GPIO_PORT_TO_BASE       5C12 
    -------------------------------------------------------------------------
<CODE> 2 (was CODE)
  Relative segment, address: 0001885E - 00018899 (0x3c bytes), align: 1
  Segment part 11.
           ENTRY                   ADDRESS         REF BY
           =====                   =======         ======
           GPIO_setAsInputPinWithPullUpResistor
                                   0001885E        UpdateDebugState (main)
                                                   setWakeupInterval (main)
    -------------------------------------------------------------------------
<CODE> 2 (was CODE)
  Relative segment, address: 00019222 - 00019247 (0x26 bytes), align: 1
  Segment part 12.
           ENTRY                   ADDRESS         REF BY
           =====                   =======         ======
           GPIO_getInputPinValue   00019222        UpdateDebugState (main)
    -------------------------------------------------------------------------
<CODE> 2 (was CODE)
  Relative segment, address: 000185FC - 00018639 (0x3e bytes), align: 1
  Segment part 15.
           ENTRY                   ADDRESS         REF BY
           =====                   =======         ======
           GPIO_getInterruptStatus
                                   000185FC        Port_2 (main)
    -------------------------------------------------------------------------
<CODE> 2 (was CODE)
  Relative segment, address: 00019388 - 000193A9 (0x22 bytes), align: 1
  Segment part 16.
           ENTRY                   ADDRESS         REF BY
           =====                   =======         ======
           GPIO_clearInterrupt     00019388        Port_2 (main)

    *************************************************************************

  FILE NAME : \\Mac\Home\work\ETL\Debug\Obj\GSM.r43
  PROGRAM MODULE, NAME : GSM

  SEGMENTS IN THE MODULE
  ======================
DATA16_AN
  Relative segment, address: 0222 - 0223 (0x2 bytes), align: 0
  Segment part 1. ROOT        Intra module refs:   GSM_Open
                                                   Hydrology_SetIO_STATUS (hydrologycommand)
                                                   I2C_Set_sck_high (rom)
                                                   I2C_Set_sck_low (rom)
                                                   I2C_Set_sda_high (rom)
                                                   I2C_Set_sda_low (rom)
                                                   Led1_Off (led)
                                                   Led1_On (led)
                                                   Led2_Off (led)
                                                   Led2_On (led)
                                                   Led_Init (led)
                                                   Led_OffAll (led)
                                                   Sampler_Init (Sampler)
                                                   WIFI_Close (wifi_config)
                                                   WIFI_Open (wifi_config)
           ENTRY                   ADDRESS         REF BY
           =====                   =======         ======
           _A_PBOUT_L              0222 
           LOCAL                   ADDRESS         
           =====                   =======         
           PBOUT                   0222 
           PBOUT_H                 0223 
           PBOUT_L                 0222 
    -------------------------------------------------------------------------
DATA16_AN
  Relative segment, address: 0224 - 0225 (0x2 bytes), align: 0
  Segment part 2. ROOT        Intra module refs:   GSM_Open
                                                   Hydrology_SetIO_STATUS (hydrologycommand)
                                                   I2C_GetACK (rom)
                                                   I2C_Initial (rom)
                                                   I2C_RxByte (rom)
                                                   I2C_Set_sck_high (rom)
                                                   I2C_Set_sck_low (rom)
                                                   I2C_Set_sda_high (rom)
                                                   I2C_Set_sda_low (rom)
                                                   Led_Init (led)
                                                   Sampler_Init (Sampler)
                                                   UART0_Open (uart0)
                                                   WIFI_Close (wifi_config)
                                                   WIFI_Open (wifi_config)
           ENTRY                   ADDRESS         REF BY
           =====                   =======         ======
           _A_PBDIR_L              0224 
           LOCAL                   ADDRESS         
           =====                   =======         
           PBDIR                   0224 
           PBDIR_H                 0225 
           PBDIR_L                 0224 
    -------------------------------------------------------------------------
DATA16_AN
  Relative segment, address: 0244 - 0245 (0x2 bytes), align: 0
  Segment part 4. ROOT        Intra module refs:   UART1_Open_9600 (uart1)
           ENTRY                   ADDRESS         REF BY
           =====                   =======         ======
           _A_PCDIR_L              0244 
           LOCAL                   ADDRESS         
           =====                   =======         
           PCDIR                   0244 
           PCDIR_H                 0245 
           PCDIR_L                 0244 
    -------------------------------------------------------------------------
DATA16_Z
  Relative segment, address: 1CCE - 1CCF (0x2 bytes), align: 1
  Segment part 129.           Intra module refs:   GSM_AT_CloseFeedback
           ENTRY                   ADDRESS         REF BY
           =====                   =======         ======
           s_TimeOut               1CCE 
    -------------------------------------------------------------------------
DATA16_Z
  Relative segment, address: 1CD0 - 1CD1 (0x2 bytes), align: 1
  Segment part 130.           Intra module refs:   GSM_DealData
           ENTRY                   ADDRESS         REF BY
           =====                   =======         ======
           s_RING                  1CD0 
    -------------------------------------------------------------------------
DATA16_Z
  Relative segment, address: 1CD2 - 1CD3 (0x2 bytes), align: 1
  Segment part 135.           Intra module refs:   GSM_Close
                                                   GSM_DealData
                                                   GSM_Open
           ENTRY                   ADDRESS         REF BY
           =====                   =======         ======
           s_RecvIdx               1CD2 
    -------------------------------------------------------------------------
DATA16_Z
  Relative segment, address: 1CD4 - 1CD5 (0x2 bytes), align: 1
  Segment part 136.           Intra module refs:   GSM_Close
                                                   GSM_Open
           ENTRY                   ADDRESS         REF BY
           =====                   =======         ======
           s_ProcIdx               1CD4 
    -------------------------------------------------------------------------
DATA16_Z
  Relative segment, address: 1CD6 - 1CD7 (0x2 bytes), align: 1
  Segment part 137.           Intra module refs:   GSM_Close
                                                   GSM_DealData
                                                   GSM_Open
           ENTRY                   ADDRESS         REF BY
           =====                   =======         ======
           s_MsgNum                1CD6 
    -------------------------------------------------------------------------
DATA16_Z
  Relative segment, address: 1CD8 - 1CF5 (0x1e bytes), align: 1
  Segment part 138.           Intra module refs:   GSM_DealData
                                                   GSM_Open
           ENTRY                   ADDRESS         REF BY
           =====                   =======         ======
           s_MsgArray              1CD8 
    -------------------------------------------------------------------------
DATA16_Z
  Relative segment, address: 1CF6 - 1CF7 (0x2 bytes), align: 1
  Segment part 139.           Intra module refs:   GSM_Close
                                                   GSM_Open
           ENTRY                   ADDRESS         REF BY
           =====                   =======         ======
           s_MsgLeft               1CF6 
    -------------------------------------------------------------------------
<CODE> 2 (was CODE)
  Relative segment, address: 00015522 - 000155AD (0x8c bytes), align: 1
  Segment part 147.
           ENTRY                   ADDRESS         REF BY
           =====                   =======         ======
           GSM_Open                00015522        GPRS_Create_TCP_Link (GTM900C)
               calls direct
    -------------------------------------------------------------------------
<CODE> 2 (was CODE)
  Relative segment, address: 00017E98 - 00017EE3 (0x4c bytes), align: 1
  Segment part 152.
           ENTRY                   ADDRESS         REF BY
           =====                   =======         ======
           GSM_Close               00017E98        GPRS_Close_GSM (GTM900C)
               calls direct
    -------------------------------------------------------------------------
<CODE> 2 (was CODE)
  Relative segment, address: 0001349C - 00013579 (0xde bytes), align: 1
  Segment part 154.           Intra module refs:   GSM_AT_CloseFeedback
                                                   GSM_AT_OffCall
                                                   GSM_DealAllData
           ENTRY                   ADDRESS         REF BY
           =====                   =======         ======
           GSM_DealData            0001349C 
               calls direct
    -------------------------------------------------------------------------
<CODE> 2 (was CODE)
  Relative segment, address: 00018ED2 - 00018F01 (0x30 bytes), align: 1
  Segment part 150.           Intra module refs:   GSM_AT_OffCall
                                                   GSM_AT_ShutDown
           ENTRY                   ADDRESS         REF BY
           =====                   =======         ======
           GSM_DealAllData         00018ED2 
               calls direct
    -------------------------------------------------------------------------
<CODE> 2 (was CODE)
  Relative segment, address: 000130F4 - 000131E3 (0xf0 bytes), align: 1
  Segment part 176.
           ENTRY                   ADDRESS         REF BY
           =====                   =======         ======
           GSM_AT_CloseFeedback    000130F4        GPRS_Create_TCP_Link (GTM900C)
               calls direct
    -------------------------------------------------------------------------
<CODE> 2 (was CODE)
  Relative segment, address: 000158EA - 00015973 (0x8a bytes), align: 1
  Segment part 151.           Intra module refs:   GSM_Close
           ENTRY                   ADDRESS         REF BY
           =====                   =======         ======
           GSM_AT_ShutDown         000158EA 
               calls direct
    -------------------------------------------------------------------------
<CODE> 2 (was CODE)
  Relative segment, address: 00016AA8 - 00016B17 (0x70 bytes), align: 1
  Segment part 153.           Intra module refs:   GSM_DealData
           ENTRY                   ADDRESS         REF BY
           =====                   =======         ======
           GSM_AT_OffCall          00016AA8 
               calls direct
    -------------------------------------------------------------------------
<CODE> 2 (was CODE)
  Relative segment, address: 00019734 - 0001974B (0x18 bytes), align: 1
  Segment part 149.           Intra module refs:   GSM_AT_ShutDown
           ENTRY                   ADDRESS         REF BY
           =====                   =======         ======
           GSM_AT_QuitInput        00019734 
               calls direct
    -------------------------------------------------------------------------
DATA16_C
  Relative segment, address: 66F0 - 66F8 (0x9 bytes), align: 0
  Segment part 11.            Intra module refs:   GSM_Open
           LOCAL                   ADDRESS         
           =====                   =======         
           GSM_Open::__FUNCTION__
                                   66F0 
    -------------------------------------------------------------------------
DATA16_C
  Relative segment, address: 66F9 - 6703 (0xb bytes), align: 0
  Segment part 12.            Intra module refs:   GSM_Open
    -------------------------------------------------------------------------
DATA16_C
  Relative segment, address: 6704 - 670D (0xa bytes), align: 0
  Segment part 13.            Intra module refs:   GSM_Close
           LOCAL                   ADDRESS         
           =====                   =======         
           GSM_Close::__FUNCTION__
                                   6704 
    -------------------------------------------------------------------------
DATA16_C
  Relative segment, address: 670E - 6719 (0xc bytes), align: 0
  Segment part 14.            Intra module refs:   GSM_Close
    -------------------------------------------------------------------------
DATA16_C
  Relative segment, address: 671A - 671C (0x3 bytes), align: 0
  Segment part 38.            Intra module refs:   GSM_AT_CloseFeedback
                                                   GSM_AT_OffCall
                                                   GSM_DealData
    -------------------------------------------------------------------------
DATA16_C
  Relative segment, address: 671D - 6722 (0x6 bytes), align: 0
  Segment part 43.            Intra module refs:   GSM_AT_CloseFeedback
    -------------------------------------------------------------------------
DATA16_C
  Relative segment, address: 6723 - 672A (0x8 bytes), align: 0
  Segment part 50.            Intra module refs:   GSM_DealData
    -------------------------------------------------------------------------
DATA16_C
  Relative segment, address: 672B - 6737 (0xd bytes), align: 0
  Segment part 98.            Intra module refs:   GSM_DealData
           LOCAL                   ADDRESS         
           =====                   =======         
           GSM_DealData::__FUNCTION__
                                   672B 
    -------------------------------------------------------------------------
DATA16_C
  Relative segment, address: 6738 - 673C (0x5 bytes), align: 0
  Segment part 99.            Intra module refs:   GSM_DealData
    -------------------------------------------------------------------------
DATA16_C
  Relative segment, address: 673D - 6744 (0x8 bytes), align: 0
  Segment part 100.           Intra module refs:   GSM_DealData
    -------------------------------------------------------------------------
DATA16_C
  Relative segment, address: 6745 - 674C (0x8 bytes), align: 0
  Segment part 101.           Intra module refs:   GSM_DealData
    -------------------------------------------------------------------------
DATA16_C
  Relative segment, address: 674D - 6758 (0xc bytes), align: 0
  Segment part 102.           Intra module refs:   GSM_DealData
    -------------------------------------------------------------------------
DATA16_C
  Relative segment, address: 6759 - 676D (0x15 bytes), align: 0
  Segment part 115.           Intra module refs:   GSM_AT_CloseFeedback
           LOCAL                   ADDRESS         
           =====                   =======         
           GSM_AT_CloseFeedback::__FUNCTION__
                                   6759 
    -------------------------------------------------------------------------
DATA16_C
  Relative segment, address: 676E - 678B (0x1e bytes), align: 0
  Segment part 116.           Intra module refs:   GSM_AT_CloseFeedback
    -------------------------------------------------------------------------
DATA16_C
  Relative segment, address: 678C - 67A1 (0x16 bytes), align: 0
  Segment part 117.           Intra module refs:   GSM_AT_CloseFeedback
    -------------------------------------------------------------------------
DATA16_C
  Relative segment, address: 67A2 - 67A6 (0x5 bytes), align: 0
  Segment part 118.           Intra module refs:   GSM_AT_CloseFeedback
    -------------------------------------------------------------------------
DATA16_C
  Relative segment, address: 67A7 - 67BD (0x17 bytes), align: 0
  Segment part 119.           Intra module refs:   GSM_AT_CloseFeedback
    -------------------------------------------------------------------------
DATA16_C
  Relative segment, address: 67BE - 67EF (0x32 bytes), align: 0
  Segment part 124.           Intra module refs:   GSM_AT_ShutDown
    -------------------------------------------------------------------------
DATA16_C
  Relative segment, address: 67F0 - 67FD (0xe bytes), align: 0
  Segment part 125.           Intra module refs:   GSM_AT_ShutDown
    -------------------------------------------------------------------------
DATA16_C
  Relative segment, address: 67FE - 6801 (0x4 bytes), align: 0
  Segment part 126.           Intra module refs:   GSM_AT_OffCall

    *************************************************************************

  FILE NAME : \\Mac\Home\work\ETL\Debug\Obj\GTM900C.r43
  PROGRAM MODULE, NAME : GTM900C

  SEGMENTS IN THE MODULE
  ======================
DATA16_Z
  Relative segment, address: 1DC0 - 1DCF (0x10 bytes), align: 0
  Segment part 139.           Intra module refs:   GPRS_AT_OpenTCPLink
           ENTRY                   ADDRESS         REF BY
           =====                   =======         ======
           centerIP                1DC0 
    -------------------------------------------------------------------------
DATA16_Z
  Relative segment, address: 1DD0 - 1DD6 (0x7 bytes), align: 0
  Segment part 140.           Intra module refs:   GPRS_AT_OpenTCPLink
           ENTRY                   ADDRESS         REF BY
           =====                   =======         ======
           centerPort              1DD0 
    -------------------------------------------------------------------------
DATA16_Z
  Relative segment, address: 1CF8 - 1CF9 (0x2 bytes), align: 1
  Segment part 141.           Intra module refs:   GPRS_Send
                                                   GRPS_AT_Send
           ENTRY                   ADDRESS         REF BY
           =====                   =======         ======
           psrc                    1CF8 
    -------------------------------------------------------------------------
DATA16_Z
  Relative segment, address: 1CFA - 1CFB (0x2 bytes), align: 1
  Segment part 142.           Intra module refs:   GPRS_Send
                                                   GRPS_AT_Send
           ENTRY                   ADDRESS         REF BY
           =====                   =======         ======
           dataLen                 1CFA 
    -------------------------------------------------------------------------
DATA16_Z
  Relative segment, address: 1CFC - 1CFD (0x2 bytes), align: 1
  Segment part 143.           Intra module refs:   GRPS_AT_Receive_Response
           ENTRY                   ADDRESS         REF BY
           =====                   =======         ======
           _ReceiveData            1CFC 
    -------------------------------------------------------------------------
DATA16_Z
  Relative segment, address: 1CFE - 1CFF (0x2 bytes), align: 1
  Segment part 144.           Intra module refs:   GRPS_AT_Receive_Response
                                                   Hydrology_ProcessGPRSReceieve
           ENTRY                   ADDRESS         REF BY
           =====                   =======         ======
           _ReceiveDataLen         1CFE 
    -------------------------------------------------------------------------
<CODE> 1 (was CODE)
  Relative segment, address: E9DA - EC5D (0x284 bytes), align: 1
  Segment part 156.           Intra module refs:   GPRS_AT_CheckSimStat_Response
                                                   GPRS_AT_CloseTCPLink_Response
                                                   GPRS_AT_QueryIP_Response
                                                   GPRS_AT_QueryOperater_Response
                                                   GPRS_AT_QueryRemainData_Response
                                                   GPRS_AT_QueryTCPLink_Response
                                                   GPRS_AT_QuitGPRSNet_Response
                                                   GPRS_SubProc_AT_ResponseTwo
                                                   GRPS_AT_Receive_Response
                                                   GRPS_AT_Send_Response
           ENTRY                   ADDRESS         REF BY
           =====                   =======         ======
           GPRS_Print_Error        E9DA 
               calls direct
    -------------------------------------------------------------------------
<CODE> 2 (was CODE)
  Relative segment, address: 00019CBC - 00019CBF (0x4 bytes), align: 1
  Segment part 157.           Intra module refs:   GPRS_SubProc_AT_ResponseOne
           ENTRY                   ADDRESS         REF BY
           =====                   =======         ======
           GPRS_AT_SetAPN_Response
                                   00019CBC 
    -------------------------------------------------------------------------
<CODE> 2 (was CODE)
  Relative segment, address: 00019CC4 - 00019CC7 (0x4 bytes), align: 1
  Segment part 158.           Intra module refs:   GPRS_SubProc_AT_ResponseOne
           ENTRY                   ADDRESS         REF BY
           =====                   =======         ======
           GPRS_AT_ActiveGPRSNet_Response
                                   00019CC4 
    -------------------------------------------------------------------------
<CODE> 2 (was CODE)
  Relative segment, address: 000169C6 - 00016A37 (0x72 bytes), align: 1
  Segment part 159.           Intra module refs:   GPRS_SubProc_AT_ResponseOne
           ENTRY                   ADDRESS         REF BY
           =====                   =======         ======
           GPRS_AT_CheckSimStat_Response
                                   000169C6 
               calls direct
    -------------------------------------------------------------------------
DATA16_Z
  Relative segment, address: 1DD7 - 1DD7 (0x1 bytes), align: 0
  Segment part 145.           Intra module refs:   GPRS_AT_QueryOperater
                                                   GPRS_AT_QueryOperater_Response
                                                   GPRS_AT_SetAPN
           ENTRY                   ADDRESS         REF BY
           =====                   =======         ======
           TelecomOperater         1DD7 
    -------------------------------------------------------------------------
<CODE> 2 (was CODE)
  Relative segment, address: 00016BF6 - 00016C63 (0x6e bytes), align: 1
  Segment part 160.           Intra module refs:   GPRS_SubProc_AT_ResponseOne
           ENTRY                   ADDRESS         REF BY
           =====                   =======         ======
           GPRS_AT_QueryOperater_Response
                                   00016BF6 
               calls direct
    -------------------------------------------------------------------------
<CODE> 2 (was CODE)
  Relative segment, address: 00016CD2 - 00016D3F (0x6e bytes), align: 1
  Segment part 161.           Intra module refs:   GPRS_SubProc_AT_ResponseOne
           ENTRY                   ADDRESS         REF BY
           =====                   =======         ======
           GPRS_AT_QueryIP_Response
                                   00016CD2 
               calls direct
    -------------------------------------------------------------------------
<CODE> 2 (was CODE)
  Relative segment, address: 00019C78 - 00019C7B (0x4 bytes), align: 1
  Segment part 162.           Intra module refs:   GPRS_SubProc_AT_ResponseOne
           ENTRY                   ADDRESS         REF BY
           =====                   =======         ======
           GPRS_AT_OpenTCPLink_Response
                                   00019C78 
    -------------------------------------------------------------------------
<CODE> 2 (was CODE)
  Relative segment, address: 00016C64 - 00016CD1 (0x6e bytes), align: 1
  Segment part 163.           Intra module refs:   GPRS_SubProc_AT_ResponseOne
           ENTRY                   ADDRESS         REF BY
           =====                   =======         ======
           GPRS_AT_QueryTCPLink_Response
                                   00016C64 
               calls direct
    -------------------------------------------------------------------------
<CODE> 2 (was CODE)
  Relative segment, address: 000165B0 - 00016627 (0x78 bytes), align: 1
  Segment part 164.           Intra module refs:   GPRS_SubProc_AT_ResponseOne
           ENTRY                   ADDRESS         REF BY
           =====                   =======         ======
           GPRS_AT_CloseTCPLink_Response
                                   000165B0 
               calls direct
    -------------------------------------------------------------------------
<CODE> 2 (was CODE)
  Relative segment, address: 00016538 - 000165AF (0x78 bytes), align: 1
  Segment part 165.           Intra module refs:   GPRS_SubProc_AT_ResponseOne
           ENTRY                   ADDRESS         REF BY
           =====                   =======         ======
           GPRS_AT_QuitGPRSNet_Response
                                   00016538 
               calls direct
    -------------------------------------------------------------------------
<CODE> 2 (was CODE)
  Relative segment, address: 000196D2 - 000196EB (0x1a bytes), align: 1
  Segment part 166.           Intra module refs:   GPRS_SubProc_AT_ResponseOne
           ENTRY                   ADDRESS         REF BY
           =====                   =======         ======
           GPRS_AT_SetIOMode_Response
                                   000196D2 
               calls direct
    -------------------------------------------------------------------------
DATA16_I
  Relative segment, address: 1C38 - 1C39 (0x2 bytes), align: 1
  Segment part 146.           Intra module refs:   GRPS_AT_Send_Response
           ENTRY                   ADDRESS         REF BY
           =====                   =======         ======
           _GTM900SendBufLeft      1C38 
    -------------------------------------------------------------------------
<CODE> 2 (was CODE)
  Relative segment, address: 00015408 - 00015495 (0x8e bytes), align: 1
  Segment part 167.           Intra module refs:   GPRS_SubProc_AT_ResponseOne
           ENTRY                   ADDRESS         REF BY
           =====                   =======         ======
           GRPS_AT_Send_Response   00015408 
               calls direct
    -------------------------------------------------------------------------
DATA16_Z
  Relative segment, address: 1D00 - 1D01 (0x2 bytes), align: 1
  Segment part 148.           Intra module refs:   GPRS_AT_QueryRemainData_Response
           ENTRY                   ADDRESS         REF BY
           =====                   =======         ======
           RemainingData           1D00 
    -------------------------------------------------------------------------
<CODE> 2 (was CODE)
  Relative segment, address: 00016714 - 00016789 (0x76 bytes), align: 1
  Segment part 168.           Intra module refs:   GPRS_SubProc_AT_ResponseOne
           ENTRY                   ADDRESS         REF BY
           =====                   =======         ======
           GPRS_AT_QueryRemainData_Response
                                   00016714 
               calls direct
    -------------------------------------------------------------------------
<CODE> 2 (was CODE)
  Relative segment, address: 00013004 - 000130F3 (0xf0 bytes), align: 1
  Segment part 169.           Intra module refs:   GPRS_SubProc_AT_ResponseOne
           ENTRY                   ADDRESS         REF BY
           =====                   =======         ======
           GRPS_AT_Receive_Response
                                   00013004 
               calls direct
    -------------------------------------------------------------------------
<CODE> 2 (was CODE)
  Relative segment, address: 00019CA4 - 00019CA7 (0x4 bytes), align: 1
  Segment part 170.           Intra module refs:   GPRS_SubProc_AT_ResponseOne
           ENTRY                   ADDRESS         REF BY
           =====                   =======         ======
           GPRS_AT_OFF_CALL_Response
                                   00019CA4 
    -------------------------------------------------------------------------
<CODE> 2 (was CODE)
  Relative segment, address: 00012A14 - 00012B17 (0x104 bytes), align: 1
  Segment part 172.           Intra module refs:   GPRS_Proc_AT_Response
           ENTRY                   ADDRESS         REF BY
           =====                   =======         ======
           GPRS_SubProc_AT_ResponseOne
                                   00012A14 
               calls direct
    -------------------------------------------------------------------------
<CODE> 2 (was CODE)
  Relative segment, address: 0001614E - 000161CF (0x82 bytes), align: 1
  Segment part 173.           Intra module refs:   GPRS_Proc_AT_Response
           ENTRY                   ADDRESS         REF BY
           =====                   =======         ======
           GPRS_SubProc_AT_ResponseTwo
                                   0001614E 
               calls direct
    -------------------------------------------------------------------------
<CODE> 2 (was CODE)
  Relative segment, address: 00012E16 - 00012F0D (0xf8 bytes), align: 1
  Segment part 174.           Intra module refs:   GPRS_AT_ActiveGPRSNet
                                                   GPRS_AT_CheckSimStat
                                                   GPRS_AT_OpenTCPLink
                                                   GPRS_AT_QueryIP
                                                   GPRS_AT_QueryOperater
                                                   GPRS_AT_SetAPN
                                                   GPRS_AT_SetIOMode
                                                   GRPS_AT_Send
           ENTRY                   ADDRESS         REF BY
           =====                   =======         ======
           GPRS_Proc_AT_Response   00012E16 
               calls direct
    -------------------------------------------------------------------------
<CODE> 2 (was CODE)
  Relative segment, address: 00019BB0 - 00019BB9 (0xa bytes), align: 1
  Segment part 175.           Intra module refs:   GPRS_AT_ActiveGPRSNet
                                                   GPRS_AT_CheckSimStat
                                                   GPRS_AT_OpenTCPLink
                                                   GPRS_AT_QueryIP
                                                   GPRS_AT_QueryOperater
                                                   GPRS_AT_SetAPN
                                                   GPRS_AT_SetIOMode
                                                   GRPS_AT_Send
           ENTRY                   ADDRESS         REF BY
           =====                   =======         ======
           GPRS_WriteBytes         00019BB0 
               calls direct
    -------------------------------------------------------------------------
<CODE> 2 (was CODE)
  Relative segment, address: 000131E4 - 000132D1 (0xee bytes), align: 1
  Segment part 178.           Intra module refs:   GPRS_Create_TCP_Link
           ENTRY                   ADDRESS         REF BY
           =====                   =======         ======
           GPRS_AT_SetAPN          000131E4 
               calls direct
    -------------------------------------------------------------------------
<CODE> 2 (was CODE)
  Relative segment, address: 0001423E - 000142F1 (0xb4 bytes), align: 1
  Segment part 179.           Intra module refs:   GPRS_Create_TCP_Link
           ENTRY                   ADDRESS         REF BY
           =====                   =======         ======
           GPRS_AT_ActiveGPRSNet   0001423E 
               calls direct
    -------------------------------------------------------------------------
<CODE> 2 (was CODE)
  Relative segment, address: 0001357A - 00013653 (0xda bytes), align: 1
  Segment part 180.           Intra module refs:   GPRS_Create_TCP_Link
           ENTRY                   ADDRESS         REF BY
           =====                   =======         ======
           GPRS_AT_CheckSimStat    0001357A 
               calls direct
    -------------------------------------------------------------------------
<CODE> 2 (was CODE)
  Relative segment, address: 00015860 - 000158E9 (0x8a bytes), align: 1
  Segment part 181.           Intra module refs:   GPRS_Create_TCP_Link
           ENTRY                   ADDRESS         REF BY
           =====                   =======         ======
           GPRS_AT_QueryOperater   00015860 
               calls direct
    -------------------------------------------------------------------------
<CODE> 2 (was CODE)
  Relative segment, address: 00015E34 - 00015EB9 (0x86 bytes), align: 1
  Segment part 182.           Intra module refs:   GPRS_Create_TCP_Link
           ENTRY                   ADDRESS         REF BY
           =====                   =======         ======
           GPRS_AT_QueryIP         00015E34 
               calls direct
    -------------------------------------------------------------------------
<CODE> 2 (was CODE)
  Relative segment, address: 000177EE - 00017845 (0x58 bytes), align: 1
  Segment part 183.           Intra module refs:   GPRS_AT_OpenTCPLink
           ENTRY                   ADDRESS         REF BY
           =====                   =======         ======
           judgeintlen             000177EE 
    -------------------------------------------------------------------------
<CODE> 2 (was CODE)
  Relative segment, address: 0001733E - 0001739B (0x5e bytes), align: 1
  Segment part 184.           Intra module refs:   GPRS_AT_OpenTCPLink
           ENTRY                   ADDRESS         REF BY
           =====                   =======         ======
           judgeportlen            0001733E 
    -------------------------------------------------------------------------
<CODE> 1 (was CODE)
  Relative segment, address: B774 - BE63 (0x6f0 bytes), align: 1
  Segment part 185.           Intra module refs:   GPRS_Create_TCP_Link
           ENTRY                   ADDRESS         REF BY
           =====                   =======         ======
           GPRS_AT_OpenTCPLink     B774 
               calls direct
    -------------------------------------------------------------------------
DATA16_I
  Relative segment, address: 1C3A - 1C3B (0x2 bytes), align: 1
  Segment part 149.           Intra module refs:   GPRS_Close_GSM
                                                   GPRS_Create_TCP_Link
                                                   GPRS_Send
           ENTRY                   ADDRESS         REF BY
           =====                   =======         ======
           gprsConfigSuccess       1C3A 
    -------------------------------------------------------------------------
<CODE> 2 (was CODE)
  Relative segment, address: 00014020 - 000140D5 (0xb6 bytes), align: 1
  Segment part 189.           Intra module refs:   GPRS_Create_TCP_Link
           ENTRY                   ADDRESS         REF BY
           =====                   =======         ======
           GPRS_AT_SetIOMode       00014020 
               calls direct
    -------------------------------------------------------------------------
<CODE> 2 (was CODE)
  Relative segment, address: 00011D06 - 00011E27 (0x122 bytes), align: 1
  Segment part 190.           Intra module refs:   GPRS_Send
           ENTRY                   ADDRESS         REF BY
           =====                   =======         ======
           GRPS_AT_Send            00011D06 
               calls direct
    -------------------------------------------------------------------------
<CODE> 2 (was CODE)
  Relative segment, address: 0001708C - 000170EF (0x64 bytes), align: 1
  Segment part 171.           Intra module refs:   GPRS_PrepareForSend
                                                   GPRS_SubProc_AT_ResponseOne
           ENTRY                   ADDRESS         REF BY
           =====                   =======         ======
           GPRS_AT_OFF_CALL        0001708C 
               calls direct
    -------------------------------------------------------------------------
<CODE> 2 (was CODE)
  Relative segment, address: 00019BBA - 00019BC1 (0x8 bytes), align: 1
  Segment part 176.           Intra module refs:   GPRS_PrepareForSend
           ENTRY                   ADDRESS         REF BY
           =====                   =======         ======
           GPRS_ClearRecvBuf       00019BBA 
               calls direct
    -------------------------------------------------------------------------
<CODE> 2 (was CODE)
  Relative segment, address: 00018A96 - 00018ACB (0x36 bytes), align: 1
  Segment part 177.           Intra module refs:   GPRS_AT_ActiveGPRSNet
                                                   GPRS_AT_CheckSimStat
                                                   GPRS_AT_OpenTCPLink
                                                   GPRS_AT_QueryIP
                                                   GPRS_AT_QueryOperater
                                                   GPRS_AT_SetAPN
                                                   GPRS_AT_SetIOMode
                                                   GRPS_AT_Send
           ENTRY                   ADDRESS         REF BY
           =====                   =======         ======
           GPRS_PrepareForSend     00018A96 
               calls direct
    -------------------------------------------------------------------------
<CODE> 2 (was CODE)
  Relative segment, address: 000138E2 - 000139BB (0xda bytes), align: 1
  Segment part 194.           Intra module refs:   GPRS_Send
           ENTRY                   ADDRESS         REF BY
           =====                   =======         ======
           GPRS_Create_TCP_Link    000138E2 
               calls direct
    -------------------------------------------------------------------------
<CODE> 2 (was CODE)
  Relative segment, address: 000198C8 - 000198D9 (0x12 bytes), align: 1
  Segment part 196.           Intra module refs:   GPRS_Send
           ENTRY                   ADDRESS         REF BY
           =====                   =======         ======
           GPRS_Close_GSM          000198C8        camera (camera)
               calls direct
    -------------------------------------------------------------------------
<CODE> 2 (was CODE)
  Relative segment, address: 00013E9E - 00013F65 (0xc8 bytes), align: 1
  Segment part 197.
           ENTRY                   ADDRESS         REF BY
           =====                   =======         ======
           GPRS_Send               00013E9E        camera_PicturePacket (camera)
               calls direct
    -------------------------------------------------------------------------
<CODE> 2 (was CODE)
  Relative segment, address: 000181E4 - 00018227 (0x44 bytes), align: 1
  Segment part 201.
           ENTRY                   ADDRESS         REF BY
           =====                   =======         ======
           Hydrology_ProcessGPRSReceieve
                                   000181E4        HydrologyInstantWaterLevel (hydrologytask)
               calls direct
    -------------------------------------------------------------------------
DATA16_ID
  Relative segment, address: 7ACA - 7ACB (0x2 bytes), align: 1
  Segment part 147.           Intra module refs:   _GTM900SendBufLeft
    -------------------------------------------------------------------------
DATA16_ID
  Relative segment, address: 7ACC - 7ACD (0x2 bytes), align: 1
  Segment part 150.           Intra module refs:   gprsConfigSuccess
    -------------------------------------------------------------------------
DATA16_C
  Relative segment, address: 6802 - 681D (0x1c bytes), align: 0
  Segment part 2.             Intra module refs:   GPRS_Print_Error
    -------------------------------------------------------------------------
DATA16_C
  Relative segment, address: 681E - 6841 (0x24 bytes), align: 0
  Segment part 3.             Intra module refs:   GPRS_Print_Error
    -------------------------------------------------------------------------
DATA16_C
  Relative segment, address: 6842 - 6865 (0x24 bytes), align: 0
  Segment part 4.             Intra module refs:   GPRS_Print_Error
    -------------------------------------------------------------------------
DATA16_C
  Relative segment, address: 6866 - 688C (0x27 bytes), align: 0
  Segment part 5.             Intra module refs:   GPRS_Print_Error
    -------------------------------------------------------------------------
DATA16_C
  Relative segment, address: 688D - 68AD (0x21 bytes), align: 0
  Segment part 6.             Intra module refs:   GPRS_Print_Error
    -------------------------------------------------------------------------
DATA16_C
  Relative segment, address: 68AE - 68D8 (0x2b bytes), align: 0
  Segment part 7.             Intra module refs:   GPRS_Print_Error
    -------------------------------------------------------------------------
DATA16_C
  Relative segment, address: 68D9 - 6915 (0x3d bytes), align: 0
  Segment part 8.             Intra module refs:   GPRS_Print_Error
    -------------------------------------------------------------------------
DATA16_C
  Relative segment, address: 6916 - 6929 (0x14 bytes), align: 0
  Segment part 9.             Intra module refs:   GPRS_Print_Error
    -------------------------------------------------------------------------
DATA16_C
  Relative segment, address: 692A - 693D (0x14 bytes), align: 0
  Segment part 10.            Intra module refs:   GPRS_Print_Error
    -------------------------------------------------------------------------
DATA16_C
  Relative segment, address: 693E - 695A (0x1d bytes), align: 0
  Segment part 11.            Intra module refs:   GPRS_Print_Error
    -------------------------------------------------------------------------
DATA16_C
  Relative segment, address: 695B - 696E (0x14 bytes), align: 0
  Segment part 12.            Intra module refs:   GPRS_Print_Error
    -------------------------------------------------------------------------
DATA16_C
  Relative segment, address: 696F - 6982 (0x14 bytes), align: 0
  Segment part 13.            Intra module refs:   GPRS_Print_Error
    -------------------------------------------------------------------------
DATA16_C
  Relative segment, address: 6983 - 6995 (0x13 bytes), align: 0
  Segment part 14.            Intra module refs:   GPRS_Print_Error
    -------------------------------------------------------------------------
DATA16_C
  Relative segment, address: 6996 - 69A6 (0x11 bytes), align: 0
  Segment part 15.            Intra module refs:   GPRS_Print_Error
    -------------------------------------------------------------------------
DATA16_C
  Relative segment, address: 69A7 - 69B9 (0x13 bytes), align: 0
  Segment part 16.            Intra module refs:   GPRS_Print_Error
    -------------------------------------------------------------------------
DATA16_C
  Relative segment, address: 69BA - 69C9 (0x10 bytes), align: 0
  Segment part 17.            Intra module refs:   GPRS_Print_Error
    -------------------------------------------------------------------------
DATA16_C
  Relative segment, address: 69CA - 69DE (0x15 bytes), align: 0
  Segment part 18.            Intra module refs:   GPRS_Print_Error
    -------------------------------------------------------------------------
DATA16_C
  Relative segment, address: 69DF - 69FB (0x1d bytes), align: 0
  Segment part 19.            Intra module refs:   GPRS_Print_Error
    -------------------------------------------------------------------------
DATA16_C
  Relative segment, address: 69FC - 6A23 (0x28 bytes), align: 0
  Segment part 20.            Intra module refs:   GPRS_Print_Error
    -------------------------------------------------------------------------
DATA16_C
  Relative segment, address: 6A24 - 6A36 (0x13 bytes), align: 0
  Segment part 21.            Intra module refs:   GPRS_Print_Error
    -------------------------------------------------------------------------
DATA16_C
  Relative segment, address: 6A37 - 6A49 (0x13 bytes), align: 0
  Segment part 22.            Intra module refs:   GPRS_Print_Error
    -------------------------------------------------------------------------
DATA16_C
  Relative segment, address: 6A4A - 6A71 (0x28 bytes), align: 0
  Segment part 23.            Intra module refs:   GPRS_Print_Error
    -------------------------------------------------------------------------
DATA16_C
  Relative segment, address: 6A72 - 6A88 (0x17 bytes), align: 0
  Segment part 24.            Intra module refs:   GPRS_Print_Error
    -------------------------------------------------------------------------
DATA16_C
  Relative segment, address: 6A89 - 6AA3 (0x1b bytes), align: 0
  Segment part 25.            Intra module refs:   GPRS_Print_Error
    -------------------------------------------------------------------------
DATA16_C
  Relative segment, address: 6AA4 - 6ABF (0x1c bytes), align: 0
  Segment part 26.            Intra module refs:   GPRS_Print_Error
    -------------------------------------------------------------------------
DATA16_C
  Relative segment, address: 6AC0 - 6AD8 (0x19 bytes), align: 0
  Segment part 27.            Intra module refs:   GPRS_Print_Error
    -------------------------------------------------------------------------
DATA16_C
  Relative segment, address: 6AD9 - 6AED (0x15 bytes), align: 0
  Segment part 28.            Intra module refs:   GPRS_Print_Error
    -------------------------------------------------------------------------
DATA16_C
  Relative segment, address: 6AEE - 6B12 (0x25 bytes), align: 0
  Segment part 29.            Intra module refs:   GPRS_Print_Error
    -------------------------------------------------------------------------
DATA16_C
  Relative segment, address: 6B13 - 6B27 (0x15 bytes), align: 0
  Segment part 30.            Intra module refs:   GPRS_Print_Error
    -------------------------------------------------------------------------
DATA16_C
  Relative segment, address: 6B28 - 6B6B (0x44 bytes), align: 0
  Segment part 31.            Intra module refs:   GPRS_Print_Error
    -------------------------------------------------------------------------
DATA16_C
  Relative segment, address: 6B6C - 6B7C (0x11 bytes), align: 0
  Segment part 32.            Intra module refs:   GPRS_Print_Error
    -------------------------------------------------------------------------
DATA16_C
  Relative segment, address: 6B7D - 6B82 (0x6 bytes), align: 0
  Segment part 33.            Intra module refs:   GPRS_AT_CheckSimStat_Response
    -------------------------------------------------------------------------
DATA16_C
  Relative segment, address: 6B83 - 6B88 (0x6 bytes), align: 0
  Segment part 34.            Intra module refs:   GPRS_AT_CheckSimStat_Response
                                                   GPRS_AT_CloseTCPLink_Response
                                                   GPRS_AT_QueryIP_Response
                                                   GPRS_AT_QueryOperater_Response
                                                   GPRS_AT_QueryRemainData_Response
                                                   GPRS_AT_QueryTCPLink_Response
                                                   GPRS_AT_QuitGPRSNet_Response
                                                   GPRS_SubProc_AT_ResponseTwo
                                                   GRPS_AT_Receive_Response
                                                   GRPS_AT_Send_Response
    -------------------------------------------------------------------------
DATA16_C
  Relative segment, address: 6B89 - 6BA3 (0x1b bytes), align: 0
  Segment part 36.            Intra module refs:   GPRS_AT_QueryOperater_Response
    -------------------------------------------------------------------------
DATA16_C
  Relative segment, address: 6BA4 - 6BAC (0x9 bytes), align: 0
  Segment part 38.            Intra module refs:   GPRS_AT_QueryIP_Response
    -------------------------------------------------------------------------
DATA16_C
  Relative segment, address: 6BAD - 6BB5 (0x9 bytes), align: 0
  Segment part 40.            Intra module refs:   GPRS_AT_QueryTCPLink_Response
    -------------------------------------------------------------------------
DATA16_C
  Relative segment, address: 6BB6 - 6BBE (0x9 bytes), align: 0
  Segment part 42.            Intra module refs:   GPRS_AT_CloseTCPLink_Response
                                                   GPRS_AT_QuitGPRSNet_Response
    -------------------------------------------------------------------------
DATA16_C
  Relative segment, address: 6BBF - 6BC1 (0x3 bytes), align: 0
  Segment part 43.            Intra module refs:   GPRS_AT_CloseTCPLink_Response
                                                   GPRS_AT_OFF_CALL
                                                   GPRS_AT_QuitGPRSNet_Response
                                                   GPRS_SubProc_AT_ResponseTwo
    -------------------------------------------------------------------------
DATA16_C
  Relative segment, address: 6BC2 - 6BC6 (0x5 bytes), align: 0
  Segment part 46.            Intra module refs:   GPRS_AT_SetIOMode_Response
    -------------------------------------------------------------------------
DATA16_C
  Relative segment, address: 6BC7 - 6BCF (0x9 bytes), align: 0
  Segment part 47.            Intra module refs:   GRPS_AT_Send_Response
    -------------------------------------------------------------------------
DATA16_C
  Relative segment, address: 6BD0 - 6BD6 (0x7 bytes), align: 0
  Segment part 50.            Intra module refs:   GPRS_AT_QueryRemainData_Response
    -------------------------------------------------------------------------
DATA16_C
  Relative segment, address: 6BD7 - 6BDD (0x7 bytes), align: 0
  Segment part 52.            Intra module refs:   GRPS_AT_Receive_Response
    -------------------------------------------------------------------------
DATA16_C
  Relative segment, address: 6BDE - 6C07 (0x2a bytes), align: 0
  Segment part 53.            Intra module refs:   GRPS_AT_Receive_Response
    -------------------------------------------------------------------------
DATA16_C
  Relative segment, address: 6C08 - 6C0C (0x5 bytes), align: 0
  Segment part 55.            Intra module refs:   GPRS_PrepareForSend
                                                   GPRS_SubProc_AT_ResponseOne
    -------------------------------------------------------------------------
DATA16_C
  Relative segment, address: 6C0D - 6C14 (0x8 bytes), align: 0
  Segment part 56.            Intra module refs:   GPRS_SubProc_AT_ResponseTwo
    -------------------------------------------------------------------------
DATA16_C
  Relative segment, address: 6C15 - 6C23 (0xf bytes), align: 0
  Segment part 58.            Intra module refs:   GPRS_AT_SetAPN
           LOCAL                   ADDRESS         
           =====                   =======         
           GPRS_AT_SetAPN::__FUNCTION__
                                   6C15 
    -------------------------------------------------------------------------
DATA16_C
  Relative segment, address: 6C24 - 6C41 (0x1e bytes), align: 0
  Segment part 59.            Intra module refs:   GPRS_AT_SetAPN
    -------------------------------------------------------------------------
DATA16_C
  Relative segment, address: 6C42 - 6C47 (0x6 bytes), align: 0
  Segment part 61.            Intra module refs:   GPRS_AT_SetAPN
    -------------------------------------------------------------------------
DATA16_C
  Relative segment, address: 6C48 - 6C57 (0x10 bytes), align: 0
  Segment part 62.            Intra module refs:   GPRS_AT_SetAPN
    -------------------------------------------------------------------------
DATA16_C
  Relative segment, address: 6C58 - 6C66 (0xf bytes), align: 0
  Segment part 63.            Intra module refs:   GPRS_AT_SetAPN
    -------------------------------------------------------------------------
DATA16_C
  Relative segment, address: 6C67 - 6C7C (0x16 bytes), align: 0
  Segment part 64.            Intra module refs:   GPRS_AT_ActiveGPRSNet
           LOCAL                   ADDRESS         
           =====                   =======         
           GPRS_AT_ActiveGPRSNet::__FUNCTION__
                                   6C67 
    -------------------------------------------------------------------------
DATA16_C
  Relative segment, address: 6C7D - 6C86 (0xa bytes), align: 0
  Segment part 65.            Intra module refs:   GPRS_AT_ActiveGPRSNet
    -------------------------------------------------------------------------
DATA16_C
  Relative segment, address: 6C87 - 6C9A (0x14 bytes), align: 0
  Segment part 67.            Intra module refs:   GPRS_AT_ActiveGPRSNet
    -------------------------------------------------------------------------
DATA16_C
  Relative segment, address: 6C9B - 6CAD (0x13 bytes), align: 0
  Segment part 68.            Intra module refs:   GPRS_AT_ActiveGPRSNet
    -------------------------------------------------------------------------
DATA16_C
  Relative segment, address: 6CAE - 6CC2 (0x15 bytes), align: 0
  Segment part 69.            Intra module refs:   GPRS_AT_CheckSimStat
           LOCAL                   ADDRESS         
           =====                   =======         
           GPRS_AT_CheckSimStat::__FUNCTION__
                                   6CAE 
    -------------------------------------------------------------------------
DATA16_C
  Relative segment, address: 6CC3 - 6CCC (0xa bytes), align: 0
  Segment part 70.            Intra module refs:   GPRS_AT_CheckSimStat
    -------------------------------------------------------------------------
DATA16_C
  Relative segment, address: 6CCD - 6CE1 (0x15 bytes), align: 0
  Segment part 72.            Intra module refs:   GPRS_AT_CheckSimStat
    -------------------------------------------------------------------------
DATA16_C
  Relative segment, address: 6CE2 - 6CF5 (0x14 bytes), align: 0
  Segment part 73.            Intra module refs:   GPRS_AT_CheckSimStat
    -------------------------------------------------------------------------
DATA16_C
  Relative segment, address: 6CF6 - 6D0B (0x16 bytes), align: 0
  Segment part 74.            Intra module refs:   GPRS_AT_QueryOperater
           LOCAL                   ADDRESS         
           =====                   =======         
           GPRS_AT_QueryOperater::__FUNCTION__
                                   6CF6 
    -------------------------------------------------------------------------
DATA16_C
  Relative segment, address: 6D0C - 6D13 (0x8 bytes), align: 0
  Segment part 75.            Intra module refs:   GPRS_AT_QueryOperater
    -------------------------------------------------------------------------
DATA16_C
  Relative segment, address: 6D14 - 6D2C (0x19 bytes), align: 0
  Segment part 77.            Intra module refs:   GPRS_AT_QueryOperater
    -------------------------------------------------------------------------
DATA16_C
  Relative segment, address: 6D2D - 6D42 (0x16 bytes), align: 0
  Segment part 78.            Intra module refs:   GPRS_AT_QueryOperater
    -------------------------------------------------------------------------
DATA16_C
  Relative segment, address: 6D43 - 6D52 (0x10 bytes), align: 0
  Segment part 79.            Intra module refs:   GPRS_AT_QueryIP
           LOCAL                   ADDRESS         
           =====                   =======         
           GPRS_AT_QueryIP::__FUNCTION__
                                   6D43 
    -------------------------------------------------------------------------
DATA16_C
  Relative segment, address: 6D53 - 6D5C (0xa bytes), align: 0
  Segment part 80.            Intra module refs:   GPRS_AT_QueryIP
    -------------------------------------------------------------------------
DATA16_C
  Relative segment, address: 6D5D - 6D6D (0x11 bytes), align: 0
  Segment part 82.            Intra module refs:   GPRS_AT_QueryIP
    -------------------------------------------------------------------------
DATA16_C
  Relative segment, address: 6D6E - 6D7D (0x10 bytes), align: 0
  Segment part 83.            Intra module refs:   GPRS_AT_QueryIP
    -------------------------------------------------------------------------
DATA16_C
  Relative segment, address: 6D7E - 6D91 (0x14 bytes), align: 0
  Segment part 85.            Intra module refs:   GPRS_AT_OpenTCPLink
           LOCAL                   ADDRESS         
           =====                   =======         
           GPRS_AT_OpenTCPLink::__FUNCTION__
                                   6D7E 
    -------------------------------------------------------------------------
DATA16_C
  Relative segment, address: 6D92 - 6DC3 (0x32 bytes), align: 0
  Segment part 91.            Intra module refs:   GPRS_AT_OpenTCPLink
    -------------------------------------------------------------------------
DATA16_C
  Relative segment, address: 6DC4 - 6DD0 (0xd bytes), align: 0
  Segment part 92.            Intra module refs:   GPRS_AT_OpenTCPLink
    -------------------------------------------------------------------------
DATA16_C
  Relative segment, address: 6DD1 - 6DD5 (0x5 bytes), align: 0
  Segment part 93.            Intra module refs:   GPRS_AT_OpenTCPLink
    -------------------------------------------------------------------------
DATA16_C
  Relative segment, address: 6DD6 - 6DEC (0x17 bytes), align: 0
  Segment part 94.            Intra module refs:   GPRS_AT_OpenTCPLink
    -------------------------------------------------------------------------
DATA16_C
  Relative segment, address: 6DED - 6E07 (0x1b bytes), align: 0
  Segment part 95.            Intra module refs:   GPRS_AT_OpenTCPLink
    -------------------------------------------------------------------------
DATA16_C
  Relative segment, address: 6E08 - 6E19 (0x12 bytes), align: 0
  Segment part 111.           Intra module refs:   GPRS_AT_SetIOMode
           LOCAL                   ADDRESS         
           =====                   =======         
           GPRS_AT_SetIOMode::__FUNCTION__
                                   6E08 
    -------------------------------------------------------------------------
DATA16_C
  Relative segment, address: 6E1A - 6E2D (0x14 bytes), align: 0
  Segment part 112.           Intra module refs:   GPRS_AT_SetIOMode
    -------------------------------------------------------------------------
DATA16_C
  Relative segment, address: 6E2E - 6E41 (0x14 bytes), align: 0
  Segment part 114.           Intra module refs:   GPRS_AT_SetIOMode
    -------------------------------------------------------------------------
DATA16_C
  Relative segment, address: 6E42 - 6E54 (0x13 bytes), align: 0
  Segment part 115.           Intra module refs:   GPRS_AT_SetIOMode
    -------------------------------------------------------------------------
DATA16_C
  Relative segment, address: 6E55 - 6E61 (0xd bytes), align: 0
  Segment part 116.           Intra module refs:   GRPS_AT_Send
           LOCAL                   ADDRESS         
           =====                   =======         
           GRPS_AT_Send::__FUNCTION__
                                   6E55 
    -------------------------------------------------------------------------
DATA16_C
  Relative segment, address: 6E62 - 6E7F (0x1e bytes), align: 0
  Segment part 118.           Intra module refs:   GRPS_AT_Send
    -------------------------------------------------------------------------
DATA16_C
  Relative segment, address: 6E80 - 6E8B (0xc bytes), align: 0
  Segment part 119.           Intra module refs:   GRPS_AT_Send
    -------------------------------------------------------------------------
DATA16_C
  Relative segment, address: 6E8C - 6EA0 (0x15 bytes), align: 0
  Segment part 120.           Intra module refs:   GRPS_AT_Send
    -------------------------------------------------------------------------
DATA16_C
  Relative segment, address: 6EA1 - 6EBC (0x1c bytes), align: 0
  Segment part 121.           Intra module refs:   GRPS_AT_Send
    -------------------------------------------------------------------------
DATA16_C
  Relative segment, address: 6EBD - 6EC0 (0x4 bytes), align: 0
  Segment part 131.           Intra module refs:   GPRS_AT_OFF_CALL
    -------------------------------------------------------------------------
DATA16_C
  Relative segment, address: 6EC1 - 6ECA (0xa bytes), align: 0
  Segment part 132.           Intra module refs:   GPRS_Send
           LOCAL                   ADDRESS         
           =====                   =======         
           GPRS_Send::__FUNCTION__
                                   6EC1 
    -------------------------------------------------------------------------
DATA16_C
  Relative segment, address: 6ECB - 6F0A (0x40 bytes), align: 0
  Segment part 133.           Intra module refs:   GPRS_Send
    -------------------------------------------------------------------------
DATA16_C
  Relative segment, address: 6F0B - 6F25 (0x1b bytes), align: 0
  Segment part 134.           Intra module refs:   GPRS_Send
    -------------------------------------------------------------------------
DATA16_C
  Relative segment, address: 6F26 - 6F3C (0x17 bytes), align: 0
  Segment part 135.           Intra module refs:   GPRS_Send
    -------------------------------------------------------------------------
DATA16_C
  Relative segment, address: 6F3D - 6F57 (0x1b bytes), align: 0
  Segment part 136.           Intra module refs:   GPRS_Send
    -------------------------------------------------------------------------
DATA16_C
  Relative segment, address: 6F58 - 6F75 (0x1e bytes), align: 0
  Segment part 138.           Intra module refs:   Hydrology_ProcessGPRSReceieve
           LOCAL                   ADDRESS         
           =====                   =======         
           Hydrology_ProcessGPRSReceieve::__FUNCTION__
                                   6F58 

    *************************************************************************

  FILE NAME : \\Mac\Home\work\ETL\Debug\Obj\hydrologycommand.r43
  PROGRAM MODULE, NAME : hydrologycommand

  SEGMENTS IN THE MODULE
  ======================
DATA16_AN
  Relative segment, address: 0200 - 0201 (0x2 bytes), align: 0
  Segment part 1. ROOT        Intra module refs:   Hydrology_ReadIO_STATUS
           ENTRY                   ADDRESS         REF BY
           =====                   =======         ======
           _A_PAIN_L               0200 
           LOCAL                   ADDRESS         
           =====                   =======         
           PAIN                    0200 
           PAIN_H                  0201 
           PAIN_L                  0200 
    -------------------------------------------------------------------------
DATA16_AN
  Relative segment, address: 0260 - 0261 (0x2 bytes), align: 0
  Segment part 4. ROOT        Intra module refs:   Hydrology_ReadIO_STATUS
           ENTRY                   ADDRESS         REF BY
           =====                   =======         ======
           _A_PDIN_L               0260 
           LOCAL                   ADDRESS         
           =====                   =======         
           PDIN                    0260 
           PDIN_H                  0261 
           PDIN_L                  0260 
    -------------------------------------------------------------------------
DATA16_AN
  Relative segment, address: 02A2 - 02A3 (0x2 bytes), align: 0
  Segment part 7. ROOT        Intra module refs:   Hydrology_ReadIO_STATUS
           ENTRY                   ADDRESS         REF BY
           =====                   =======         ======
           _A_PFOUT_L              02A2 
           LOCAL                   ADDRESS         
           =====                   =======         
           PFOUT                   02A2 
           PFOUT_H                 02A3 
           PFOUT_L                 02A2 
    -------------------------------------------------------------------------
DATA16_AN
  Relative segment, address: 02A4 - 02A5 (0x2 bytes), align: 0
  Segment part 8. ROOT        Intra module refs:   Hydrology_ReadIO_STATUS
                                                   Restart_Init (main)
           ENTRY                   ADDRESS         REF BY
           =====                   =======         ======
           _A_PFDIR_L              02A4 
           LOCAL                   ADDRESS         
           =====                   =======         
           PFDIR                   02A4 
           PFDIR_H                 02A5 
           PFDIR_L                 02A4 
    -------------------------------------------------------------------------
DATA16_Z
  Relative segment, address: 1D02 - 1D03 (0x2 bytes), align: 1
  Segment part 22.            Intra module refs:   Hydrology_ReadRS485
                                                   hydrologySetPara
           ENTRY                   ADDRESS         REF BY
           =====                   =======         ======
           RS485RegisterCount      1D02            HydrologyUpdateElementTable (hydrologytask)
    -------------------------------------------------------------------------
<CODE> 2 (was CODE)
  Relative segment, address: 00019C3C - 00019C41 (0x6 bytes), align: 1
  Segment part 26.            Intra module refs:   RS485_Send
           ENTRY                   ADDRESS         REF BY
           =====                   =======         ======
           RS485_SerilWrite        00019C3C 
               calls direct
    -------------------------------------------------------------------------
<CODE> 2 (was CODE)
  Relative segment, address: 00019AF8 - 00019B03 (0xc bytes), align: 1
  Segment part 27.            Intra module refs:   RS485_Read
           ENTRY                   ADDRESS         REF BY
           =====                   =======         ======
           RS485_SerilRead         00019AF8 
               calls direct
    -------------------------------------------------------------------------
<CODE> 2 (was CODE)
  Relative segment, address: 00019CB0 - 00019CB3 (0x4 bytes), align: 1
  Segment part 28.            Intra module refs:   Hydrology_ReadRS485
                                                   RS485_Send
           ENTRY                   ADDRESS         REF BY
           =====                   =======         ======
           RS485_Delayms           00019CB0 
               calls direct
    -------------------------------------------------------------------------
<CODE> 2 (was CODE)
  Relative segment, address: 00019CAC - 00019CAF (0x4 bytes), align: 1
  Segment part 29.            Intra module refs:   RS485_Send
           ENTRY                   ADDRESS         REF BY
           =====                   =======         ======
           RS485_Delayus           00019CAC 
               calls direct
    -------------------------------------------------------------------------
<CODE> 1 (was CODE)
  Relative segment, address: DA58 - DDE5 (0x38e bytes), align: 1
  Segment part 30.            Intra module refs:   Hydrology_ReadRS485
           ENTRY                   ADDRESS         REF BY
           =====                   =======         ======
           RS485_ValueDefine       DA58 
               calls direct
    -------------------------------------------------------------------------
<CODE> 2 (was CODE)
  Relative segment, address: 00012F0E - 00013003 (0xf6 bytes), align: 1
  Segment part 31.            Intra module refs:   Hydrology_ReadRS485
           ENTRY                   ADDRESS         REF BY
           =====                   =======         ======
           RS485_Send              00012F0E 
               calls direct
    -------------------------------------------------------------------------
<CODE> 2 (was CODE)
  Relative segment, address: 00011E28 - 00011F47 (0x120 bytes), align: 1
  Segment part 32.            Intra module refs:   Hydrology_ReadRS485
           ENTRY                   ADDRESS         REF BY
           =====                   =======         ======
           RS485_Read              00011E28 
               calls direct
    -------------------------------------------------------------------------
<CODE> 2 (was CODE)
  Relative segment, address: 00010D32 - 00010E7B (0x14a bytes), align: 1
  Segment part 33.
           ENTRY                   ADDRESS         REF BY
           =====                   =======         ======
           Hydrology_ReadRS485     00010D32        HydrologySample (hydrologytask)
               calls direct
    -------------------------------------------------------------------------
DATA16_Z
  Relative segment, address: 1DD8 - 1DD8 (0x1 bytes), align: 0
  Segment part 23.            Intra module refs:   Hydrology_ReadRS485
           LOCAL                   ADDRESS         
           =====                   =======         
           Hydrology_ReadRS485::rs485_count
                                   1DD8 
    -------------------------------------------------------------------------
<CODE> 2 (was CODE)
  Relative segment, address: 00019BD2 - 00019BD9 (0x8 bytes), align: 1
  Segment part 34.            Intra module refs:   Hydrology_ReadIO_STATUS
           ENTRY                   ADDRESS         REF BY
           =====                   =======         ======
           binary_to_gray          00019BD2 
    -------------------------------------------------------------------------
<CODE> 2 (was CODE)
  Relative segment, address: 000197C2 - 000197D7 (0x16 bytes), align: 1
  Segment part 35.            Intra module refs:   Hydrology_ReadIO_STATUS
           ENTRY                   ADDRESS         REF BY
           =====                   =======         ======
           get_io_status_parse_type
                                   000197C2 
               calls direct
    -------------------------------------------------------------------------
<CODE> 2 (was CODE)
  Relative segment, address: 0001185C - 0001198B (0x130 bytes), align: 1
  Segment part 36.
           ENTRY                   ADDRESS         REF BY
           =====                   =======         ======
           Hydrology_ReadIO_STATUS
                                   0001185C        HydrologySample (hydrologytask)
               calls direct
    -------------------------------------------------------------------------
<CODE> 2 (was CODE)
  Relative segment, address: 00019AC2 - 00019ACF (0xe bytes), align: 1
  Segment part 37.            Intra module refs:   hydrologyGate
                                                   hydrologyPump
                                                   hydrologyValve
           ENTRY                   ADDRESS         REF BY
           =====                   =======         ======
           Hydrology_SetIO_STATUS
                                   00019AC2 
    -------------------------------------------------------------------------
<CODE> 2 (was CODE)
  Relative segment, address: 00019CCE - 00019CCF (0x2 bytes), align: 1
  Segment part 38.            Intra module refs:   HydrologyReadSuiteElement
                                                   hydrologyCommand
           ENTRY                   ADDRESS         REF BY
           =====                   =======         ======
           hydrologyChangeMode     00019CCE 
    -------------------------------------------------------------------------
<CODE> 1 (was CODE)
  Relative segment, address: FB70 - FD2F (0x1c0 bytes), align: 1
  Segment part 39.            Intra module refs:   hydrologyBasicInfoConfig
           ENTRY                   ADDRESS         REF BY
           =====                   =======         ======
           hydrologyConfigSelect   FB70 
               calls direct
    -------------------------------------------------------------------------
<CODE> 1 (was CODE)
  Relative segment, address: F9B0 - FB6F (0x1c0 bytes), align: 1
  Segment part 40.            Intra module refs:   HydrologyReadSuiteElement
                                                   hydrologyBasicInfoRead
           ENTRY                   ADDRESS         REF BY
           =====                   =======         ======
           hydrologyReadSelect     F9B0 
               calls direct
    -------------------------------------------------------------------------
<CODE> 2 (was CODE)
  Relative segment, address: 00015EBA - 00015F3F (0x86 bytes), align: 1
  Segment part 41.            Intra module refs:   hydrologyCommand
           ENTRY                   ADDRESS         REF BY
           =====                   =======         ======
           hydrologyBasicInfoConfig
                                   00015EBA 
               calls direct
    -------------------------------------------------------------------------
<CODE> 2 (was CODE)
  Relative segment, address: 00015B96 - 00015C1B (0x86 bytes), align: 1
  Segment part 42.            Intra module refs:   hydrologyCommand
           ENTRY                   ADDRESS         REF BY
           =====                   =======         ======
           hydrologyBasicInfoRead
                                   00015B96 
               calls direct
    -------------------------------------------------------------------------
<CODE> 1 (was CODE)
  Relative segment, address: A01A - A8BB (0x8a2 bytes), align: 1
  Segment part 43.            Intra module refs:   hydrologySetPara
           ENTRY                   ADDRESS         REF BY
           =====                   =======         ======
           hydrologySetParaSelect
                                   A01A 
               calls direct
    -------------------------------------------------------------------------
<CODE> 1 (was CODE)
  Relative segment, address: B01E - B773 (0x756 bytes), align: 1
  Segment part 44.            Intra module refs:   HydrologyReadSuiteElement
                                                   hydrologyReadPara
           ENTRY                   ADDRESS         REF BY
           =====                   =======         ======
           hydrologyReadParaSelect
                                   B01E 
               calls direct
    -------------------------------------------------------------------------
<CODE> 1 (was CODE)
  Relative segment, address: EEBA - F0FF (0x246 bytes), align: 1
  Segment part 45.            Intra module refs:   hydrologySetPara
           ENTRY                   ADDRESS         REF BY
           =====                   =======         ======
           getElementDd            EEBA            HydrologyUpdateElementTable (hydrologytask)
    -------------------------------------------------------------------------
<CODE> 1 (was CODE)
  Relative segment, address: 895A - 96DD (0xd84 bytes), align: 1
  Segment part 46.            Intra module refs:   hydrologyCommand
           ENTRY                   ADDRESS         REF BY
           =====                   =======         ======
           hydrologySetPara        895A 
               calls direct
    -------------------------------------------------------------------------
<CODE> 2 (was CODE)
  Relative segment, address: 00015C1C - 00015CA1 (0x86 bytes), align: 1
  Segment part 47.            Intra module refs:   hydrologyCommand
           ENTRY                   ADDRESS         REF BY
           =====                   =======         ======
           hydrologyReadPara       00015C1C 
               calls direct
    -------------------------------------------------------------------------
<CODE> 2 (was CODE)
  Relative segment, address: 00015638 - 000156C1 (0x8a bytes), align: 1
  Segment part 48.            Intra module refs:   HydrologyReadSuiteElement
                                                   hydrologyCommand
           ENTRY                   ADDRESS         REF BY
           =====                   =======         ======
           hydrologyInitializeSolidStorage
                                   00015638 
               calls direct
    -------------------------------------------------------------------------
<CODE> 1 (was CODE)
  Relative segment, address: BE64 - C4EF (0x68c bytes), align: 1
  Segment part 49.            Intra module refs:   hydrologyCommand
           ENTRY                   ADDRESS         REF BY
           =====                   =======         ======
           Hydrology_Reset         BE64 
               calls direct
    -------------------------------------------------------------------------
<CODE> 2 (was CODE)
  Relative segment, address: 00018376 - 000183B7 (0x42 bytes), align: 1
  Segment part 50.            Intra module refs:   HydrologyReadSuiteElement
                                                   hydrologyCommand
           ENTRY                   ADDRESS         REF BY
           =====                   =======         ======
           Hydrology_SetPassword   00018376 
               calls direct
    -------------------------------------------------------------------------
<CODE> 2 (was CODE)
  Relative segment, address: 000194E2 - 000194FF (0x1e bytes), align: 1
  Segment part 51.            Intra module refs:   HydrologyReadSuiteElement
                                                   hydrologyCommand
           ENTRY                   ADDRESS         REF BY
           =====                   =======         ======
           hydrologySetClock       000194E2 
               calls direct
    -------------------------------------------------------------------------
<CODE> 2 (was CODE)
  Relative segment, address: 000183FA - 0001843B (0x42 bytes), align: 1
  Segment part 52.            Intra module refs:   HydrologyReadSuiteElement
                                                   hydrologyCommand
           ENTRY                   ADDRESS         REF BY
           =====                   =======         ======
           hydrologySetICCard      000183FA 
               calls direct
    -------------------------------------------------------------------------
<CODE> 2 (was CODE)
  Relative segment, address: 00017458 - 000174B5 (0x5e bytes), align: 1
  Segment part 53.            Intra module refs:   HydrologyReadSuiteElement
                                                   hydrologyCommand
           ENTRY                   ADDRESS         REF BY
           =====                   =======         ======
           hydrologyPump           00017458 
               calls direct
    -------------------------------------------------------------------------
<CODE> 2 (was CODE)
  Relative segment, address: 000173FA - 00017457 (0x5e bytes), align: 1
  Segment part 54.            Intra module refs:   HydrologyReadSuiteElement
                                                   hydrologyCommand
           ENTRY                   ADDRESS         REF BY
           =====                   =======         ======
           hydrologyValve          000173FA 
               calls direct
    -------------------------------------------------------------------------
<CODE> 2 (was CODE)
  Relative segment, address: 0001669E - 00016713 (0x76 bytes), align: 1
  Segment part 55.            Intra module refs:   HydrologyReadSuiteElement
                                                   hydrologyCommand
           ENTRY                   ADDRESS         REF BY
           =====                   =======         ======
           hydrologyGate           0001669E 
               calls direct
    -------------------------------------------------------------------------
<CODE> 2 (was CODE)
  Relative segment, address: 00018090 - 000180D3 (0x44 bytes), align: 1
  Segment part 56.            Intra module refs:   HydrologyReadSuiteElement
                                                   hydrologyCommand
           ENTRY                   ADDRESS         REF BY
           =====                   =======         ======
           hydrologyWaterSetting   00018090 
               calls direct
    -------------------------------------------------------------------------
<CODE> 2 (was CODE)
  Relative segment, address: 0001634C - 000163C7 (0x7c bytes), align: 1
  Segment part 57.            Intra module refs:   HydrologyReadSuiteElement
                                                   hydrologyCommand
           ENTRY                   ADDRESS         REF BY
           =====                   =======         ======
           HydrologyRecord         0001634C        Hydrology_ProcessGPRSReceieve (GTM900C)
               calls direct
    -------------------------------------------------------------------------
DATA16_Z
  Relative segment, address: 1DD9 - 1DD9 (0x1 bytes), align: 0
  Segment part 24.            Intra module refs:   hydrologyCommand
           ENTRY                   ADDRESS         REF BY
           =====                   =======         ======
           IsQuery                 1DD9            Hydrology_SendData (message)
    -------------------------------------------------------------------------
<CODE> 2 (was CODE)
  Relative segment, address: 0001418A - 0001423D (0xb4 bytes), align: 1
  Segment part 58.
           ENTRY                   ADDRESS         REF BY
           =====                   =======         ======
           hydrologyCommand        0001418A        hydrologyProcessReceieve (message)
               calls direct
    -------------------------------------------------------------------------
<CODE> 2 (was CODE)
  Relative segment, address: 000145A6 - 0001464B (0xa6 bytes), align: 1
  Segment part 59.
           ENTRY                   ADDRESS         REF BY
           =====                   =======         ======
           HydrologyReadSuiteElement
                                   000145A6        Hydrology_CalElementInfo (message)
               calls direct
    -------------------------------------------------------------------------
DATA16_C
  Relative segment, address: 6F76 - 6F80 (0xb bytes), align: 0
  Segment part 10.            Intra module refs:   RS485_Send
           LOCAL                   ADDRESS         
           =====                   =======         
           RS485_Send::__FUNCTION__
                                   6F76 
    -------------------------------------------------------------------------
DATA16_C
  Relative segment, address: 6F81 - 6F8B (0xb bytes), align: 0
  Segment part 12.            Intra module refs:   RS485_Read
           LOCAL                   ADDRESS         
           =====                   =======         
           RS485_Read::__FUNCTION__
                                   6F81 
    -------------------------------------------------------------------------
DATA16_C
  Relative segment, address: 6F8C - 6FA3 (0x18 bytes), align: 0
  Segment part 13.            Intra module refs:   RS485_Read
    -------------------------------------------------------------------------
DATA16_C
  Relative segment, address: 6FA4 - 6FB4 (0x11 bytes), align: 0
  Segment part 17.            Intra module refs:   hydrologySetPara
           LOCAL                   ADDRESS         
           =====                   =======         
           hydrologySetPara::__FUNCTION__
                                   6FA4 
    -------------------------------------------------------------------------
DATA16_C
  Relative segment, address: 6FB5 - 6FC3 (0xf bytes), align: 0
  Segment part 21.            Intra module refs:   Hydrology_Reset

    *************************************************************************

  FILE NAME : \\Mac\Home\work\ETL\Debug\Obj\hydrologytask.r43
  PROGRAM MODULE, NAME : hydrologytask

  SEGMENTS IN THE MODULE
  ======================
DATA16_Z
  Relative segment, address: 1D04 - 1D05 (0x2 bytes), align: 1
  Segment part 44.            Intra module refs:   HydrologyInstantWaterLevel
                                                   HydrologyTimeBase
           ENTRY                   ADDRESS         REF BY
           =====                   =======         ======
           time_10min              1D04 
    -------------------------------------------------------------------------
DATA16_Z
  Relative segment, address: 1D06 - 1D07 (0x2 bytes), align: 1
  Segment part 45.            Intra module refs:   HydrologyTimeBase
           ENTRY                   ADDRESS         REF BY
           =====                   =======         ======
           time_5min               1D06 
    -------------------------------------------------------------------------
DATA16_I
  Relative segment, address: 1C3C - 1C3D (0x2 bytes), align: 1
  Segment part 46.            Intra module refs:   HydrologyTimeBase
           ENTRY                   ADDRESS         REF BY
           =====                   =======         ======
           time_1min               1C3C 
    -------------------------------------------------------------------------
<CODE> 2 (was CODE)
  Relative segment, address: 000123BA - 000124CF (0x116 bytes), align: 1
  Segment part 59.
           ENTRY                   ADDRESS         REF BY
           =====                   =======         ======
           TryToSyncTime           000123BA        Hydrology_SendData (message)
               calls direct
    -------------------------------------------------------------------------
<CODE> 2 (was CODE)
  Relative segment, address: 00019AA6 - 00019AB3 (0xe bytes), align: 1
  Segment part 60.
           ENTRY                   ADDRESS         REF BY
           =====                   =======         ======
           HydrologyTimeBase       00019AA6        TIMERA0_ISR (timer)
    -------------------------------------------------------------------------
<CODE> 2 (was CODE)
  Relative segment, address: 00018118 - 0001815B (0x44 bytes), align: 1
  Segment part 61.            Intra module refs:   HydrologySample
           ENTRY                   ADDRESS         REF BY
           =====                   =======         ======
           convertSampleTimetoHydrology
                                   00018118        camera_Take (camera)
               calls direct
    -------------------------------------------------------------------------
<CODE> 2 (was CODE)
  Relative segment, address: 00017B3E - 00017B8D (0x50 bytes), align: 1
  Segment part 62.            Intra module refs:   HydrologyInstantWaterLevel
           ENTRY                   ADDRESS         REF BY
           =====                   =======         ======
           convertSendTimetoHydrology
                                   00017B3E        Hydrology_ReadTime (message)
               calls direct
    -------------------------------------------------------------------------
<CODE> 2 (was CODE)
  Relative segment, address: 000191FC - 00019221 (0x26 bytes), align: 1
  Segment part 63.            Intra module refs:   ConvertAnalog
           ENTRY                   ADDRESS         REF BY
           =====                   =======         ======
           convert_array_bcd2dec   000191FC 
               calls direct
    -------------------------------------------------------------------------
<CODE> 1 (was CODE)
  Relative segment, address: DDE6 - E111 (0x32c bytes), align: 1
  Segment part 64.            Intra module refs:   ADC_Element
           ENTRY                   ADDRESS         REF BY
           =====                   =======         ======
           ConvertAnalog           DDE6 
               calls direct
    -------------------------------------------------------------------------
<CODE> 2 (was CODE)
  Relative segment, address: 00018A26 - 00018A5D (0x38 bytes), align: 1
  Segment part 65.            Intra module refs:   HydrologySample
           ENTRY                   ADDRESS         REF BY
           =====                   =======         ======
           ADC_Element             00018A26 
               calls direct
    -------------------------------------------------------------------------
DATA16_Z
  Relative segment, address: 1DDA - 1DDD (0x4 bytes), align: 0
  Segment part 49.            Intra module refs:   HydrologySample
           ENTRY                   ADDRESS         REF BY
           =====                   =======         ======
           value                   1DDA 
    -------------------------------------------------------------------------
<CODE> 2 (was CODE)
  Relative segment, address: 00010BD8 - 00010D31 (0x15a bytes), align: 1
  Segment part 66.
           ENTRY                   ADDRESS         REF BY
           =====                   =======         ======
           HydrologyUpdateElementTable
                                   00010BD8        main (main)
               calls direct
    -------------------------------------------------------------------------
DATA16_Z
  Relative segment, address: 1DDE - 1DDE (0x1 bytes), align: 0
  Segment part 50.            Intra module refs:   HydrologyDataPacketInit
           ENTRY                   ADDRESS         REF BY
           =====                   =======         ======
           s_isr_count_flag        1DDE            PORT1_ISR (Sampler)
    -------------------------------------------------------------------------
DATA16_Z
  Relative segment, address: 1DDF - 1DDF (0x1 bytes), align: 0
  Segment part 51.            Intra module refs:   HydrologyDataPacketInit
                                                   HydrologyTask
           ENTRY                   ADDRESS         REF BY
           =====                   =======         ======
           s_picture_flag          1DDF            hydrologyMakeDownBody (message)
    -------------------------------------------------------------------------
<CODE> 2 (was CODE)
  Relative segment, address: 00010E7C - 00010FC3 (0x148 bytes), align: 1
  Segment part 67.
           ENTRY                   ADDRESS         REF BY
           =====                   =======         ======
           HydrologyDataPacketInit
                                   00010E7C        main (main)
               calls direct
    -------------------------------------------------------------------------
<CODE> 1 (was CODE)
  Relative segment, address: E112 - E40B (0x2fa bytes), align: 1
  Segment part 68.            Intra module refs:   HydrologyTask
           ENTRY                   ADDRESS         REF BY
           =====                   =======         ======
           HydrologySample         E112 
               calls direct
    -------------------------------------------------------------------------
DATA16_Z
  Relative segment, address: 1DE0 - 1DE5 (0x6 bytes), align: 0
  Segment part 52.            Intra module refs:   HydrologySample
           LOCAL                   ADDRESS         
           =====                   =======         
           HydrologySample::sampletime
                                   1DE0 
    -------------------------------------------------------------------------
<CODE> 1 (was CODE)
  Relative segment, address: CE74 - D2ED (0x47a bytes), align: 1
  Segment part 71.            Intra module refs:   HydrologyTask
           ENTRY                   ADDRESS         REF BY
           =====                   =======         ======
           HydrologySaveData       CE74 
               calls direct
    -------------------------------------------------------------------------
DATA16_Z
  Relative segment, address: 1DE6 - 1DEB (0x6 bytes), align: 0
  Segment part 53.            Intra module refs:   HydrologySaveData
           LOCAL                   ADDRESS         
           =====                   =======         
           HydrologySaveData::storetime
                                   1DE6 
    -------------------------------------------------------------------------
<CODE> 1 (was CODE)
  Relative segment, address: EC5E - EEB9 (0x25c bytes), align: 1
  Segment part 72.            Intra module refs:   HydrologyTask
           ENTRY                   ADDRESS         REF BY
           =====                   =======         ======
           HydrologyInstantWaterLevel
                                   EC5E 
               calls direct
    -------------------------------------------------------------------------
DATA16_Z
  Relative segment, address: 1DEC - 1DF1 (0x6 bytes), align: 0
  Segment part 54.            Intra module refs:   HydrologyInstantWaterLevel
           LOCAL                   ADDRESS         
           =====                   =======         
           HydrologyInstantWaterLevel::endtime
                                   1DEC 
    -------------------------------------------------------------------------
DATA16_Z
  Relative segment, address: 1DF2 - 1DF7 (0x6 bytes), align: 0
  Segment part 55.            Intra module refs:   HydrologyInstantWaterLevel
           LOCAL                   ADDRESS         
           =====                   =======         
           HydrologyInstantWaterLevel::time
                                   1DF2 
    -------------------------------------------------------------------------
<CODE> 2 (was CODE)
  Relative segment, address: 00010A76 - 00010BD7 (0x162 bytes), align: 1
  Segment part 58.            Intra module refs:   HydrologyTask
                                                   TryToSyncTime
           ENTRY                   ADDRESS         REF BY
           =====                   =======         ======
           Hydrology_TimeCheck     00010A76 
               calls direct
    -------------------------------------------------------------------------
<CODE> 2 (was CODE)
  Relative segment, address: 00013808 - 000138E1 (0xda bytes), align: 1
  Segment part 74.
           ENTRY                   ADDRESS         REF BY
           =====                   =======         ======
           HydrologyTask           00013808        main (main)
               calls direct
    -------------------------------------------------------------------------
DATA16_ID
  Relative segment, address: 7ACE - 7ACF (0x2 bytes), align: 1
  Segment part 47.            Intra module refs:   time_1min
    -------------------------------------------------------------------------
DATA16_C
  Relative segment, address: 6FC4 - 6FD1 (0xe bytes), align: 0
  Segment part 2.             Intra module refs:   TryToSyncTime
           LOCAL                   ADDRESS         
           =====                   =======         
           TryToSyncTime::__FUNCTION__
                                   6FC4 
    -------------------------------------------------------------------------
DATA16_C
  Relative segment, address: 6FD2 - 6FFA (0x29 bytes), align: 0
  Segment part 3.             Intra module refs:   Hydrology_TimeCheck
                                                   TryToSyncTime
    -------------------------------------------------------------------------
DATA16_C
  Relative segment, address: 6FFB - 7033 (0x39 bytes), align: 0
  Segment part 5.             Intra module refs:   HydrologyDataPacketInit
                                                   Hydrology_TimeCheck
                                                   TryToSyncTime
    -------------------------------------------------------------------------
DATA16_C
  Relative segment, address: 7034 - 7052 (0x1f bytes), align: 0
  Segment part 6.             Intra module refs:   TryToSyncTime
    -------------------------------------------------------------------------
DATA16_C
  Relative segment, address: 7053 - 7054 (0x2 bytes), align: 0
  Segment part 7.             Intra module refs:   ConvertAnalog
    -------------------------------------------------------------------------
DATA16_C
  Relative segment, address: 7055 - 7056 (0x2 bytes), align: 0
  Segment part 8.             Intra module refs:   ConvertAnalog
    -------------------------------------------------------------------------
DATA16_C
  Relative segment, address: 7057 - 7072 (0x1c bytes), align: 0
  Segment part 11.            Intra module refs:   HydrologyUpdateElementTable
           LOCAL                   ADDRESS         
           =====                   =======         
           HydrologyUpdateElementTable::__FUNCTION__
                                   7057 
    -------------------------------------------------------------------------
DATA16_C
  Relative segment, address: 7073 - 7082 (0x10 bytes), align: 0
  Segment part 13.            Intra module refs:   HydrologySample
           LOCAL                   ADDRESS         
           =====                   =======         
           HydrologySample::__FUNCTION__
                                   7073 
    -------------------------------------------------------------------------
DATA16_C
  Relative segment, address: 7083 - 7093 (0x11 bytes), align: 0
  Segment part 16.            Intra module refs:   HydrologySample
    -------------------------------------------------------------------------
DATA16_C
  Relative segment, address: 7094 - 70A5 (0x12 bytes), align: 0
  Segment part 17.            Intra module refs:   HydrologySample
    -------------------------------------------------------------------------
DATA16_C
  Relative segment, address: 70A6 - 70B4 (0xf bytes), align: 0
  Segment part 18.            Intra module refs:   HydrologySample
    -------------------------------------------------------------------------
DATA16_C
  Relative segment, address: 70B5 - 70C6 (0x12 bytes), align: 0
  Segment part 19.            Intra module refs:   HydrologySaveData
           LOCAL                   ADDRESS         
           =====                   =======         
           HydrologySaveData::__FUNCTION__
                                   70B5 
    -------------------------------------------------------------------------
DATA16_C
  Relative segment, address: 70C7 - 70D5 (0xf bytes), align: 0
  Segment part 21.            Intra module refs:   HydrologySaveData
    -------------------------------------------------------------------------
DATA16_C
  Relative segment, address: 70D6 - 70E5 (0x10 bytes), align: 0
  Segment part 22.            Intra module refs:   HydrologySaveData
    -------------------------------------------------------------------------
DATA16_C
  Relative segment, address: 70E6 - 70F7 (0x12 bytes), align: 0
  Segment part 24.            Intra module refs:   HydrologySaveData
    -------------------------------------------------------------------------
DATA16_C
  Relative segment, address: 70F8 - 7112 (0x1b bytes), align: 0
  Segment part 25.            Intra module refs:   HydrologyInstantWaterLevel
           LOCAL                   ADDRESS         
           =====                   =======         
           HydrologyInstantWaterLevel::__FUNCTION__
                                   70F8 
    -------------------------------------------------------------------------
DATA16_C
  Relative segment, address: 7113 - 7122 (0x10 bytes), align: 0
  Segment part 26.            Intra module refs:   HydrologyInstantWaterLevel
    -------------------------------------------------------------------------
DATA16_C
  Relative segment, address: 7123 - 712F (0xd bytes), align: 0
  Segment part 27.            Intra module refs:   HydrologyInstantWaterLevel
    -------------------------------------------------------------------------
DATA16_C
  Relative segment, address: 7130 - 713E (0xf bytes), align: 0
  Segment part 29.            Intra module refs:   HydrologyInstantWaterLevel
    -------------------------------------------------------------------------
DATA16_C
  Relative segment, address: 713F - 7154 (0x16 bytes), align: 0
  Segment part 30.            Intra module refs:   HydrologyInstantWaterLevel
    -------------------------------------------------------------------------
DATA16_C
  Relative segment, address: 7155 - 7171 (0x1d bytes), align: 0
  Segment part 31.            Intra module refs:   HydrologyInstantWaterLevel
    -------------------------------------------------------------------------
DATA16_C
  Relative segment, address: 7172 - 7182 (0x11 bytes), align: 0
  Segment part 32.            Intra module refs:   HydrologyInstantWaterLevel
    -------------------------------------------------------------------------
DATA16_C
  Relative segment, address: 7183 - 71C1 (0x3f bytes), align: 0
  Segment part 33.            Intra module refs:   HydrologyInstantWaterLevel
    -------------------------------------------------------------------------
DATA16_C
  Relative segment, address: 71C2 - 71CD (0xc bytes), align: 0
  Segment part 34.            Intra module refs:   HydrologyInstantWaterLevel
    -------------------------------------------------------------------------
DATA16_C
  Relative segment, address: 71CE - 71E5 (0x18 bytes), align: 0
  Segment part 35.            Intra module refs:   HydrologyInstantWaterLevel
    -------------------------------------------------------------------------
DATA16_C
  Relative segment, address: 71E6 - 71F9 (0x14 bytes), align: 0
  Segment part 36.            Intra module refs:   Hydrology_TimeCheck
           LOCAL                   ADDRESS         
           =====                   =======         
           Hydrology_TimeCheck::__FUNCTION__
                                   71E6 
    -------------------------------------------------------------------------
DATA16_C
  Relative segment, address: 71FA - 720D (0x14 bytes), align: 0
  Segment part 37.            Intra module refs:   Hydrology_TimeCheck
    -------------------------------------------------------------------------
DATA16_C
  Relative segment, address: 720E - 721F (0x12 bytes), align: 0
  Segment part 38.            Intra module refs:   Hydrology_TimeCheck
    -------------------------------------------------------------------------
DATA16_C
  Relative segment, address: 7220 - 7234 (0x15 bytes), align: 0
  Segment part 39.            Intra module refs:   Hydrology_TimeCheck
    -------------------------------------------------------------------------
DATA16_C
  Relative segment, address: 7235 - 725B (0x27 bytes), align: 0
  Segment part 41.            Intra module refs:   Hydrology_TimeCheck
    -------------------------------------------------------------------------
DATA16_C
  Relative segment, address: 725C - 7287 (0x2c bytes), align: 0
  Segment part 42.            Intra module refs:   Hydrology_TimeCheck

    *************************************************************************

  FILE NAME : \\Mac\Home\work\ETL\Debug\Obj\ioDev.r43
  PROGRAM MODULE, NAME : ioDev

  SEGMENTS IN THE MODULE
  ======================
DATA16_Z
  Relative segment, address: 1D08 - 1D09 (0x2 bytes), align: 1
  Segment part 3.             Intra module refs:   RegisterIODev
                                                   getIODev
           LOCAL                   ADDRESS         
           =====                   =======         
           g_ptIODevHead           1D08 
    -------------------------------------------------------------------------
<CODE> 2 (was CODE)
  Relative segment, address: 00019920 - 0001992F (0x10 bytes), align: 1
  Segment part 4.
           ENTRY                   ADDRESS         REF BY
           =====                   =======         ======
           RegisterIODev           00019920        BleDriverInstall (blueTooth)
    -------------------------------------------------------------------------
<CODE> 2 (was CODE)
  Relative segment, address: 00019C24 - 00019C29 (0x6 bytes), align: 1
  Segment part 6.
           ENTRY                   ADDRESS         REF BY
           =====                   =======         ======
           getIODev                00019C24        Hydrology_InitWaitConfig (uart_config)
                                                   Hydrology_ProcessBLEReceieve (uart_config)
                                                   Hydrology_SendData (message)

    *************************************************************************

  FILE NAME : \\Mac\Home\work\ETL\Debug\Obj\lcd_b.r43
    *************************************************************************

  FILE NAME : \\Mac\Home\work\ETL\Debug\Obj\lcd_c.r43
    *************************************************************************

  FILE NAME : \\Mac\Home\work\ETL\Debug\Obj\ldopwr.r43
    *************************************************************************

  FILE NAME : \\Mac\Home\work\ETL\Debug\Obj\led.r43
  PROGRAM MODULE, NAME : led

  SEGMENTS IN THE MODULE
  ======================
DATA16_AN
  Relative segment, address: 022A - 022B (0x2 bytes), align: 0
  Segment part 3. ROOT        Intra module refs:   Led_Init
                                                   Sampler_Init (Sampler)
                                                   UART0_Open (uart0)
           ENTRY                   ADDRESS         REF BY
           =====                   =======         ======
           _A_PBSEL_L              022A 
           LOCAL                   ADDRESS         
           =====                   =======         
           PBSEL                   022A 
           PBSEL_H                 022B 
           PBSEL_L                 022A 
    -------------------------------------------------------------------------
<CODE> 2 (was CODE)
  Relative segment, address: 0001986A - 0001987D (0x14 bytes), align: 1
  Segment part 5.
           ENTRY                   ADDRESS         REF BY
           =====                   =======         ======
           Led_Init                0001986A        Restart_Init (main)
    -------------------------------------------------------------------------
<CODE> 2 (was CODE)
  Relative segment, address: 000193AA - 000193C9 (0x20 bytes), align: 1
  Segment part 10.
           ENTRY                   ADDRESS         REF BY
           =====                   =======         ======
           Led_Round               000193AA        main (main)
               calls direct
    -------------------------------------------------------------------------
<CODE> 2 (was CODE)
  Relative segment, address: 00019C1E - 00019C23 (0x6 bytes), align: 1
  Segment part 9.             Intra module refs:   Led_Round
                                                   Led_WARN1
           ENTRY                   ADDRESS         REF BY
           =====                   =======         ======
           Led1_On                 00019C1E        sys_error_status (sys_status)
    -------------------------------------------------------------------------
<CODE> 2 (was CODE)
  Relative segment, address: 00019C72 - 00019C77 (0x6 bytes), align: 1
  Segment part 7.             Intra module refs:   Led_Round
           ENTRY                   ADDRESS         REF BY
           =====                   =======         ======
           Led2_On                 00019C72 
    -------------------------------------------------------------------------
<CODE> 2 (was CODE)
  Relative segment, address: 00019C36 - 00019C3B (0x6 bytes), align: 1
  Segment part 8.             Intra module refs:   Led_Round
                                                   Led_WARN1
           ENTRY                   ADDRESS         REF BY
           =====                   =======         ======
           Led1_Off                00019C36        sys_error_status (sys_status)
    -------------------------------------------------------------------------
<CODE> 2 (was CODE)
  Relative segment, address: 00019C42 - 00019C47 (0x6 bytes), align: 1
  Segment part 6.             Intra module refs:   Led_Round
           ENTRY                   ADDRESS         REF BY
           =====                   =======         ======
           Led2_Off                00019C42 
    -------------------------------------------------------------------------
<CODE> 2 (was CODE)
  Relative segment, address: 00019BC2 - 00019BC9 (0x8 bytes), align: 1
  Segment part 12.
           ENTRY                   ADDRESS         REF BY
           =====                   =======         ======
           Led_OffAll              00019BC2        ADC_Sample (adc)
                                                   GPRS_AT_CheckSimStat (GTM900C)
                                                   GPRS_Print_Error (GTM900C)
                                                   GPRS_Send (GTM900C)
                                                   GRPS_AT_Send (GTM900C)
                                                   Hydrology_ProcessUARTReceieve (uart_config)
                                                   RS485_Read (hydrologycommand)
                                                   Restart_Init (main)
    -------------------------------------------------------------------------
<CODE> 2 (was CODE)
  Relative segment, address: 00017F76 - 00017FBD (0x48 bytes), align: 1
  Segment part 14.
           ENTRY                   ADDRESS         REF BY
           =====                   =======         ======
           Led_WARN1               00017F76        GSM_DealData (GSM)
               calls direct
    -------------------------------------------------------------------------
<CODE> 2 (was CODE)
  Relative segment, address: 00019CCC - 00019CCD (0x2 bytes), align: 1
  Segment part 18.
           ENTRY                   ADDRESS         REF BY
           =====                   =======         ======
           Led1_WorkLightOff       00019CCC        GPRS_AT_CheckSimStat (GTM900C)
                                                   GPRS_Print_Error (GTM900C)
                                                   GPRS_Send (GTM900C)
                                                   GRPS_AT_Send (GTM900C)
                                                   RS485_Read (hydrologycommand)
                                                   Restart_Init (main)

    *************************************************************************

  FILE NAME : \\Mac\Home\work\ETL\Debug\Obj\lowpower.r43
  PROGRAM MODULE, NAME : lowpower

  SEGMENTS IN THE MODULE
  ======================
DATA16_AN
  Relative segment, address: 0202 - 0203 (0x2 bytes), align: 0
  Segment part 1. ROOT        Intra module refs:   BoardPowerOn
                                                   ROM_WP_OFF (rom)
                                                   ROM_WP_ON (rom)
           ENTRY                   ADDRESS         REF BY
           =====                   =======         ======
           _A_PAOUT_L              0202 
           LOCAL                   ADDRESS         
           =====                   =======         
           PAOUT                   0202 
           PAOUT_H                 0203 
           PAOUT_L                 0202 
    -------------------------------------------------------------------------
DATA16_AN
  Relative segment, address: 0204 - 0205 (0x2 bytes), align: 0
  Segment part 2. ROOT        Intra module refs:   BoardPowerOn
                                                   ROM_WP_OFF (rom)
                                                   ROM_WP_ON (rom)
                                                   Restart_Init (main)
                                                   Sampler_Init (Sampler)
           ENTRY                   ADDRESS         REF BY
           =====                   =======         ======
           _A_PADIR_L              0204 
           LOCAL                   ADDRESS         
           =====                   =======         
           PADIR                   0204 
           PADIR_H                 0205 
           PADIR_L                 0204 
    -------------------------------------------------------------------------
DATA16_I
  Relative segment, address: 1C3E - 1C3F (0x2 bytes), align: 1
  Segment part 13.            Intra module refs:   CalcNextWakeupTime
                                                   SetSleepInterval
                                                   SleepIfWakeupAcceidently
                                                   gotoSleepLPM3
           ENTRY                   ADDRESS         REF BY
           =====                   =======         ======
           g_sleep_interval_type   1C3E 
    -------------------------------------------------------------------------
DATA16_I
  Relative segment, address: 1C40 - 1C41 (0x2 bytes), align: 1
  Segment part 15.            Intra module refs:   CalcNextWakeupTime
                                                   SetSleepInterval
                                                   SleepIfWakeupAcceidently
                                                   gotoSleepLPM3
           ENTRY                   ADDRESS         REF BY
           =====                   =======         ======
           g_sleep_interval        1C40 
    -------------------------------------------------------------------------
<CODE> 2 (was CODE)
  Relative segment, address: 00019B74 - 00019B7D (0xa bytes), align: 1
  Segment part 17.
           ENTRY                   ADDRESS         REF BY
           =====                   =======         ======
           BoardPowerOn            00019B74        main (main)
    -------------------------------------------------------------------------
<CODE> 2 (was CODE)
  Relative segment, address: 00010912 - 00010A75 (0x164 bytes), align: 1
  Segment part 21.            Intra module refs:   SleepIfWakeupAcceidently
           ENTRY                   ADDRESS         REF BY
           =====                   =======         ======
           CalcNextWakeupTime      00010912 
               calls direct
    -------------------------------------------------------------------------
<CODE> 2 (was CODE)
  Relative segment, address: 000132D2 - 000133B7 (0xe6 bytes), align: 1
  Segment part 22.
           ENTRY                   ADDRESS         REF BY
           =====                   =======         ======
           SleepIfWakeupAcceidently
                                   000132D2        main (main)
               calls direct
    -------------------------------------------------------------------------
<CODE> 2 (was CODE)
  Relative segment, address: 00019B4C - 00019B55 (0xa bytes), align: 1
  Segment part 23.
           ENTRY                   ADDRESS         REF BY
           =====                   =======         ======
           SetSleepInterval        00019B4C        main (main)
    -------------------------------------------------------------------------
<CODE> 2 (was CODE)
  Relative segment, address: 00019650 - 00019669 (0x1a bytes), align: 1
  Segment part 19.            Intra module refs:   SleepIfWakeupAcceidently
           ENTRY                   ADDRESS         REF BY
           =====                   =======         ======
           gotoSleepLPM3           00019650        main (main)
               calls direct
    -------------------------------------------------------------------------
DATA16_ID
  Relative segment, address: 7AD0 - 7AD1 (0x2 bytes), align: 1
  Segment part 14.            Intra module refs:   g_sleep_interval_type
    -------------------------------------------------------------------------
DATA16_ID
  Relative segment, address: 7AD2 - 7AD3 (0x2 bytes), align: 1
  Segment part 16.            Intra module refs:   g_sleep_interval
    -------------------------------------------------------------------------
DATA16_C
  Relative segment, address: 7288 - 729E (0x17 bytes), align: 0
  Segment part 7.             Intra module refs:   CalcNextWakeupTime
    -------------------------------------------------------------------------
DATA16_C
  Relative segment, address: 729F - 72B4 (0x16 bytes), align: 0
  Segment part 8.             Intra module refs:   CalcNextWakeupTime
    -------------------------------------------------------------------------
DATA16_C
  Relative segment, address: 72B5 - 72CA (0x16 bytes), align: 0
  Segment part 9.             Intra module refs:   CalcNextWakeupTime
    -------------------------------------------------------------------------
DATA16_C
  Relative segment, address: 72CB - 72DF (0x15 bytes), align: 0
  Segment part 10.            Intra module refs:   SleepIfWakeupAcceidently
    -------------------------------------------------------------------------
DATA16_C
  Relative segment, address: 72E0 - 7303 (0x24 bytes), align: 0
  Segment part 11.            Intra module refs:   SleepIfWakeupAcceidently
    -------------------------------------------------------------------------
DATA16_C
  Relative segment, address: 7304 - 7316 (0x13 bytes), align: 0
  Segment part 12.            Intra module refs:   gotoSleepLPM3

    *************************************************************************

  FILE NAME : \\Mac\Home\work\ETL\Debug\Obj\main.r43
  PROGRAM MODULE, NAME : main

  SEGMENTS IN THE MODULE
  ======================
DATA16_AN
  Relative segment, address: 020A - 020B (0x2 bytes), align: 0
  Segment part 2. ROOT        Intra module refs:   Restart_Init
                                                   Sampler_Init (Sampler)
           ENTRY                   ADDRESS         REF BY
           =====                   =======         ======
           _A_PASEL_L              020A 
           LOCAL                   ADDRESS         
           =====                   =======         
           PASEL                   020A 
           PASEL_H                 020B 
           PASEL_L                 020A 
    -------------------------------------------------------------------------
DATA16_AN
  Relative segment, address: 0100 - 0101 (0x2 bytes), align: 0
  Segment part 9. ROOT        Intra module refs:   Restart_Init
           ENTRY                   ADDRESS         REF BY
           =====                   =======         ======
           _A_SFRIE1_L             0100 
           LOCAL                   ADDRESS         
           =====                   =======         
           SFRIE1                  0100 
           SFRIE1_H                0101 
           SFRIE1_L                0100 
    -------------------------------------------------------------------------
DATA16_I
  Relative segment, address: 1C42 - 1C43 (0x2 bytes), align: 1
  Segment part 43.            Intra module refs:   main
           ENTRY                   ADDRESS         REF BY
           =====                   =======         ======
           Opened                  1C42            Console_WriteBytes (Console)
                                                   Console_WriteBytesln (Console)
                                                   Console_WriteString (Console)
                                                   Console_WriteStringln (Console)
    -------------------------------------------------------------------------
DATA16_I
  Relative segment, address: 1C44 - 1C45 (0x2 bytes), align: 1
  Segment part 45.            Intra module refs:   UpdateDebugState
           ENTRY                   ADDRESS         REF BY
           =====                   =======         ======
           IsDebug                 1C44            BLE_ISFINDBT (blueTooth)
                                                   BleDriverInstall (blueTooth)
                                                   HydrologyDataPacketInit (hydrologytask)
                                                   HydrologyInstantWaterLevel (hydrologytask)
                                                   HydrologySample (hydrologytask)
                                                   HydrologySaveData (hydrologytask)
                                                   Hydrology_InitWaitConfig (uart_config)
                                                   Hydrology_SendData (message)
                                                   ROM_WriteByte (rom)
                                                   SleepIfWakeupAcceidently (lowpower)
                                                   Utility_Is_A_ReportTime (common)
                                                   _ROM_WriteBytes (rom)
                                                   ble_init (blueTooth)
    -------------------------------------------------------------------------
DATA16_Z
  Relative segment, address: 1DF8 - 1DF8 (0x1 bytes), align: 0
  Segment part 47.            Intra module refs:   Restart_Init
           ENTRY                   ADDRESS         REF BY
           =====                   =======         ======
           Is_RS485_1              1DF8            RS485_Read (hydrologycommand)
    -------------------------------------------------------------------------
DATA16_Z
  Relative segment, address: 1DF9 - 1DF9 (0x1 bytes), align: 0
  Segment part 49.
           ENTRY                   ADDRESS         REF BY
           =====                   =======         ======
           Is_uart1_RX_INT         1DF9            RS485_Read (hydrologycommand)
                                                   UART1_RX_ISR (uart1)
    -------------------------------------------------------------------------
<CODE> 2 (was CODE)
  Relative segment, address: 00018D12 - 00018D45 (0x34 bytes), align: 1
  Segment part 50.            Intra module refs:   main
           ENTRY                   ADDRESS         REF BY
           =====                   =======         ======
           UpdateDebugState        00018D12 
               calls direct
    -------------------------------------------------------------------------
<CODE> 2 (was CODE)
  Relative segment, address: 0001721C - 0001727D (0x62 bytes), align: 1
  Segment part 55.
           ENTRY                   ADDRESS         REF BY
           =====                   =======         ======
           main                    0001721C        Segment part 27 (?cstart)
               calls direct
    -------------------------------------------------------------------------
ISR_CODE
  Relative segment, address: 7B30 - 7B57 (0x28 bytes), align: 1
  Segment part 62.            Intra module refs:   Port_2::??INTVEC 84
           ENTRY                   ADDRESS         REF BY
           =====                   =======         ======
           Port_2                  7B30 
               interrupt function
               calls direct
    -------------------------------------------------------------------------
<CODE> 2 (was CODE)
  Relative segment, address: 00016628 - 0001669D (0x76 bytes), align: 1
  Segment part 54.            Intra module refs:   main
           ENTRY                   ADDRESS         REF BY
           =====                   =======         ======
           Restart_Init            00016628 
               calls direct
    -------------------------------------------------------------------------
<CODE> 2 (was CODE)
  Relative segment, address: 000192FE - 00019321 (0x24 bytes), align: 1
  Segment part 53.            Intra module refs:   main
           ENTRY                   ADDRESS         REF BY
           =====                   =======         ======
           Main_Init               000192FE 
               calls direct
    -------------------------------------------------------------------------
<CODE> 2 (was CODE)
  Relative segment, address: 00010198 - 0001032D (0x196 bytes), align: 1
  Segment part 61.
           ENTRY                   ADDRESS         REF BY
           =====                   =======         ======
           setWakeupInterval       00010198        gotoSleepLPM3 (lowpower)
               calls direct
    -------------------------------------------------------------------------
INTVEC
  Common segment, address: FF80 - FFD5 (0x56 bytes), align: 1
  Segment part 10. ROOT 
           ENTRY                   ADDRESS         REF BY
           =====                   =======         ======
           Port_2::??INTVEC 84     FFD4 
    -------------------------------------------------------------------------
DATA16_ID
  Relative segment, address: 7AD4 - 7AD5 (0x2 bytes), align: 1
  Segment part 44.            Intra module refs:   Opened
    -------------------------------------------------------------------------
DATA16_ID
  Relative segment, address: 7AD6 - 7AD7 (0x2 bytes), align: 1
  Segment part 46.            Intra module refs:   IsDebug
    -------------------------------------------------------------------------
DATA16_C
  Relative segment, address: 7317 - 7324 (0xe bytes), align: 0
  Segment part 12.            Intra module refs:   UpdateDebugState
    -------------------------------------------------------------------------
DATA16_C
  Relative segment, address: 7325 - 7332 (0xe bytes), align: 0
  Segment part 13.            Intra module refs:   UpdateDebugState
    -------------------------------------------------------------------------
DATA16_C
  Relative segment, address: 7333 - 7337 (0x5 bytes), align: 0
  Segment part 28.            Intra module refs:   main
           LOCAL                   ADDRESS         
           =====                   =======         
           main::__FUNCTION__      7333 
    -------------------------------------------------------------------------
DATA16_C
  Relative segment, address: 7338 - 7345 (0xe bytes), align: 0
  Segment part 29.            Intra module refs:   main
    -------------------------------------------------------------------------
DATA16_C
  Relative segment, address: 7346 - 7350 (0xb bytes), align: 0
  Segment part 30.            Intra module refs:   Port_2
    -------------------------------------------------------------------------
DATA16_C
  Relative segment, address: 7351 - 7367 (0x17 bytes), align: 0
  Segment part 39.            Intra module refs:   setWakeupInterval
    -------------------------------------------------------------------------
DATA16_C
  Relative segment, address: 7368 - 737D (0x16 bytes), align: 0
  Segment part 40.            Intra module refs:   setWakeupInterval
    -------------------------------------------------------------------------
DATA16_C
  Relative segment, address: 737E - 7393 (0x16 bytes), align: 0
  Segment part 41.            Intra module refs:   setWakeupInterval
    -------------------------------------------------------------------------
DATA16_C
  Relative segment, address: 7394 - 73B1 (0x1e bytes), align: 0
  Segment part 42.            Intra module refs:   setWakeupInterval

    *************************************************************************

  FILE NAME : \\Mac\Home\work\ETL\Debug\Obj\message.r43
  PROGRAM MODULE, NAME : message

  SEGMENTS IN THE MODULE
  ======================
DATA16_Z
  Relative segment, address: 1D0A - 1D0B (0x2 bytes), align: 1
  Segment part 20.            Intra module refs:   hydrologyMakeDownBody
           ENTRY                   ADDRESS         REF BY
           =====                   =======         ======
           Extend_Flag             1D0A            hydrologySetPara (hydrologycommand)
    -------------------------------------------------------------------------
DATA16_Z
  Relative segment, address: 1DFA - 1DFA (0x1 bytes), align: 0
  Segment part 21.            Intra module refs:   hydrologyInitSend
           ENTRY                   ADDRESS         REF BY
           =====                   =======         ======
           ADCElementCount         1DFA 
    -------------------------------------------------------------------------
DATA16_Z
  Relative segment, address: 1DFB - 1DFB (0x1 bytes), align: 0
  Segment part 22.            Intra module refs:   hydrologyInitSend
           ENTRY                   ADDRESS         REF BY
           =====                   =======         ======
           ISR_COUNTElementCount   1DFB 
    -------------------------------------------------------------------------
DATA16_Z
  Relative segment, address: 1DFC - 1DFC (0x1 bytes), align: 0
  Segment part 23.            Intra module refs:   hydrologyInitSend
           ENTRY                   ADDRESS         REF BY
           =====                   =======         ======
           IO_STATUSElementCount   1DFC 
    -------------------------------------------------------------------------
DATA16_Z
  Relative segment, address: 1DFD - 1DFD (0x1 bytes), align: 0
  Segment part 24.            Intra module refs:   hydrologyInitSend
           ENTRY                   ADDRESS         REF BY
           =====                   =======         ======
           RS485ElementCount       1DFD 
    -------------------------------------------------------------------------
DATA16_Z
  Relative segment, address: 1D0C - 1D0D (0x2 bytes), align: 1
  Segment part 25.            Intra module refs:   hydrologyInitSend
           ENTRY                   ADDRESS         REF BY
           =====                   =======         ======
           UserElementCount        1D0C            HydrologyUpdateElementTable (hydrologytask)
                                                   hydrologySetPara (hydrologycommand)
    -------------------------------------------------------------------------
DATA16_Z
  Relative segment, address: 1D0E - 1D0F (0x2 bytes), align: 1
  Segment part 26.
           ENTRY                   ADDRESS         REF BY
           =====                   =======         ======
           DataPacketLen           1D0E            HydrologyDataPacketInit (hydrologytask)
                                                   Store_CheckDataItemSended (store)
                                                   Store_MarkDataItemSended (store)
                                                   Store_ReadDataItem (store)
                                                   Store_WriteDataItem (store)
    -------------------------------------------------------------------------
DATA16_Z
  Relative segment, address: 1DFE - 1E0E (0x11 bytes), align: 0
  Segment part 27.            Intra module refs:   hydrologyInitSend
           ENTRY                   ADDRESS         REF BY
           =====                   =======         ======
           g_HydrologyUpHeader     1DFE 
    -------------------------------------------------------------------------
DATA16_Z
  Relative segment, address: 1E0F - 1E1F (0x11 bytes), align: 0
  Segment part 28.            Intra module refs:   hydrologyInitReceieve
                                                   hydrologyMakeDownHeader
           ENTRY                   ADDRESS         REF BY
           =====                   =======         ======
           g_HydrologyDownHeader   1E0F 
    -------------------------------------------------------------------------
DATA16_Z
  Relative segment, address: 1E20 - 1E2A (0xb bytes), align: 0
  Segment part 29.            Intra module refs:   Hydrology_CalElementInfo
                                                   hydrologyExitReceieve
                                                   hydrologyExitSend
                                                   hydrologyInitReceieve
                                                   hydrologyInitSend
                                                   hydrologyMakeDownBody
                                                   hydrologyMakeUpBody
                                                   hydrologyMakeUpBodyBasicInfo
                                                   hydrologyMakeUpHeader
                                                   hydrologyMakeUpTail
           ENTRY                   ADDRESS         REF BY
           =====                   =======         ======
           g_HydrologyMsg          1E20            Hydrology_SetPassword (hydrologycommand)
                                                   hydrologyBasicInfoConfig (hydrologycommand)
                                                   hydrologyBasicInfoRead (hydrologycommand)
                                                   hydrologyGate (hydrologycommand)
                                                   hydrologyPump (hydrologycommand)
                                                   hydrologyReadPara (hydrologycommand)
                                                   hydrologySetClock (hydrologycommand)
                                                   hydrologySetICCard (hydrologycommand)
                                                   hydrologySetPara (hydrologycommand)
                                                   hydrologyValve (hydrologycommand)
                                                   hydrologyWaterSetting (hydrologycommand)
    -------------------------------------------------------------------------
DATA16_Z
  Relative segment, address: 1E2B - 1E7A (0x50 bytes), align: 0
  Segment part 30.            Intra module refs:   Hydrology_CalElementInfo
                                                   hydrologyExitSend
                                                   hydrologyMakeUpBody
           ENTRY                   ADDRESS         REF BY
           =====                   =======         ======
           inputPara               1E2B            HydrologyDataPacketInit (hydrologytask)
                                                   HydrologySaveData (hydrologytask)
    -------------------------------------------------------------------------
DATA16_Z
  Relative segment, address: 1E7B - 1EE0 (0x66 bytes), align: 0
  Segment part 32.            Intra module refs:   Hydrology_CalElementInfo
                                                   Hydrology_ReadObservationTime
                                                   Hydrology_SetObservationTime
                                                   hydrologyInitSend
           ENTRY                   ADDRESS         REF BY
           =====                   =======         ======
           Element_table           1E7B            HydrologyDataPacketInit (hydrologytask)
                                                   HydrologySample (hydrologytask)
                                                   HydrologySaveData (hydrologytask)
                                                   HydrologyUpdateElementTable (hydrologytask)
                                                   hydrologySetPara (hydrologycommand)
    -------------------------------------------------------------------------
DATA16_Z
  Relative segment, address: 1D10 - 1D11 (0x2 bytes), align: 1
  Segment part 33.            Intra module refs:   Hydrology_CalElementInfo
                                                   Hydrology_ReadRom
           ENTRY                   ADDRESS         REF BY
           =====                   =======         ======
           SinglePacketSize        1D10            HydrologySaveData (hydrologytask)
    -------------------------------------------------------------------------
DATA16_Z
  Relative segment, address: 1D12 - 1D13 (0x2 bytes), align: 1
  Segment part 34.            Intra module refs:   Hydrology_CalElementInfo
           ENTRY                   ADDRESS         REF BY
           =====                   =======         ======
           RomElementBeginAddr     1D12 
    -------------------------------------------------------------------------
DATA16_Z
  Relative segment, address: 1D14 - 1D15 (0x2 bytes), align: 1
  Segment part 35.            Intra module refs:   Hydrology_CalElementInfo
                                                   hydrologyMakeUpBodyBasicInfo
                                                   hydrologyMakeUpHeader
                                                   hydrologyMakeUpTail
           ENTRY                   ADDRESS         REF BY
           =====                   =======         ======
           SinglePacketSendCount   1D14 
    -------------------------------------------------------------------------
DATA16_Z
  Relative segment, address: 1D16 - 1D17 (0x2 bytes), align: 1
  Segment part 36.            Intra module refs:   hydrologyMakeUpHeader
                                                   hydrologyMakeUpTail
           ENTRY                   ADDRESS         REF BY
           =====                   =======         ======
           PacketSendTimes         1D16 
    -------------------------------------------------------------------------
DATA16_I
  Relative segment, address: 1C4E - 1C4E (0x1 bytes), align: 0
  Segment part 37.            Intra module refs:   hydrologyMakeUpHeader
                                                   hydrologyMakeUpTail
           ENTRY                   ADDRESS         REF BY
           =====                   =======         ======
           HYDROLOGY_MODE          1C4E 
    -------------------------------------------------------------------------
<CODE> 2 (was CODE)
  Relative segment, address: 000186B6 - 000186F3 (0x3e bytes), align: 1
  Segment part 46.            Intra module refs:   Hydrology_ReadAnalog
                                                   Hydrology_ReadDataPacketCount
                                                   Hydrology_ReadEndIdx
                                                   Hydrology_ReadObservationTime
                                                   Hydrology_ReadPulse
                                                   Hydrology_ReadRom
                                                   Hydrology_ReadStartIdx
                                                   Hydrology_ReadSwitch
                                                   hydrologyMakeUpBodyBasicInfo
                                                   hydrologyMakeUpHeader
           ENTRY                   ADDRESS         REF BY
           =====                   =======         ======
           Hydrology_ReadStoreInfo
                                   000186B6        GPRS_AT_OpenTCPLink (GTM900C)
                                                   HydrologyDataPacketInit (hydrologytask)
                                                   HydrologyRecord (hydrologycommand)
                                                   HydrologySample (hydrologytask)
                                                   HydrologyTask (hydrologytask)
                                                   OpenTran (ec200)
                                                   PORT1_ISR (Sampler)
                                                   Utility_Is_A_CheckTime (common)
                                                   Utility_Is_A_ReportTime (common)
                                                   Utility_Is_A_SaveTime (common)
                                                   camera_PicturePacketHead (camera)
                                                   camera_PicturePacketInfo (camera)
                                                   hydrologyReadParaSelect (hydrologycommand)
                                                   hydrologyReadSelect (hydrologycommand)
               calls direct
    -------------------------------------------------------------------------
<CODE> 2 (was CODE)
  Relative segment, address: 0001863A - 00018677 (0x3e bytes), align: 1
  Segment part 47.            Intra module refs:   Hydrology_SetDataPacketCount
                                                   Hydrology_SetEndIdx
                                                   Hydrology_SetObservationTime
                                                   Hydrology_SetStartIdx
                                                   hydrologyMakeDownBody
           ENTRY                   ADDRESS         REF BY
           =====                   =======         ======
           Hydrology_WriteStoreInfo
                                   0001863A        HydrologyDataPacketInit (hydrologytask)
                                                   HydrologyRecord (hydrologycommand)
                                                   HydrologySample (hydrologytask)
                                                   Hydrology_Reset (hydrologycommand)
                                                   Hydrology_SetPassword (hydrologycommand)
                                                   PORT1_ISR (Sampler)
                                                   Store_WriteDataItem (store)
                                                   hydrologyConfigSelect (hydrologycommand)
                                                   hydrologyGate (hydrologycommand)
                                                   hydrologyInitializeSolidStorage (hydrologycommand)
                                                   hydrologyPump (hydrologycommand)
                                                   hydrologySetICCard (hydrologycommand)
                                                   hydrologySetPara (hydrologycommand)
                                                   hydrologySetParaSelect (hydrologycommand)
                                                   hydrologyValve (hydrologycommand)
                                                   hydrologyWaterSetting (hydrologycommand)
               calls direct
    -------------------------------------------------------------------------
<CODE> 2 (was CODE)
  Relative segment, address: 000194A6 - 000194C3 (0x1e bytes), align: 1
  Segment part 48.            Intra module refs:   hydrologyMakeUpBodyBasicInfo
           ENTRY                   ADDRESS         REF BY
           =====                   =======         ======
           Hydrology_ReadTime      000194A6        camera_PacketSend (camera)
               calls direct
    -------------------------------------------------------------------------
<CODE> 2 (was CODE)
  Relative segment, address: 0001961C - 00019635 (0x1a bytes), align: 1
  Segment part 49.
           ENTRY                   ADDRESS         REF BY
           =====                   =======         ======
           Hydrology_SetTime       0001961C        hydrologySetClock (hydrologycommand)
               calls direct
    -------------------------------------------------------------------------
<CODE> 2 (was CODE)
  Relative segment, address: 00012184 - 0001229F (0x11c bytes), align: 1
  Segment part 50.            Intra module refs:   hydrologyProcessSend
           ENTRY                   ADDRESS         REF BY
           =====                   =======         ======
           Hydrology_SendData      00012184 
               calls direct and indirect
    -------------------------------------------------------------------------
<CODE> 2 (was CODE)
  Relative segment, address: 00019AD0 - 00019ADD (0xe bytes), align: 1
  Segment part 51.            Intra module refs:   hydrologyCheck
                                                   hydrologyInitReceieve
                                                   hydrologyInitSend
                                                   hydrologyMakeDownHeader
           ENTRY                   ADDRESS         REF BY
           =====                   =======         ======
           Hydrology_Printf        00019AD0        RS485_Read (hydrologycommand)
               calls direct
    -------------------------------------------------------------------------
<CODE> 2 (was CODE)
  Relative segment, address: 000157D6 - 0001585F (0x8a bytes), align: 1
  Segment part 52.
           ENTRY                   ADDRESS         REF BY
           =====                   =======         ======
           Hydrology_ReadStartIdx
                                   000157D6        FlowCheckSampleData (flow)
                                                   Store_WriteDataItemAuto (store)
               calls direct
    -------------------------------------------------------------------------
<CODE> 2 (was CODE)
  Relative segment, address: 00019070 - 0001909B (0x2c bytes), align: 1
  Segment part 53.            Intra module refs:   Hydrology_RetrieveIndex
           ENTRY                   ADDRESS         REF BY
           =====                   =======         ======
           Hydrology_SetStartIdx   00019070        FlowCheckSampleData (flow)
                                                   HydrologyInstantWaterLevel (hydrologytask)
                                                   Hydrology_Reset (hydrologycommand)
                                                   Store_ReadDataItem (store)
                                                   Store_WriteDataItemAuto (store)
               calls direct
    -------------------------------------------------------------------------
<CODE> 2 (was CODE)
  Relative segment, address: 0001574C - 000157D5 (0x8a bytes), align: 1
  Segment part 54.
           ENTRY                   ADDRESS         REF BY
           =====                   =======         ======
           Hydrology_ReadEndIdx    0001574C        FlowCheckSampleData (flow)
                                                   Store_WriteDataItemAuto (store)
               calls direct
    -------------------------------------------------------------------------
<CODE> 2 (was CODE)
  Relative segment, address: 00018FEC - 00019017 (0x2c bytes), align: 1
  Segment part 55.            Intra module refs:   Hydrology_RetrieveIndex
           ENTRY                   ADDRESS         REF BY
           =====                   =======         ======
           Hydrology_SetEndIdx     00018FEC        FlowCheckSampleData (flow)
                                                   Hydrology_Reset (hydrologycommand)
                                                   Store_WriteDataItemAuto (store)
               calls direct
    -------------------------------------------------------------------------
<CODE> 2 (was CODE)
  Relative segment, address: 00015974 - 000159FD (0x8a bytes), align: 1
  Segment part 56.
           ENTRY                   ADDRESS         REF BY
           =====                   =======         ======
           Hydrology_ReadDataPacketCount
                                   00015974        HydrologyInstantWaterLevel (hydrologytask)
                                                   HydrologySaveData (hydrologytask)
                                                   Store_WriteDataItemAuto (store)
               calls direct
    -------------------------------------------------------------------------
<CODE> 2 (was CODE)
  Relative segment, address: 000190C6 - 000190ED (0x28 bytes), align: 1
  Segment part 57.
           ENTRY                   ADDRESS         REF BY
           =====                   =======         ======
           Hydrology_SetDataPacketCount
                                   000190C6        HydrologyInstantWaterLevel (hydrologytask)
                                                   Hydrology_Reset (hydrologycommand)
                                                   Store_WriteDataItemAuto (store)
               calls direct
    -------------------------------------------------------------------------
<CODE> 2 (was CODE)
  Relative segment, address: 00013B68 - 00013C39 (0xd2 bytes), align: 1
  Segment part 58.
           ENTRY                   ADDRESS         REF BY
           =====                   =======         ======
           Hydrology_RetrieveIndex
                                   00013B68        FlowCheckSampleData (flow)
                                                   Store_WriteDataItemAuto (store)
               calls direct
    -------------------------------------------------------------------------
<CODE> 2 (was CODE)
  Relative segment, address: 000146F2 - 00014797 (0xa6 bytes), align: 1
  Segment part 60.
           ENTRY                   ADDRESS         REF BY
           =====                   =======         ======
           Hydrology_ReadObservationTime
                                   000146F2        HydrologySaveData (hydrologytask)
               calls direct
    -------------------------------------------------------------------------
<CODE> 2 (was CODE)
  Relative segment, address: 00014500 - 000145A5 (0xa6 bytes), align: 1
  Segment part 61.
           ENTRY                   ADDRESS         REF BY
           =====                   =======         ======
           Hydrology_SetObservationTime
                                   00014500        HydrologySample (hydrologytask)
               calls direct
    -------------------------------------------------------------------------
<CODE> 2 (was CODE)
  Relative segment, address: 000122A0 - 000123B9 (0x11a bytes), align: 1
  Segment part 62.            Intra module refs:   converToHexElement
           ENTRY                   ADDRESS         REF BY
           =====                   =======         ======
           getBCDnums              000122A0 
               calls direct
    -------------------------------------------------------------------------
<CODE> 2 (was CODE)
  Relative segment, address: 00019600 - 0001961B (0x1c bytes), align: 1
  Segment part 63.            Intra module refs:   converToHexElement
                                                   getguideid
           ENTRY                   ADDRESS         REF BY
           =====                   =======         ======
           getEvenNum              00019600 
               calls direct
    -------------------------------------------------------------------------
<CODE> 2 (was CODE)
  Relative segment, address: 00018F92 - 00018FBF (0x2e bytes), align: 1
  Segment part 64.            Intra module refs:   mallocElement
           ENTRY                   ADDRESS         REF BY
           =====                   =======         ======
           getguideid              00018F92 
               calls direct
    -------------------------------------------------------------------------
<CODE> 2 (was CODE)
  Relative segment, address: 00010FC4 - 00011105 (0x142 bytes), align: 1
  Segment part 65.            Intra module refs:   Hydrology_CalElementInfo
           ENTRY                   ADDRESS         REF BY
           =====                   =======         ======
           converToHexElement      00010FC4        HydrologySaveData (hydrologytask)
               calls direct
    -------------------------------------------------------------------------
<CODE> 2 (was CODE)
  Relative segment, address: 00012D1A - 00012E15 (0xfc bytes), align: 1
  Segment part 66.            Intra module refs:   Hydrology_CalElementInfo
           ENTRY                   ADDRESS         REF BY
           =====                   =======         ======
           mallocElement           00012D1A        HydrologyDataPacketInit (hydrologytask)
                                                   HydrologySaveData (hydrologytask)
               calls direct
    -------------------------------------------------------------------------
<CODE> 2 (was CODE)
  Relative segment, address: 00011ABC - 00011BE1 (0x126 bytes), align: 1
  Segment part 67.            Intra module refs:   Hydrology_CalElementInfo
                                                   hydrologyMakeUpBodyBasicInfo
                                                   hydrologyMakeUpTail
                                                   hydrologyQueryRespond
           ENTRY                   ADDRESS         REF BY
           =====                   =======         ======
           hydrologyJudgeType      00011ABC        HydrologySaveData (hydrologytask)
    -------------------------------------------------------------------------
<CODE> 2 (was CODE)
  Relative segment, address: 000187AA - 000187E5 (0x3c bytes), align: 1
  Segment part 68.            Intra module refs:   Hydrology_CalElementInfo
           ENTRY                   ADDRESS         REF BY
           =====                   =======         ======
           Hydrology_ReadAnalog    000187AA        HydrologySaveData (hydrologytask)
               calls direct
    -------------------------------------------------------------------------
<CODE> 2 (was CODE)
  Relative segment, address: 000183B8 - 000183F9 (0x42 bytes), align: 1
  Segment part 69.            Intra module refs:   Hydrology_CalElementInfo
           ENTRY                   ADDRESS         REF BY
           =====                   =======         ======
           Hydrology_ReadPulse     000183B8        HydrologySaveData (hydrologytask)
               calls direct
    -------------------------------------------------------------------------
<CODE> 2 (was CODE)
  Relative segment, address: 00019794 - 000197AB (0x18 bytes), align: 1
  Segment part 70.            Intra module refs:   Hydrology_CalElementInfo
           ENTRY                   ADDRESS         REF BY
           =====                   =======         ======
           Hydrology_ReadSwitch    00019794        HydrologySaveData (hydrologytask)
               calls direct
    -------------------------------------------------------------------------
<CODE> 2 (was CODE)
  Relative segment, address: 00018228 - 0001826B (0x44 bytes), align: 1
  Segment part 71.            Intra module refs:   Hydrology_CalElementInfo
           ENTRY                   ADDRESS         REF BY
           =====                   =======         ======
           Hydrology_ReadRom       00018228 
               calls direct
    -------------------------------------------------------------------------
<CODE> 1 (was CODE)
  Relative segment, address: D2EE - D6B9 (0x3cc bytes), align: 1
  Segment part 72.            Intra module refs:   hydrologyProcessSend
           ENTRY                   ADDRESS         REF BY
           =====                   =======         ======
           Hydrology_CalElementInfo
                                   D2EE 
               calls direct
    -------------------------------------------------------------------------
<CODE> 2 (was CODE)
  Relative segment, address: 000142F2 - 000143A1 (0xb0 bytes), align: 1
  Segment part 73.            Intra module refs:   hydrologyProcessSend
           ENTRY                   ADDRESS         REF BY
           =====                   =======         ======
           hydrologyMakeUpHeader   000142F2 
               calls direct
    -------------------------------------------------------------------------
<CODE> 2 (was CODE)
  Relative segment, address: 00017E4C - 00017E97 (0x4c bytes), align: 1
  Segment part 74.            Intra module refs:   hydrologyMakeUpBodyBasicInfo
           ENTRY                   ADDRESS         REF BY
           =====                   =======         ======
           getstreamid             00017E4C        camera_PicturePacketInfo (camera)
               calls direct
    -------------------------------------------------------------------------
DATA16_Z
  Relative segment, address: 1D18 - 1D19 (0x2 bytes), align: 1
  Segment part 39.            Intra module refs:   getstreamid
           LOCAL                   ADDRESS         
           =====                   =======         
           getstreamid::id         1D18 
    -------------------------------------------------------------------------
<CODE> 1 (was CODE)
  Relative segment, address: E40C - E6F7 (0x2ec bytes), align: 1
  Segment part 75.            Intra module refs:   hydrologyProcessSend
           ENTRY                   ADDRESS         REF BY
           =====                   =======         ======
           hydrologyMakeUpBodyBasicInfo
                                   E40C 
               calls direct
    -------------------------------------------------------------------------
<CODE> 2 (was CODE)
  Relative segment, address: 00010632 - 000107AD (0x17c bytes), align: 1
  Segment part 76.            Intra module refs:   hydrologyProcessSend
           ENTRY                   ADDRESS         REF BY
           =====                   =======         ======
           hydrologyMakeUpBody     00010632 
               calls direct
    -------------------------------------------------------------------------
DATA16_C
  Relative segment, address: 73B2 - 73C4 (0x13 bytes), align: 0
  Segment part 4.             Intra module refs:   Hydrology_SendData
           LOCAL                   ADDRESS         
           =====                   =======         
           Hydrology_SendData::__FUNCTION__
                                   73B2 
    -------------------------------------------------------------------------
DATA16_C
  Relative segment, address: 73C5 - 73E3 (0x1f bytes), align: 0
  Segment part 5.             Intra module refs:   Hydrology_SendData
    -------------------------------------------------------------------------
DATA16_C
  Relative segment, address: 73E4 - 7400 (0x1d bytes), align: 0
  Segment part 6.             Intra module refs:   Hydrology_SendData
    -------------------------------------------------------------------------
DATA16_C
  Relative segment, address: 7401 - 7411 (0x11 bytes), align: 0
  Segment part 7.             Intra module refs:   Hydrology_Printf
           LOCAL                   ADDRESS         
           =====                   =======         
           Hydrology_Printf::__FUNCTION__
                                   7401 
    -------------------------------------------------------------------------
DATA16_C
  Relative segment, address: 7412 - 7414 (0x3 bytes), align: 0
  Segment part 8.             Intra module refs:   getBCDnums
    -------------------------------------------------------------------------
DATA16_C
  Relative segment, address: 7415 - 7417 (0x3 bytes), align: 0
  Segment part 9.             Intra module refs:   getBCDnums
    -------------------------------------------------------------------------
DATA16_C
  Relative segment, address: 7418 - 7428 (0x11 bytes), align: 0
  Segment part 13.            Intra module refs:   hydrologyCheck
    -------------------------------------------------------------------------
DATA16_C
  Relative segment, address: 7429 - 7440 (0x18 bytes), align: 0
  Segment part 14.            Intra module refs:   hydrologyCheck
    -------------------------------------------------------------------------
DATA16_C
  Relative segment, address: 7441 - 745D (0x1d bytes), align: 0
  Segment part 15.            Intra module refs:   hydrologyCheck
    -------------------------------------------------------------------------
DATA16_C
  Relative segment, address: 745E - 7474 (0x17 bytes), align: 0
  Segment part 16.            Intra module refs:   hydrologyMakeDownHeader
    -------------------------------------------------------------------------
DATA16_C
  Relative segment, address: 7475 - 7498 (0x24 bytes), align: 0
  Segment part 17.            Intra module refs:   hydrologyInitSend
    -------------------------------------------------------------------------
DATA16_C
  Relative segment, address: 7499 - 74BE (0x26 bytes), align: 0
  Segment part 19.            Intra module refs:   hydrologyInitReceieve
    -------------------------------------------------------------------------
DATA16_C
  Relative segment, address: 74BF - 75BE (0x100 bytes), align: 0
  Segment part 40.            Intra module refs:   hydrologyCRC16
           ENTRY                   ADDRESS         REF BY
           =====                   =======         ======
           chCRCHTalbe             74BF 
    -------------------------------------------------------------------------
DATA16_C
  Relative segment, address: 75BF - 76BE (0x100 bytes), align: 0
  Segment part 41.            Intra module refs:   hydrologyCRC16
           ENTRY                   ADDRESS         REF BY
           =====                   =======         ======
           chCRCLTalbe             75BF 
    -------------------------------------------------------------------------
<CODE> 2 (was CODE)
  Relative segment, address: 00018E0E - 00018E3F (0x32 bytes), align: 1
  Segment part 77.            Intra module refs:   hydrologyCheck
                                                   hydrologyMakeUpTail
           ENTRY                   ADDRESS         REF BY
           =====                   =======         ======
           hydrologyCRC16          00018E0E        RS485_Read (hydrologycommand)
                                                   RS485_Send (hydrologycommand)
                                                   camera_PicturePacket (camera)
    -------------------------------------------------------------------------
<CODE> 2 (was CODE)
  Relative segment, address: 00014BFC - 00014C95 (0x9a bytes), align: 1
  Segment part 78.            Intra module refs:   hydrologyMakeDownHeader
           ENTRY                   ADDRESS         REF BY
           =====                   =======         ======
           hydrologyCheck          00014BFC 
               calls direct
    -------------------------------------------------------------------------
<CODE> 2 (was CODE)
  Relative segment, address: 00012C1C - 00012D19 (0xfe bytes), align: 1
  Segment part 79.            Intra module refs:   hydrologyProcessReceieve
           ENTRY                   ADDRESS         REF BY
           =====                   =======         ======
           hydrologyMakeDownHeader
                                   00012C1C 
               calls direct
    -------------------------------------------------------------------------
<CODE> 2 (was CODE)
  Relative segment, address: 00012066 - 00012183 (0x11e bytes), align: 1
  Segment part 80.            Intra module refs:   hydrologyMakeDownBody
           ENTRY                   ADDRESS         REF BY
           =====                   =======         ======
           hydrologyNeedEditElement
                                   00012066 
    -------------------------------------------------------------------------
<CODE> 1 (was CODE)
  Relative segment, address: E6F8 - E9D9 (0x2e2 bytes), align: 1
  Segment part 81.            Intra module refs:   hydrologyProcessReceieve
           ENTRY                   ADDRESS         REF BY
           =====                   =======         ======
           hydrologyMakeDownBody   E6F8 
               calls direct
    -------------------------------------------------------------------------
<CODE> 1 (was CODE)
  Relative segment, address: D6BA - DA57 (0x39e bytes), align: 1
  Segment part 82.            Intra module refs:   hydrologyProcessSend
           ENTRY                   ADDRESS         REF BY
           =====                   =======         ======
           hydrologyMakeUpTail     D6BA 
               calls direct
    -------------------------------------------------------------------------
<CODE> 2 (was CODE)
  Relative segment, address: 00013F66 - 0001401F (0xba bytes), align: 1
  Segment part 83.            Intra module refs:   hydrologyProcessSend
           ENTRY                   ADDRESS         REF BY
           =====                   =======         ======
           hydrologyInitSend       00013F66 
               calls direct
    -------------------------------------------------------------------------
<CODE> 2 (was CODE)
  Relative segment, address: 00011382 - 000114BB (0x13a bytes), align: 1
  Segment part 84.            Intra module refs:   hydrologyProcessSend
           ENTRY                   ADDRESS         REF BY
           =====                   =======         ======
           hydrologyExitSend       00011382 
               calls direct
    -------------------------------------------------------------------------
<CODE> 2 (was CODE)
  Relative segment, address: 00015DAE - 00015E33 (0x86 bytes), align: 1
  Segment part 85.            Intra module refs:   hydrologyQueryRespond
           ENTRY                   ADDRESS         REF BY
           =====                   =======         ======
           hydrologyProcessSend    00015DAE        HydrologyInstantWaterLevel (hydrologytask)
                                                   HydrologyTask (hydrologytask)
               calls direct
    -------------------------------------------------------------------------
<CODE> 2 (was CODE)
  Relative segment, address: 00011F48 - 00012065 (0x11e bytes), align: 1
  Segment part 86.            Intra module refs:   hydrologyQueryRespond
           ENTRY                   ADDRESS         REF BY
           =====                   =======         ======
           hydrologyNeedRespond    00011F48 
    -------------------------------------------------------------------------
<CODE> 2 (was CODE)
  Relative segment, address: 0001678A - 000167FD (0x74 bytes), align: 1
  Segment part 87.            Intra module refs:   hydrologyProcessReceieve
           ENTRY                   ADDRESS         REF BY
           =====                   =======         ======
           hydrologyQueryRespond   0001678A 
               calls direct
    -------------------------------------------------------------------------
<CODE> 2 (was CODE)
  Relative segment, address: 00016E84 - 00016EED (0x6a bytes), align: 1
  Segment part 88.            Intra module refs:   hydrologyProcessReceieve
           ENTRY                   ADDRESS         REF BY
           =====                   =======         ======
           hydrologyInitReceieve   00016E84 
               calls direct
    -------------------------------------------------------------------------
<CODE> 2 (was CODE)
  Relative segment, address: 00013D0A - 00013DD3 (0xca bytes), align: 1
  Segment part 89.            Intra module refs:   hydrologyProcessReceieve
           ENTRY                   ADDRESS         REF BY
           =====                   =======         ======
           hydrologyExitReceieve   00013D0A 
               calls direct
    -------------------------------------------------------------------------
<CODE> 2 (was CODE)
  Relative segment, address: 000172DE - 0001733D (0x60 bytes), align: 1
  Segment part 90.
           ENTRY                   ADDRESS         REF BY
           =====                   =======         ======
           hydrologyProcessReceieve
                                   000172DE        Hydrology_ProcessBLEReceieve (uart_config)
                                                   Hydrology_ProcessGPRSReceieve (GTM900C)
                                                   Hydrology_ProcessUARTReceieve (uart_config)
               calls direct
    -------------------------------------------------------------------------
DATA16_ID
  Relative segment, address: 7AE0 - 7AE0 (0x1 bytes), align: 0
  Segment part 38.            Intra module refs:   HYDROLOGY_MODE

    *************************************************************************

  FILE NAME : \\Mac\Home\work\ETL\Debug\Obj\mpy32.r43
    *************************************************************************

  FILE NAME : \\Mac\Home\work\ETL\Debug\Obj\oa.r43
    *************************************************************************

  FILE NAME : \\Mac\Home\work\ETL\Debug\Obj\packet.r43
    *************************************************************************

  FILE NAME : \\Mac\Home\work\ETL\Debug\Obj\pmap.r43
    *************************************************************************

  FILE NAME : \\Mac\Home\work\ETL\Debug\Obj\pmm.r43
    *************************************************************************

  FILE NAME : \\Mac\Home\work\ETL\Debug\Obj\ram.r43
    *************************************************************************

  FILE NAME : \\Mac\Home\work\ETL\Debug\Obj\ref.r43
    *************************************************************************

  FILE NAME : \\Mac\Home\work\ETL\Debug\Obj\reportbinding .r43
    *************************************************************************

  FILE NAME : \\Mac\Home\work\ETL\Debug\Obj\rom.r43
  PROGRAM MODULE, NAME : rom

  SEGMENTS IN THE MODULE
  ======================
DATA16_AN
  Relative segment, address: 0220 - 0221 (0x2 bytes), align: 0
  Segment part 3. ROOT        Intra module refs:   I2C_GetACK
                                                   I2C_RxByte
           ENTRY                   ADDRESS         REF BY
           =====                   =======         ======
           _A_PBIN_L               0220 
           LOCAL                   ADDRESS         
           =====                   =======         
           PBIN                    0220 
           PBIN_H                  0221 
           PBIN_L                  0220 
    -------------------------------------------------------------------------
<CODE> 2 (was CODE)
  Relative segment, address: 00019A1A - 00019A27 (0xe bytes), align: 1
  Segment part 27.            Intra module refs:   ROM_WriteByte
                                                   _ROM_WriteBytes
           ENTRY                   ADDRESS         REF BY
           =====                   =======         ======
           ROM_WP_OFF              00019A1A 
    -------------------------------------------------------------------------
<CODE> 2 (was CODE)
  Relative segment, address: 000199FE - 00019A0B (0xe bytes), align: 1
  Segment part 28.            Intra module refs:   ROM_WriteByte
                                                   _ROM_WriteBytes
           ENTRY                   ADDRESS         REF BY
           =====                   =======         ======
           ROM_WP_ON               000199FE 
    -------------------------------------------------------------------------
<CODE> 2 (was CODE)
  Relative segment, address: 00019B34 - 00019B3F (0xc bytes), align: 1
  Segment part 35.
           ENTRY                   ADDRESS         REF BY
           =====                   =======         ======
           ROM_Init                00019B34        Store_Init (store)
               calls direct
    -------------------------------------------------------------------------
<CODE> 2 (was CODE)
  Relative segment, address: 00012B18 - 00012C1B (0x104 bytes), align: 1
  Segment part 39.
           ENTRY                   ADDRESS         REF BY
           =====                   =======         ======
           ROM_WriteByte           00012B18        Store_MarkDataItemSended (store)
                                                   Store_SetPulseRange (store)
               calls direct
    -------------------------------------------------------------------------
<CODE> 2 (was CODE)
  Relative segment, address: 000126FC - 00012805 (0x10a bytes), align: 1
  Segment part 40.            Intra module refs:   ROM_WriteBytes_Page_
           LOCAL                   ADDRESS         
           =====                   =======         
           _ROM_WriteBytes         000126FC 
               calls direct
    -------------------------------------------------------------------------
<CODE> 2 (was CODE)
  Relative segment, address: 00019292 - 000192B5 (0x24 bytes), align: 1
  Segment part 41.            Intra module refs:   ROM_WriteBytes_Page
           ENTRY                   ADDRESS         REF BY
           =====                   =======         ======
           IsSame_                 00019292 
    -------------------------------------------------------------------------
<CODE> 2 (was CODE)
  Relative segment, address: 00015A86 - 00015B0D (0x88 bytes), align: 1
  Segment part 46.            Intra module refs:   ROM_WriteBytes
           ENTRY                   ADDRESS         REF BY
           =====                   =======         ======
           ROM_WriteBytes_Page     00015A86 
               calls direct
    -------------------------------------------------------------------------
<CODE> 1 (was CODE)
  Relative segment, address: F7BA - F9AF (0x1f6 bytes), align: 1
  Segment part 47.            Intra module refs:   ROM_WriteBytes_Page
           ENTRY                   ADDRESS         REF BY
           =====                   =======         ======
           ROM_WriteBytes_Page_    F7BA 
               calls direct
    -------------------------------------------------------------------------
<CODE> 2 (was CODE)
  Relative segment, address: 00013C3A - 00013D09 (0xd0 bytes), align: 1
  Segment part 48.
           ENTRY                   ADDRESS         REF BY
           =====                   =======         ======
           ROM_ReadByte            00013C3A        Store_CheckDataItemSended (store)
                                                   Store_ReadIoDirConfig (store)
                                                   Store_ReadIoLevelConfig (store)
                                                   Store_ReadPulseRangeBytes (store)
                                                   Store_ReadPulseRate (store)
                                                   _RTC_ReadRAM (rtc)
               calls direct
    -------------------------------------------------------------------------
<CODE> 2 (was CODE)
  Relative segment, address: 00011106 - 00011245 (0x140 bytes), align: 1
  Segment part 45.            Intra module refs:   ROM_ReadBytes
                                                   ROM_WriteBytes_Page
           ENTRY                   ADDRESS         REF BY
           =====                   =======         ======
           ROM_ReadBytes_Page      00011106 
               calls direct
    -------------------------------------------------------------------------
<CODE> 2 (was CODE)
  Relative segment, address: 00019B10 - 00019B1B (0xc bytes), align: 1
  Segment part 34.            Intra module refs:   ROM_Init
           ENTRY                   ADDRESS         REF BY
           =====                   =======         ======
           I2C_Initial             00019B10 
               calls direct
    -------------------------------------------------------------------------
<CODE> 2 (was CODE)
  Relative segment, address: 00019A60 - 00019A6D (0xe bytes), align: 1
  Segment part 30.            Intra module refs:   I2C_RxByte
                                                   I2C_START
                                                   I2C_STOP
                                                   I2C_SetNAK
                                                   I2C_TxByte
           ENTRY                   ADDRESS         REF BY
           =====                   =======         ======
           I2C_Set_sda_high        00019A60 
    -------------------------------------------------------------------------
<CODE> 2 (was CODE)
  Relative segment, address: 00019A0C - 00019A19 (0xe bytes), align: 1
  Segment part 32.            Intra module refs:   I2C_START
                                                   I2C_STOP
                                                   I2C_SetACK
                                                   I2C_TxByte
           ENTRY                   ADDRESS         REF BY
           =====                   =======         ======
           I2C_Set_sda_low         00019A0C 
    -------------------------------------------------------------------------
<CODE> 2 (was CODE)
  Relative segment, address: 000199F0 - 000199FD (0xe bytes), align: 1
  Segment part 31.            Intra module refs:   I2C_GetACK
                                                   I2C_RxByte
                                                   I2C_START
                                                   I2C_STOP
                                                   I2C_SetACK
                                                   I2C_SetNAK
                                                   I2C_TxByte
           ENTRY                   ADDRESS         REF BY
           =====                   =======         ======
           I2C_Set_sck_high        000199F0 
    -------------------------------------------------------------------------
<CODE> 2 (was CODE)
  Relative segment, address: 00019A36 - 00019A43 (0xe bytes), align: 1
  Segment part 29.            Intra module refs:   I2C_GetACK
                                                   I2C_Initial
                                                   I2C_RxByte
                                                   I2C_START
                                                   I2C_STOP
                                                   I2C_SetACK
                                                   I2C_SetNAK
                                                   I2C_TxByte
           ENTRY                   ADDRESS         REF BY
           =====                   =======         ======
           I2C_Set_sck_low         00019A36 
    -------------------------------------------------------------------------
<CODE> 2 (was CODE)
  Relative segment, address: 000188D4 - 0001890D (0x3a bytes), align: 1
  Segment part 49.            Intra module refs:   ROM_ReadByte
                                                   ROM_ReadBytes_Page
                                                   ROM_WriteByte
                                                   _ROM_WriteBytes
           ENTRY                   ADDRESS         REF BY
           =====                   =======         ======
           I2C_GetACK              000188D4 
               calls direct
    -------------------------------------------------------------------------
<CODE> 2 (was CODE)
  Relative segment, address: 00019980 - 0001998F (0x10 bytes), align: 1
  Segment part 43.            Intra module refs:   ROM_ReadBytes_Page
           ENTRY                   ADDRESS         REF BY
           =====                   =======         ======
           I2C_SetACK              00019980 
               calls direct
    -------------------------------------------------------------------------
<CODE> 2 (was CODE)
  Relative segment, address: 00019960 - 0001996F (0x10 bytes), align: 1
  Segment part 42.            Intra module refs:   ROM_ReadBytes_Page
           ENTRY                   ADDRESS         REF BY
           =====                   =======         ======
           I2C_SetNAK              00019960 
               calls direct
    -------------------------------------------------------------------------
<CODE> 2 (was CODE)
  Relative segment, address: 00018CDE - 00018D11 (0x34 bytes), align: 1
  Segment part 37.            Intra module refs:   ROM_ReadByte
                                                   ROM_ReadBytes_Page
                                                   ROM_WriteByte
                                                   _ROM_WriteBytes
           ENTRY                   ADDRESS         REF BY
           =====                   =======         ======
           I2C_START               00018CDE 
               calls direct
    -------------------------------------------------------------------------
<CODE> 2 (was CODE)
  Relative segment, address: 00018732 - 0001876D (0x3c bytes), align: 1
  Segment part 33.            Intra module refs:   I2C_Initial
                                                   ROM_ReadByte
                                                   ROM_ReadBytes_Page
                                                   ROM_WriteByte
                                                   _ROM_WriteBytes
           ENTRY                   ADDRESS         REF BY
           =====                   =======         ======
           I2C_STOP                00018732 
               calls direct
    -------------------------------------------------------------------------
<CODE> 2 (was CODE)
  Relative segment, address: 00018822 - 0001885D (0x3c bytes), align: 1
  Segment part 36.            Intra module refs:   ROM_ReadByte
                                                   ROM_ReadBytes_Page
                                                   ROM_WriteByte
                                                   _ROM_WriteBytes
           ENTRY                   ADDRESS         REF BY
           =====                   =======         ======
           I2C_TxByte              00018822 
               calls direct
    -------------------------------------------------------------------------
<CODE> 2 (was CODE)
  Relative segment, address: 00017F2E - 00017F75 (0x48 bytes), align: 1
  Segment part 44.            Intra module refs:   ROM_ReadByte
                                                   ROM_ReadBytes_Page
           ENTRY                   ADDRESS         REF BY
           =====                   =======         ======
           I2C_RxByte              00017F2E 
               calls direct
    -------------------------------------------------------------------------
<CODE> 2 (was CODE)
  Relative segment, address: 00011246 - 00011381 (0x13c bytes), align: 1
  Segment part 50.
           ENTRY                   ADDRESS         REF BY
           =====                   =======         ======
           ROM_WriteBytes          00011246        Hydrology_WriteStoreInfo (message)
                                                   Store_SetWIFIConfigFlag (store)
               calls direct
    -------------------------------------------------------------------------
<CODE> 2 (was CODE)
  Relative segment, address: 000115F6 - 00011729 (0x134 bytes), align: 1
  Segment part 51.
           ENTRY                   ADDRESS         REF BY
           =====                   =======         ======
           ROM_ReadBytes           000115F6        Hydrology_ReadStoreInfo (message)
                                                   Store_ReadDataItem (store)
                                                   Store_ReadWIFIConfigFlag (store)
               calls direct
    -------------------------------------------------------------------------
DATA16_C
  Relative segment, address: 76BF - 76CE (0x10 bytes), align: 0
  Segment part 8.             Intra module refs:   ROM_WriteBytes_Page
    -------------------------------------------------------------------------
DATA16_C
  Relative segment, address: 76CF - 76F9 (0x2b bytes), align: 0
  Segment part 9.             Intra module refs:   ROM_WriteBytes_Page_
    -------------------------------------------------------------------------
DATA16_C
  Relative segment, address: 76FA - 7728 (0x2f bytes), align: 0
  Segment part 10.            Intra module refs:   ROM_WriteBytes_Page_
    -------------------------------------------------------------------------
DATA16_C
  Relative segment, address: 7729 - 7751 (0x29 bytes), align: 0
  Segment part 11.            Intra module refs:   ROM_WriteBytes_Page_
    -------------------------------------------------------------------------
DATA16_C
  Relative segment, address: 7752 - 776A (0x19 bytes), align: 0
  Segment part 12.            Intra module refs:   ROM_WriteBytes_Page_
    -------------------------------------------------------------------------
DATA16_C
  Relative segment, address: 776B - 7783 (0x19 bytes), align: 0
  Segment part 13.            Intra module refs:   ROM_WriteBytes_Page_
    -------------------------------------------------------------------------
DATA16_C
  Relative segment, address: 7784 - 779C (0x19 bytes), align: 0
  Segment part 14.            Intra module refs:   ROM_WriteBytes_Page_
    -------------------------------------------------------------------------
DATA16_C
  Relative segment, address: 779D - 77B5 (0x19 bytes), align: 0
  Segment part 15.            Intra module refs:   ROM_WriteBytes_Page_

    *************************************************************************

  FILE NAME : \\Mac\Home\work\ETL\Debug\Obj\rtc.r43
  PROGRAM MODULE, NAME : rtc

  SEGMENTS IN THE MODULE
  ======================
DATA16_AN
  Relative segment, address: 0280 - 0281 (0x2 bytes), align: 0
  Segment part 5. ROOT        Intra module refs:   READ_SDA
           ENTRY                   ADDRESS         REF BY
           =====                   =======         ======
           _A_PEIN_L               0280 
           LOCAL                   ADDRESS         
           =====                   =======         
           PEIN                    0280 
           PEIN_H                  0281 
           PEIN_L                  0280 
    -------------------------------------------------------------------------
DATA16_Z
  Relative segment, address: 1EE1 - 1EE5 (0x5 bytes), align: 0
  Segment part 9.
           ENTRY                   ADDRESS         REF BY
           =====                   =======         ======
           g_rtc_nowTime           1EE1            HydrologySample (hydrologytask)
                                                   HydrologyTask (hydrologytask)
                                                   Hydrology_TimeCheck (hydrologytask)
    -------------------------------------------------------------------------
DATA16_Z
  Relative segment, address: 1EE6 - 1EEA (0x5 bytes), align: 0
  Segment part 10.            Intra module refs:   RTC_IsBadTime
                                                   _RTC_SetTime
           ENTRY                   ADDRESS         REF BY
           =====                   =======         ======
           s_RTC_lastTime          1EE6 
    -------------------------------------------------------------------------
DATA16_I
  Relative segment, address: 1C4F - 1C5A (0xc bytes), align: 0
  Segment part 18.            Intra module refs:   RTC_RetrievePulseBytes
           ENTRY                   ADDRESS         REF BY
           =====                   =======         ======
           s_RTC_PulseBytes        1C4F 
    -------------------------------------------------------------------------
<CODE> 2 (was CODE)
  Relative segment, address: 00014AC4 - 00014B5F (0x9c bytes), align: 1
  Segment part 35.
           ENTRY                   ADDRESS         REF BY
           =====                   =======         ======
           RTC_RetrievePulseBytes
                                   00014AC4        Sampler_Init (Sampler)
               calls direct
    -------------------------------------------------------------------------
<CODE> 2 (was CODE)
  Relative segment, address: 000125E6 - 000126FB (0x116 bytes), align: 1
  Segment part 39.
           ENTRY                   ADDRESS         REF BY
           =====                   =======         ======
           RTC_IsBadTime           000125E6        Hydrology_TimeCheck (hydrologytask)
    -------------------------------------------------------------------------
<CODE> 2 (was CODE)
  Relative segment, address: 00016250 - 000162CD (0x7e bytes), align: 1
  Segment part 63.
           ENTRY                   ADDRESS         REF BY
           =====                   =======         ======
           RTC_SetTimeStr6_B       00016250        Hydrology_SetTime (message)
               calls direct
    -------------------------------------------------------------------------
<CODE> 2 (was CODE)
  Relative segment, address: 000181A0 - 000181E3 (0x44 bytes), align: 1
  Segment part 67.
           ENTRY                   ADDRESS         REF BY
           =====                   =======         ======
           RTC_ReadTimeBytes5      000181A0        HydrologyTask (hydrologytask)
                                                   Hydrology_TimeCheck (hydrologytask)
                                                   camera_Take (camera)
               calls direct
    -------------------------------------------------------------------------
<CODE> 2 (was CODE)
  Relative segment, address: 000182B0 - 000182F1 (0x42 bytes), align: 1
  Segment part 69.
           ENTRY                   ADDRESS         REF BY
           =====                   =======         ======
           RTC_ReadTimeBytes6      000182B0        HydrologyTask (hydrologytask)
                                                   Hydrology_ReadTime (message)
               calls direct
    -------------------------------------------------------------------------
<CODE> 2 (was CODE)
  Relative segment, address: 00012806 - 0001290D (0x108 bytes), align: 1
  Segment part 61.            Intra module refs:   RTC_SetTimeStr6_B
           ENTRY                   ADDRESS         REF BY
           =====                   =======         ======
           _RTC_SetTime            00012806        HydrologyDataPacketInit (hydrologytask)
                                                   Hydrology_TimeCheck (hydrologytask)
                                                   TryToSyncTime (hydrologytask)
               calls direct
    -------------------------------------------------------------------------
<CODE> 2 (was CODE)
  Relative segment, address: 00013A92 - 00013B67 (0xd6 bytes), align: 1
  Segment part 54.            Intra module refs:   RTC_ReadTimeBytes5
                                                   RTC_ReadTimeBytes6
           ENTRY                   ADDRESS         REF BY
           =====                   =======         ======
           _RTC_ReadTime           00013A92        SleepIfWakeupAcceidently (lowpower)
                                                   TryToSyncTime (hydrologytask)
               calls direct
    -------------------------------------------------------------------------
<CODE> 2 (was CODE)
  Relative segment, address: 000187E6 - 00018821 (0x3c bytes), align: 1
  Segment part 53.            Intra module refs:   _RTC_ReadTime
                                                   clearAlarmAFlag
           ENTRY                   ADDRESS         REF BY
           =====                   =======         ======
           _RTC_Read_OneByte       000187E6        CalcNextWakeupTime (lowpower)
                                                   setWakeupInterval (main)
               calls direct
    -------------------------------------------------------------------------
<CODE> 2 (was CODE)
  Relative segment, address: 00018DDC - 00018E0D (0x32 bytes), align: 1
  Segment part 59.            Intra module refs:   RTC_Open
                                                   RTC_SetAlarm
                                                   _RTC_SetTime
                                                   clearAlarmAFlag
           ENTRY                   ADDRESS         REF BY
           =====                   =======         ======
           _RTC_Write_OneByte      00018DDC        Main_Init (main)
               calls direct
    -------------------------------------------------------------------------
<CODE> 2 (was CODE)
  Relative segment, address: 0001982E - 00019841 (0x14 bytes), align: 1
  Segment part 80.
           ENTRY                   ADDRESS         REF BY
           =====                   =======         ======
           clearAlarmAFlag         0001982E        setWakeupInterval (main)
               calls direct
    -------------------------------------------------------------------------
<CODE> 2 (was CODE)
  Relative segment, address: 00017BDE - 00017C2D (0x50 bytes), align: 1
  Segment part 82.
           ENTRY                   ADDRESS         REF BY
           =====                   =======         ======
           RTC_SetAlarm            00017BDE        setWakeupInterval (main)
               calls direct
    -------------------------------------------------------------------------
<CODE> 2 (was CODE)
  Relative segment, address: 00018CAA - 00018CDD (0x34 bytes), align: 1
  Segment part 20.            Intra module refs:   RTC_RetrievePulseBytes
           ENTRY                   ADDRESS         REF BY
           =====                   =======         ======
           _RTC_ReadRAM            00018CAA 
               calls direct
    -------------------------------------------------------------------------
<CODE> 2 (was CODE)
  Relative segment, address: 000199D0 - 000199DF (0x10 bytes), align: 1
  Segment part 41.            Intra module refs:   _RTC_ReadTime
           ENTRY                   ADDRESS         REF BY
           =====                   =======         ======
           _BCDtoHEX               000199D0        CalcNextWakeupTime (lowpower)
                                                   GPRS_AT_OpenTCPLink (GTM900C)
                                                   HydrologySample (hydrologytask)
                                                   HydrologyTask (hydrologytask)
                                                   Hydrology_ReadRS485 (hydrologycommand)
                                                   OpenTran (ec200)
                                                   Utility_Is_A_CheckTime (common)
                                                   Utility_Is_A_ReportTime (common)
                                                   Utility_Is_A_SaveTime (common)
                                                   convert_array_bcd2dec (hydrologytask)
                                                   setWakeupInterval (main)
    -------------------------------------------------------------------------
<CODE> 2 (was CODE)
  Relative segment, address: 000186F4 - 00018731 (0x3e bytes), align: 1
  Segment part 60.            Intra module refs:   RTC_SetAlarm
                                                   _RTC_SetTime
           ENTRY                   ADDRESS         REF BY
           =====                   =======         ======
           _HEXtoBCD               000186F4        convertSampleTimetoHydrology (hydrologytask)
                                                   convertSendTimetoHydrology (hydrologytask)
               calls direct
    -------------------------------------------------------------------------
<CODE> 2 (was CODE)
  Relative segment, address: 0001847E - 000184BD (0x40 bytes), align: 1
  Segment part 90.
           ENTRY                   ADDRESS         REF BY
           =====                   =======         ======
           RTC_Open                0001847E        Main_Init (main)
               calls direct
    -------------------------------------------------------------------------
<CODE> 2 (was CODE)
  Relative segment, address: 00019C5A - 00019C5F (0x6 bytes), align: 1
  Segment part 43.            Intra module refs:   IIC_Ack
                                                   IIC_NAck
                                                   IIC_Read_Byte
                                                   IIC_Send_Byte
                                                   IIC_Start
                                                   IIC_Stop
                                                   IIC_Wait_Ack
                                                   RTC_Open
           ENTRY                   ADDRESS         REF BY
           =====                   =======         ======
           IIC_SCL_HIGH            00019C5A 
    -------------------------------------------------------------------------
<CODE> 2 (was CODE)
  Relative segment, address: 00019C54 - 00019C59 (0x6 bytes), align: 1
  Segment part 45.            Intra module refs:   IIC_Ack
                                                   IIC_NAck
                                                   IIC_Read_Byte
                                                   IIC_Send_Byte
                                                   IIC_Start
                                                   IIC_Stop
                                                   IIC_Wait_Ack
           ENTRY                   ADDRESS         REF BY
           =====                   =======         ======
           IIC_SCL_LOW             00019C54 
    -------------------------------------------------------------------------
<CODE> 2 (was CODE)
  Relative segment, address: 00019C4E - 00019C53 (0x6 bytes), align: 1
  Segment part 42.            Intra module refs:   IIC_NAck
                                                   IIC_Send_Byte
                                                   IIC_Start
                                                   IIC_Stop
                                                   IIC_Wait_Ack
                                                   RTC_Open
           ENTRY                   ADDRESS         REF BY
           =====                   =======         ======
           IIC_SDA_HIGH            00019C4E 
    -------------------------------------------------------------------------
<CODE> 2 (was CODE)
  Relative segment, address: 00019C48 - 00019C4D (0x6 bytes), align: 1
  Segment part 44.            Intra module refs:   IIC_Ack
                                                   IIC_Send_Byte
                                                   IIC_Start
                                                   IIC_Stop
           ENTRY                   ADDRESS         REF BY
           =====                   =======         ======
           IIC_SDA_LOW             00019C48 
    -------------------------------------------------------------------------
<CODE> 2 (was CODE)
  Relative segment, address: 00019A7C - 00019A89 (0xe bytes), align: 1
  Segment part 94.            Intra module refs:   IIC_Read_Byte
                                                   IIC_Wait_Ack
           ENTRY                   ADDRESS         REF BY
           =====                   =======         ======
           READ_SDA                00019A7C 
    -------------------------------------------------------------------------
<CODE> 2 (was CODE)
  Relative segment, address: 000192DA - 000192FD (0x24 bytes), align: 1
  Segment part 52.            Intra module refs:   _RTC_Read_OneByte
                                                   _RTC_Write_OneByte
           ENTRY                   ADDRESS         REF BY
           =====                   =======         ======
           IIC_Start               000192DA 
               calls direct
    -------------------------------------------------------------------------
<CODE> 2 (was CODE)
  Relative segment, address: 0001913E - 00019163 (0x26 bytes), align: 1
  Segment part 46.            Intra module refs:   IIC_Wait_Ack
                                                   _RTC_Read_OneByte
                                                   _RTC_Write_OneByte
           ENTRY                   ADDRESS         REF BY
           =====                   =======         ======
           IIC_Stop                0001913E 
               calls direct
    -------------------------------------------------------------------------
<CODE> 2 (was CODE)
  Relative segment, address: 0001889A - 000188D3 (0x3a bytes), align: 1
  Segment part 50.            Intra module refs:   _RTC_Read_OneByte
                                                   _RTC_Write_OneByte
           ENTRY                   ADDRESS         REF BY
           =====                   =======         ======
           IIC_Wait_Ack            0001889A 
               calls direct
    -------------------------------------------------------------------------
<CODE> 2 (was CODE)
  Relative segment, address: 00019558 - 00019573 (0x1c bytes), align: 1
  Segment part 47.            Intra module refs:   IIC_Read_Byte
           ENTRY                   ADDRESS         REF BY
           =====                   =======         ======
           IIC_Ack                 00019558 
               calls direct
    -------------------------------------------------------------------------
<CODE> 2 (was CODE)
  Relative segment, address: 00019574 - 0001958F (0x1c bytes), align: 1
  Segment part 48.            Intra module refs:   IIC_Read_Byte
           ENTRY                   ADDRESS         REF BY
           =====                   =======         ======
           IIC_NAck                00019574 
               calls direct
    -------------------------------------------------------------------------
<CODE> 2 (was CODE)
  Relative segment, address: 000189EE - 00018A25 (0x38 bytes), align: 1
  Segment part 51.            Intra module refs:   _RTC_Read_OneByte
                                                   _RTC_Write_OneByte
           ENTRY                   ADDRESS         REF BY
           =====                   =======         ======
           IIC_Send_Byte           000189EE 
               calls direct
    -------------------------------------------------------------------------
<CODE> 2 (was CODE)
  Relative segment, address: 0001826C - 000182AF (0x44 bytes), align: 1
  Segment part 49.            Intra module refs:   _RTC_Read_OneByte
           ENTRY                   ADDRESS         REF BY
           =====                   =======         ======
           IIC_Read_Byte           0001826C 
               calls direct
    -------------------------------------------------------------------------
DATA16_ID
  Relative segment, address: 7AE1 - 7AEC (0xc bytes), align: 0
  Segment part 19.            Intra module refs:   s_RTC_PulseBytes

    *************************************************************************

  FILE NAME : \\Mac\Home\work\ETL\Debug\Obj\rtc_a.r43
    *************************************************************************

  FILE NAME : \\Mac\Home\work\ETL\Debug\Obj\rtc_b.r43
    *************************************************************************

  FILE NAME : \\Mac\Home\work\ETL\Debug\Obj\rtc_c.r43
    *************************************************************************

  FILE NAME : \\Mac\Home\work\ETL\Debug\Obj\Sampler.r43
  PROGRAM MODULE, NAME : Sampler

  SEGMENTS IN THE MODULE
  ======================
DATA16_Z
  Relative segment, address: 1EEB - 1EEE (0x4 bytes), align: 0
  Segment part 44.            Intra module refs:   Sampler_Init
           ENTRY                   ADDRESS         REF BY
           =====                   =======         ======
           g_pulse_rate            1EEB 
    -------------------------------------------------------------------------
DATA16_Z
  Relative segment, address: 1EEF - 1EFA (0xc bytes), align: 0
  Segment part 45.            Intra module refs:   Sampler_Init
           ENTRY                   ADDRESS         REF BY
           =====                   =======         ======
           g_pulse_range           1EEF 
    -------------------------------------------------------------------------
<CODE> 2 (was CODE)
  Relative segment, address: 00014EEC - 00014F7F (0x94 bytes), align: 1
  Segment part 68.
           ENTRY                   ADDRESS         REF BY
           =====                   =======         ======
           Sampler_Init            00014EEC        Main_Init (main)
                                                   Restart_Init (main)
               calls direct
    -------------------------------------------------------------------------
<CODE> 2 (was CODE)
  Relative segment, address: 00019704 - 0001971B (0x18 bytes), align: 1
  Segment part 70.
           ENTRY                   ADDRESS         REF BY
           =====                   =======         ======
           Sampler_Open            00019704        HydrologySample (hydrologytask)
               calls direct
    -------------------------------------------------------------------------
<CODE> 2 (was CODE)
  Relative segment, address: 00019950 - 0001995F (0x10 bytes), align: 1
  Segment part 71.
           ENTRY                   ADDRESS         REF BY
           =====                   =======         ======
           Sampler_Close           00019950        HydrologySample (hydrologytask)
               calls direct
    -------------------------------------------------------------------------
<CODE> 2 (was CODE)
  Relative segment, address: 00014D2E - 00014DC3 (0x96 bytes), align: 1
  Segment part 79.            Intra module refs:   PORT1_ISR
           ENTRY                   ADDRESS         REF BY
           =====                   =======         ======
           ISR_Count_Cal           00014D2E 
    -------------------------------------------------------------------------
DATA16_Z
  Relative segment, address: 1EFB - 1EFB (0x1 bytes), align: 0
  Segment part 59.            Intra module refs:   PORT1_ISR
           LOCAL                   ADDRESS         
           =====                   =======         
           s_pulse1_flag           1EFB 
    -------------------------------------------------------------------------
DATA16_Z
  Relative segment, address: 1EFC - 1EFC (0x1 bytes), align: 0
  Segment part 60.            Intra module refs:   PORT1_ISR
           LOCAL                   ADDRESS         
           =====                   =======         
           s_pulse2_flag           1EFC 
    -------------------------------------------------------------------------
DATA16_Z
  Relative segment, address: 1EFD - 1EFD (0x1 bytes), align: 0
  Segment part 61.            Intra module refs:   PORT1_ISR
           LOCAL                   ADDRESS         
           =====                   =======         
           s_pulse3_flag           1EFD 
    -------------------------------------------------------------------------
DATA16_Z
  Relative segment, address: 1EFE - 1EFE (0x1 bytes), align: 0
  Segment part 62.            Intra module refs:   PORT1_ISR
           LOCAL                   ADDRESS         
           =====                   =======         
           s_pulse4_flag           1EFE 
    -------------------------------------------------------------------------
DATA16_Z
  Relative segment, address: 1EFF - 1EFF (0x1 bytes), align: 0
  Segment part 63.            Intra module refs:   PORT1_ISR
           LOCAL                   ADDRESS         
           =====                   =======         
           s_pulse5_flag           1EFF 
    -------------------------------------------------------------------------
DATA16_Z
  Relative segment, address: 1F00 - 1F00 (0x1 bytes), align: 0
  Segment part 64.            Intra module refs:   PORT1_ISR
           LOCAL                   ADDRESS         
           =====                   =======         
           s_pulse6_flag           1F00 
    -------------------------------------------------------------------------
DATA16_Z
  Relative segment, address: 1F01 - 1F01 (0x1 bytes), align: 0
  Segment part 65.            Intra module refs:   PORT1_ISR
           LOCAL                   ADDRESS         
           =====                   =======         
           s_pulse7_flag           1F01 
    -------------------------------------------------------------------------
DATA16_Z
  Relative segment, address: 1F02 - 1F02 (0x1 bytes), align: 0
  Segment part 66.            Intra module refs:   PORT1_ISR
           LOCAL                   ADDRESS         
           =====                   =======         
           s_pulse8_flag           1F02 
    -------------------------------------------------------------------------
ISR_CODE
  Relative segment, address: 7B58 - 83F7 (0x8a0 bytes), align: 1
  Segment part 80.            Intra module refs:   PORT1_ISR::??INTVEC 94
           ENTRY                   ADDRESS         REF BY
           =====                   =======         ======
           PORT1_ISR               7B58 
               interrupt function
               calls direct
    -------------------------------------------------------------------------
DATA16_Z
  Relative segment, address: 1D1A - 1D29 (0x10 bytes), align: 1
  Segment part 67.            Intra module refs:   PORT1_ISR
           LOCAL                   ADDRESS         
           =====                   =======         
           PORT1_ISR::a            1D1A 
    -------------------------------------------------------------------------
INTVEC
  Common segment, address: FF80 - FFDF (0x60 bytes), align: 1
  Segment part 10. ROOT 
           ENTRY                   ADDRESS         REF BY
           =====                   =======         ======
           PORT1_ISR::??INTVEC 94
                                   FFDE 
    -------------------------------------------------------------------------
DATA16_C
  Relative segment, address: 77B6 - 77B6 (0x1 bytes), align: 0
  Segment part 12.            Intra module refs:   Sampler_Init
    -------------------------------------------------------------------------
DATA16_C
  Relative segment, address: 77B7 - 77C0 (0xa bytes), align: 0
  Segment part 19.            Intra module refs:   PORT1_ISR
           LOCAL                   ADDRESS         
           =====                   =======         
           PORT1_ISR::__FUNCTION__
                                   77B7 
    -------------------------------------------------------------------------
DATA16_C
  Relative segment, address: 77C1 - 77C9 (0x9 bytes), align: 0
  Segment part 28.            Intra module refs:   PORT1_ISR
    -------------------------------------------------------------------------
DATA16_C
  Relative segment, address: 77CA - 77D2 (0x9 bytes), align: 0
  Segment part 29.            Intra module refs:   PORT1_ISR
    -------------------------------------------------------------------------
DATA16_C
  Relative segment, address: 77D3 - 77DB (0x9 bytes), align: 0
  Segment part 30.            Intra module refs:   PORT1_ISR
    -------------------------------------------------------------------------
DATA16_C
  Relative segment, address: 77DC - 77E4 (0x9 bytes), align: 0
  Segment part 31.            Intra module refs:   PORT1_ISR
    -------------------------------------------------------------------------
DATA16_C
  Relative segment, address: 77E5 - 77ED (0x9 bytes), align: 0
  Segment part 32.            Intra module refs:   PORT1_ISR
    -------------------------------------------------------------------------
DATA16_C
  Relative segment, address: 77EE - 77F6 (0x9 bytes), align: 0
  Segment part 33.            Intra module refs:   PORT1_ISR
    -------------------------------------------------------------------------
DATA16_C
  Relative segment, address: 77F7 - 77FF (0x9 bytes), align: 0
  Segment part 34.            Intra module refs:   PORT1_ISR
    -------------------------------------------------------------------------
DATA16_C
  Relative segment, address: 7800 - 7808 (0x9 bytes), align: 0
  Segment part 35.            Intra module refs:   PORT1_ISR
    -------------------------------------------------------------------------
DATA16_C
  Relative segment, address: 7809 - 780F (0x7 bytes), align: 0
  Segment part 36.            Intra module refs:   PORT1_ISR
    -------------------------------------------------------------------------
DATA16_C
  Relative segment, address: 7810 - 7816 (0x7 bytes), align: 0
  Segment part 37.            Intra module refs:   PORT1_ISR
    -------------------------------------------------------------------------
DATA16_C
  Relative segment, address: 7817 - 781D (0x7 bytes), align: 0
  Segment part 38.            Intra module refs:   PORT1_ISR
    -------------------------------------------------------------------------
DATA16_C
  Relative segment, address: 781E - 7824 (0x7 bytes), align: 0
  Segment part 39.            Intra module refs:   PORT1_ISR
    -------------------------------------------------------------------------
DATA16_C
  Relative segment, address: 7825 - 782B (0x7 bytes), align: 0
  Segment part 40.            Intra module refs:   PORT1_ISR
    -------------------------------------------------------------------------
DATA16_C
  Relative segment, address: 782C - 7832 (0x7 bytes), align: 0
  Segment part 41.            Intra module refs:   PORT1_ISR
    -------------------------------------------------------------------------
DATA16_C
  Relative segment, address: 7833 - 7839 (0x7 bytes), align: 0
  Segment part 42.            Intra module refs:   PORT1_ISR
    -------------------------------------------------------------------------
DATA16_C
  Relative segment, address: 783A - 7840 (0x7 bytes), align: 0
  Segment part 43.            Intra module refs:   PORT1_ISR

    *************************************************************************

  FILE NAME : \\Mac\Home\work\ETL\Debug\Obj\sd24_b.r43
    *************************************************************************

  FILE NAME : \\Mac\Home\work\ETL\Debug\Obj\sfr.r43
    *************************************************************************

  FILE NAME : \\Mac\Home\work\ETL\Debug\Obj\store.r43
  PROGRAM MODULE, NAME : store

  SEGMENTS IN THE MODULE
  ======================
DATA16_I
  Relative segment, address: 1C46 - 1C47 (0x2 bytes), align: 1
  Segment part 5.
           ENTRY                   ADDRESS         REF BY
           =====                   =======         ======
           s_StartIdx              1C46            Hydrology_ReadStartIdx (message)
                                                   Hydrology_SetStartIdx (message)
    -------------------------------------------------------------------------
DATA16_I
  Relative segment, address: 1C48 - 1C49 (0x2 bytes), align: 1
  Segment part 7.
           ENTRY                   ADDRESS         REF BY
           =====                   =======         ======
           s_EndIdx                1C48            Hydrology_ReadEndIdx (message)
                                                   Hydrology_SetEndIdx (message)
    -------------------------------------------------------------------------
<CODE> 2 (was CODE)
  Relative segment, address: 00019C88 - 00019C8B (0x4 bytes), align: 1
  Segment part 9.
           ENTRY                   ADDRESS         REF BY
           =====                   =======         ======
           Store_Init              00019C88        Restart_Init (main)
               calls direct
    -------------------------------------------------------------------------
<CODE> 2 (was CODE)
  Relative segment, address: 00018BDA - 00018C0D (0x34 bytes), align: 1
  Segment part 22.
           ENTRY                   ADDRESS         REF BY
           =====                   =======         ======
           Store_SetWIFIConfigFlag
                                   00018BDA        WIFI_Open (wifi_config)
               calls direct
    -------------------------------------------------------------------------
<CODE> 2 (was CODE)
  Relative segment, address: 00018C42 - 00018C75 (0x34 bytes), align: 1
  Segment part 23.
           ENTRY                   ADDRESS         REF BY
           =====                   =======         ======
           Store_ReadWIFIConfigFlag
                                   00018C42        WIFI_Open (wifi_config)
               calls direct
    -------------------------------------------------------------------------
<CODE> 2 (was CODE)
  Relative segment, address: 00017C2E - 00017C7D (0x50 bytes), align: 1
  Segment part 37.
           ENTRY                   ADDRESS         REF BY
           =====                   =======         ======
           Store_ReadPulseRate     00017C2E        Sampler_Init (Sampler)
               calls direct
    -------------------------------------------------------------------------
<CODE> 2 (was CODE)
  Relative segment, address: 00017C7E - 00017CCB (0x4e bytes), align: 1
  Segment part 40.            Intra module refs:   Store_ReadPulseRangeBytes
           ENTRY                   ADDRESS         REF BY
           =====                   =======         ======
           Store_SetPulseRange     00017C7E 
               calls direct
    -------------------------------------------------------------------------
<CODE> 2 (was CODE)
  Relative segment, address: 00011BE2 - 00011D05 (0x124 bytes), align: 1
  Segment part 41.
           ENTRY                   ADDRESS         REF BY
           =====                   =======         ======
           Store_ReadPulseRangeBytes
                                   00011BE2        Sampler_Init (Sampler)
               calls direct
    -------------------------------------------------------------------------
<CODE> 2 (was CODE)
  Relative segment, address: 00018E72 - 00018EA1 (0x30 bytes), align: 1
  Segment part 43.
           ENTRY                   ADDRESS         REF BY
           =====                   =======         ======
           Store_ReadIoDirConfig   00018E72        Sampler_Init (Sampler)
               calls direct
    -------------------------------------------------------------------------
<CODE> 2 (was CODE)
  Relative segment, address: 00018EA2 - 00018ED1 (0x30 bytes), align: 1
  Segment part 47.
           ENTRY                   ADDRESS         REF BY
           =====                   =======         ======
           Store_ReadIoLevelConfig
                                   00018EA2        Sampler_Init (Sampler)
               calls direct
    -------------------------------------------------------------------------
<CODE> 2 (was CODE)
  Relative segment, address: 00014F80 - 00015013 (0x94 bytes), align: 1
  Segment part 58.
           ENTRY                   ADDRESS         REF BY
           =====                   =======         ======
           Store_CheckDataItemSended
                                   00014F80        Hydrology_RetrieveIndex (message)
               calls direct
    -------------------------------------------------------------------------
<CODE> 2 (was CODE)
  Relative segment, address: 00015FC4 - 00016047 (0x84 bytes), align: 1
  Segment part 60.
           ENTRY                   ADDRESS         REF BY
           =====                   =======         ======
           Store_MarkDataItemSended
                                   00015FC4        HydrologyInstantWaterLevel (hydrologytask)
               calls direct
    -------------------------------------------------------------------------
<CODE> 2 (was CODE)
  Relative segment, address: 0001773A - 00017793 (0x5a bytes), align: 1
  Segment part 61.            Intra module refs:   Store_WriteDataItemAuto
           ENTRY                   ADDRESS         REF BY
           =====                   =======         ======
           Store_WriteDataItem     0001773A 
               calls direct
    -------------------------------------------------------------------------
<CODE> 2 (was CODE)
  Relative segment, address: 000139BC - 00013A91 (0xd6 bytes), align: 1
  Segment part 62.
           ENTRY                   ADDRESS         REF BY
           =====                   =======         ======
           Store_WriteDataItemAuto
                                   000139BC        HydrologySaveData (hydrologytask)
               calls direct
    -------------------------------------------------------------------------
<CODE> 2 (was CODE)
  Relative segment, address: 0001372E - 00013807 (0xda bytes), align: 1
  Segment part 63.
           ENTRY                   ADDRESS         REF BY
           =====                   =======         ======
           Store_ReadDataItem      0001372E        HydrologyInstantWaterLevel (hydrologytask)
               calls direct
    -------------------------------------------------------------------------
DATA16_ID
  Relative segment, address: 7AD8 - 7AD9 (0x2 bytes), align: 1
  Segment part 6.             Intra module refs:   s_StartIdx
    -------------------------------------------------------------------------
DATA16_ID
  Relative segment, address: 7ADA - 7ADB (0x2 bytes), align: 1
  Segment part 8.             Intra module refs:   s_EndIdx
    -------------------------------------------------------------------------
DATA16_C
  Relative segment, address: 7841 - 7863 (0x23 bytes), align: 0
  Segment part 2.             Intra module refs:   Store_WriteDataItemAuto

    *************************************************************************

  FILE NAME : \\Mac\Home\work\ETL\Debug\Obj\sys_status.r43
  PROGRAM MODULE, NAME : sys_status

  SEGMENTS IN THE MODULE
  ======================
DATA16_AN
  Relative segment, address: 0352 - 0353 (0x2 bytes), align: 0
  Segment part 1. ROOT        Intra module refs:   Timer0_A0_Init (timer)
                                                   led_flash_init
           ENTRY                   ADDRESS         REF BY
           =====                   =======         ======
           TA0CCR0                 0352 
    -------------------------------------------------------------------------
DATA16_Z
  Relative segment, address: 1D2A - 1D2B (0x2 bytes), align: 1
  Segment part 3.             Intra module refs:   sys_error_status
           ENTRY                   ADDRESS         REF BY
           =====                   =======         ======
           LED_OnOff_Flag          1D2A 
    -------------------------------------------------------------------------
<CODE> 2 (was CODE)
  Relative segment, address: 00019C30 - 00019C35 (0x6 bytes), align: 1
  Segment part 4.
           ENTRY                   ADDRESS         REF BY
           =====                   =======         ======
           led_flash_init          00019C30        ADC_Sample (adc)
                                                   GPRS_AT_CheckSimStat (GTM900C)
                                                   GPRS_Print_Error (GTM900C)
                                                   GPRS_Send (GTM900C)
                                                   GRPS_AT_Send (GTM900C)
                                                   Hydrology_ProcessUARTReceieve (uart_config)
                                                   RS485_Read (hydrologycommand)
    -------------------------------------------------------------------------
<CODE> 2 (was CODE)
  Relative segment, address: 00019500 - 0001951D (0x1e bytes), align: 1
  Segment part 8.
           ENTRY                   ADDRESS         REF BY
           =====                   =======         ======
           sys_error_status        00019500        TIMER0_A0_ISR (timer)
               calls direct

    *************************************************************************

  FILE NAME : \\Mac\Home\work\ETL\Debug\Obj\sysctl.r43
    *************************************************************************

  FILE NAME : \\Mac\Home\work\ETL\Debug\Obj\tec.r43
    *************************************************************************

  FILE NAME : \\Mac\Home\work\ETL\Debug\Obj\timer.r43
  PROGRAM MODULE, NAME : timer

  SEGMENTS IN THE MODULE
  ======================
DATA16_AN
  Relative segment, address: 0340 - 0341 (0x2 bytes), align: 0
  Segment part 3. ROOT        Intra module refs:   Timer0_A0_Init
           ENTRY                   ADDRESS         REF BY
           =====                   =======         ======
           TA0CTL                  0340 
    -------------------------------------------------------------------------
DATA16_AN
  Relative segment, address: 0342 - 0343 (0x2 bytes), align: 0
  Segment part 4. ROOT        Intra module refs:   Timer0_A0_Clear
                                                   Timer0_A0_Enable
           ENTRY                   ADDRESS         REF BY
           =====                   =======         ======
           TA0CCTL0                0342 
    -------------------------------------------------------------------------
DATA16_AN
  Relative segment, address: 0380 - 0381 (0x2 bytes), align: 0
  Segment part 6. ROOT        Intra module refs:   Timer1_A0_Init
           ENTRY                   ADDRESS         REF BY
           =====                   =======         ======
           TA1CTL                  0380 
    -------------------------------------------------------------------------
DATA16_AN
  Relative segment, address: 0382 - 0383 (0x2 bytes), align: 0
  Segment part 7. ROOT        Intra module refs:   Timer1_A0_Init
           ENTRY                   ADDRESS         REF BY
           =====                   =======         ======
           TA1CCTL0                0382 
    -------------------------------------------------------------------------
DATA16_AN
  Relative segment, address: 0392 - 0393 (0x2 bytes), align: 0
  Segment part 8. ROOT        Intra module refs:   Timer1_A0_Init
           ENTRY                   ADDRESS         REF BY
           =====                   =======         ======
           TA1CCR0                 0392 
    -------------------------------------------------------------------------
DATA16_AN
  Relative segment, address: 03C0 - 03C1 (0x2 bytes), align: 0
  Segment part 9. ROOT        Intra module refs:   TimerB_Init
           ENTRY                   ADDRESS         REF BY
           =====                   =======         ======
           TB0CTL                  03C0 
    -------------------------------------------------------------------------
DATA16_AN
  Relative segment, address: 03C2 - 03C3 (0x2 bytes), align: 0
  Segment part 10. ROOT 
           ENTRY                   ADDRESS         REF BY
           =====                   =======         ======
           TB0CCTL0                03C2 
    -------------------------------------------------------------------------
DATA16_AN
  Relative segment, address: 03C4 - 03C5 (0x2 bytes), align: 0
  Segment part 11. ROOT       Intra module refs:   TimerB_Init
           ENTRY                   ADDRESS         REF BY
           =====                   =======         ======
           TB0CCTL1                03C4 
    -------------------------------------------------------------------------
DATA16_AN
  Relative segment, address: 03C6 - 03C7 (0x2 bytes), align: 0
  Segment part 12. ROOT       Intra module refs:   TimerB_Init
           ENTRY                   ADDRESS         REF BY
           =====                   =======         ======
           TB0CCTL2                03C6 
    -------------------------------------------------------------------------
DATA16_AN
  Relative segment, address: 03D2 - 03D3 (0x2 bytes), align: 0
  Segment part 13. ROOT       Intra module refs:   TimerB_Init
           ENTRY                   ADDRESS         REF BY
           =====                   =======         ======
           TB0CCR0                 03D2 
    -------------------------------------------------------------------------
DATA16_AN
  Relative segment, address: 03D4 - 03D5 (0x2 bytes), align: 0
  Segment part 14. ROOT       Intra module refs:   TIMERB1_ISR
                                                   TimerB_Init
           ENTRY                   ADDRESS         REF BY
           =====                   =======         ======
           TB0CCR1                 03D4 
    -------------------------------------------------------------------------
DATA16_AN
  Relative segment, address: 03D6 - 03D7 (0x2 bytes), align: 0
  Segment part 15. ROOT       Intra module refs:   TIMERB1_ISR
                                                   TimerB_Init
           ENTRY                   ADDRESS         REF BY
           =====                   =======         ======
           TB0CCR2                 03D6 
    -------------------------------------------------------------------------
DATA16_AN
  Relative segment, address: 03EE - 03EF (0x2 bytes), align: 0
  Segment part 16. ROOT       Intra module refs:   TIMERB1_ISR
           ENTRY                   ADDRESS         REF BY
           =====                   =======         ======
           TB0IV                   03EE 
    -------------------------------------------------------------------------
DATA16_Z
  Relative segment, address: 1D2C - 1D2D (0x2 bytes), align: 1
  Segment part 23.            Intra module refs:   TIMERA0_ISR
           LOCAL                   ADDRESS         
           =====                   =======         
           s_ClockTicks            1D2C 
    -------------------------------------------------------------------------
DATA16_Z
  Relative segment, address: 1D2E - 1D2F (0x2 bytes), align: 1
  Segment part 24.            Intra module refs:   TIMERB1_ISR
                                                   TimerB_Clear
           LOCAL                   ADDRESS         
           =====                   =======         
           s_reset_count           1D2E 
    -------------------------------------------------------------------------
DATA16_I
  Relative segment, address: 1C4A - 1C4B (0x2 bytes), align: 1
  Segment part 25.            Intra module refs:   TIMER0_A0_ISR
           ENTRY                   ADDRESS         REF BY
           =====                   =======         ======
           sys_errorcode_runcode   1C4A            ADC_Sample (adc)
                                                   GPRS_AT_CheckSimStat (GTM900C)
                                                   GPRS_Print_Error (GTM900C)
                                                   GPRS_Send (GTM900C)
                                                   GRPS_AT_Send (GTM900C)
                                                   Hydrology_ProcessUARTReceieve (uart_config)
                                                   RS485_Read (hydrologycommand)
    -------------------------------------------------------------------------
<CODE> 2 (was CODE)
  Relative segment, address: 000195C8 - 000195E3 (0x1c bytes), align: 1
  Segment part 29.
           ENTRY                   ADDRESS         REF BY
           =====                   =======         ======
           Timer0_A0_Init          000195C8        Restart_Init (main)
    -------------------------------------------------------------------------
<CODE> 2 (was CODE)
  Relative segment, address: 00019344 - 00019365 (0x22 bytes), align: 1
  Segment part 30.
           ENTRY                   ADDRESS         REF BY
           =====                   =======         ======
           Timer1_A0_Init          00019344        Restart_Init (main)
    -------------------------------------------------------------------------
<CODE> 2 (was CODE)
  Relative segment, address: 00019BDA - 00019BE1 (0x8 bytes), align: 1
  Segment part 31.
           ENTRY                   ADDRESS         REF BY
           =====                   =======         ======
           WatchDog_Init           00019BDA        Restart_Init (main)
    -------------------------------------------------------------------------
<CODE> 2 (was CODE)
  Relative segment, address: 00019BEA - 00019BF1 (0x8 bytes), align: 1
  Segment part 32.            Intra module refs:   TIMERA0_ISR
                                                   TIMERB1_ISR
           ENTRY                   ADDRESS         REF BY
           =====                   =======         ======
           WatchDog_Clear          00019BEA        HydrologyTask (hydrologytask)
                                                   Main_Init (main)
    -------------------------------------------------------------------------
<CODE> 2 (was CODE)
  Relative segment, address: 000182F2 - 00018333 (0x42 bytes), align: 1
  Segment part 33.
           ENTRY                   ADDRESS         REF BY
           =====                   =======         ======
           TimerB_Init             000182F2        Restart_Init (main)
    -------------------------------------------------------------------------
<CODE> 2 (was CODE)
  Relative segment, address: 00019C6C - 00019C71 (0x6 bytes), align: 1
  Segment part 34.            Intra module refs:   TIMERA0_ISR
           ENTRY                   ADDRESS         REF BY
           =====                   =======         ======
           TimerB_Clear            00019C6C        HydrologyTask (hydrologytask)
                                                   Main_Init (main)
    -------------------------------------------------------------------------
<CODE> 2 (was CODE)
  Relative segment, address: 00019BFA - 00019C01 (0x8 bytes), align: 1
  Segment part 35.
           ENTRY                   ADDRESS         REF BY
           =====                   =======         ======
           Timer0_A0_Enable        00019BFA        ADC_Sample (adc)
                                                   GPRS_AT_CheckSimStat (GTM900C)
                                                   GPRS_Print_Error (GTM900C)
                                                   GPRS_Send (GTM900C)
                                                   GRPS_AT_Send (GTM900C)
                                                   Hydrology_ProcessUARTReceieve (uart_config)
                                                   RS485_Read (hydrologycommand)
    -------------------------------------------------------------------------
<CODE> 2 (was CODE)
  Relative segment, address: 00019C02 - 00019C09 (0x8 bytes), align: 1
  Segment part 36.
           ENTRY                   ADDRESS         REF BY
           =====                   =======         ======
           Timer0_A0_Clear         00019C02        ADC_Sample (adc)
                                                   GPRS_AT_CheckSimStat (GTM900C)
                                                   GPRS_Print_Error (GTM900C)
                                                   GPRS_Send (GTM900C)
                                                   GRPS_AT_Send (GTM900C)
                                                   Hydrology_ProcessUARTReceieve (uart_config)
                                                   RS485_Read (hydrologycommand)
    -------------------------------------------------------------------------
ISR_CODE
  Relative segment, address: 83F8 - 8405 (0xe bytes), align: 1
  Segment part 39.            Intra module refs:   TIMER0_A0_ISR::??INTVEC 108
           ENTRY                   ADDRESS         REF BY
           =====                   =======         ======
           TIMER0_A0_ISR           83F8 
               interrupt function
               calls direct
    -------------------------------------------------------------------------
ISR_CODE
  Relative segment, address: 8406 - 841B (0x16 bytes), align: 1
  Segment part 40.            Intra module refs:   TIMERA0_ISR::??INTVEC 98
           ENTRY                   ADDRESS         REF BY
           =====                   =======         ======
           TIMERA0_ISR             8406 
               interrupt function
               calls direct
    -------------------------------------------------------------------------
ISR_CODE
  Relative segment, address: 841C - 841D (0x2 bytes), align: 1
  Segment part 41.            Intra module refs:   TIMERB0_ISR::??INTVEC 120
           ENTRY                   ADDRESS         REF BY
           =====                   =======         ======
           TIMERB0_ISR             841C 
               interrupt function
    -------------------------------------------------------------------------
ISR_CODE
  Relative segment, address: 841E - 845B (0x3e bytes), align: 1
  Segment part 42.            Intra module refs:   TIMERB1_ISR::??INTVEC 118
           ENTRY                   ADDRESS         REF BY
           =====                   =======         ======
           TIMERB1_ISR             841E 
               interrupt function
               calls direct
    -------------------------------------------------------------------------
INTVEC
  Common segment, address: FF80 - FFE3 (0x64 bytes), align: 1
  Segment part 18. ROOT 
           ENTRY                   ADDRESS         REF BY
           =====                   =======         ======
           TIMERA0_ISR::??INTVEC 98
                                   FFE2 
    -------------------------------------------------------------------------
INTVEC
  Common segment, address: FF80 - FFED (0x6e bytes), align: 1
  Segment part 19. ROOT 
           ENTRY                   ADDRESS         REF BY
           =====                   =======         ======
           TIMER0_A0_ISR::??INTVEC 108
                                   FFEC 
    -------------------------------------------------------------------------
INTVEC
  Common segment, address: FF80 - FFF7 (0x78 bytes), align: 1
  Segment part 20. ROOT 
           ENTRY                   ADDRESS         REF BY
           =====                   =======         ======
           TIMERB1_ISR::??INTVEC 118
                                   FFF6 
    -------------------------------------------------------------------------
INTVEC
  Common segment, address: FF80 - FFF9 (0x7a bytes), align: 1
  Segment part 21. ROOT 
           ENTRY                   ADDRESS         REF BY
           =====                   =======         ======
           TIMERB0_ISR::??INTVEC 120
                                   FFF8 
    -------------------------------------------------------------------------
DATA16_ID
  Relative segment, address: 7ADC - 7ADD (0x2 bytes), align: 1
  Segment part 26.            Intra module refs:   sys_errorcode_runcode

    *************************************************************************

  FILE NAME : \\Mac\Home\work\ETL\Debug\Obj\timer_a.r43
    *************************************************************************

  FILE NAME : \\Mac\Home\work\ETL\Debug\Obj\timer_b.r43
    *************************************************************************

  FILE NAME : \\Mac\Home\work\ETL\Debug\Obj\timer_d.r43
    *************************************************************************

  FILE NAME : \\Mac\Home\work\ETL\Debug\Obj\tlv.r43
    *************************************************************************

  FILE NAME : \\Mac\Home\work\ETL\Debug\Obj\uart0.r43
  PROGRAM MODULE, NAME : uart0

  SEGMENTS IN THE MODULE
  ======================
DATA16_AN
  Relative segment, address: 05C0 - 05C1 (0x2 bytes), align: 0
  Segment part 4. ROOT        Intra module refs:   UART0_Open
           ENTRY                   ADDRESS         REF BY
           =====                   =======         ======
           _A_UCA0CTLW0_L          05C0 
           LOCAL                   ADDRESS         
           =====                   =======         
           UCA0CTLW0               05C0 
           UCA0CTLW0_H             05C1 
           UCA0CTLW0_L             05C0 
    -------------------------------------------------------------------------
DATA16_AN
  Relative segment, address: 05C6 - 05C7 (0x2 bytes), align: 0
  Segment part 5. ROOT        Intra module refs:   UART0_Open
           ENTRY                   ADDRESS         REF BY
           =====                   =======         ======
           _A_UCA0BRW_L            05C6 
           LOCAL                   ADDRESS         
           =====                   =======         
           UCA0BRW                 05C6 
           UCA0BRW_H               05C7 
           UCA0BRW_L               05C6 
    -------------------------------------------------------------------------
DATA16_AN
  Relative segment, address: 05C8 - 05C8 (0x1 bytes), align: 0
  Segment part 6. ROOT        Intra module refs:   UART0_Open
           ENTRY                   ADDRESS         REF BY
           =====                   =======         ======
           UCA0MCTL                05C8 
    -------------------------------------------------------------------------
DATA16_AN
  Relative segment, address: 05CC - 05CC (0x1 bytes), align: 0
  Segment part 7. ROOT        Intra module refs:   UART0_RX_ISR
           ENTRY                   ADDRESS         REF BY
           =====                   =======         ======
           UCA0RXBUF               05CC 
    -------------------------------------------------------------------------
DATA16_AN
  Relative segment, address: 05CE - 05CE (0x1 bytes), align: 0
  Segment part 8. ROOT        Intra module refs:   UART0_Send
           ENTRY                   ADDRESS         REF BY
           =====                   =======         ======
           UCA0TXBUF               05CE 
    -------------------------------------------------------------------------
DATA16_AN
  Relative segment, address: 05DC - 05DD (0x2 bytes), align: 0
  Segment part 9. ROOT        Intra module refs:   UART0_Close
                                                   UART0_Open
                                                   UART0_Send
           ENTRY                   ADDRESS         REF BY
           =====                   =======         ======
           _A_UCA0ICTL_L           05DC 
           LOCAL                   ADDRESS         
           =====                   =======         
           UCA0ICTL                05DC 
           UCA0ICTL_H              05DD 
           UCA0ICTL_L              05DC 
    -------------------------------------------------------------------------
DATA16_Z
  Relative segment, address: 1D30 - 1D31 (0x2 bytes), align: 1
  Segment part 14.            Intra module refs:   UART0_ClearBuffer
                                                   UART0_RX_ISR
           ENTRY                   ADDRESS         REF BY
           =====                   =======         ======
           IsGetInput              1D30 
    -------------------------------------------------------------------------
DATA16_Z
  Relative segment, address: 1D32 - 1D33 (0x2 bytes), align: 1
  Segment part 15.            Intra module refs:   UART0_ClearBuffer
                                                   UART0_Send
           ENTRY                   ADDRESS         REF BY
           =====                   =======         ======
           UART0_Tx_Buf            1D32 
    -------------------------------------------------------------------------
DATA16_Z
  Relative segment, address: 1F03 - 2187 (0x285 bytes), align: 0
  Segment part 16.            Intra module refs:   UART0_RX_ISR
                                                   UART0_RecvLineTry
                                                   UART0_RecvLineWait
           ENTRY                   ADDRESS         REF BY
           =====                   =======         ======
           UART0_Rx_Buffer         1F03 
    -------------------------------------------------------------------------
DATA16_Z
  Relative segment, address: 1D34 - 1D39 (0x6 bytes), align: 1
  Segment part 17.            Intra module refs:   UART0_ClearBuffer
                                                   UART0_RX_ISR
                                                   UART0_RecvLineTry
                                                   UART0_RecvLineWait
           ENTRY                   ADDRESS         REF BY
           =====                   =======         ======
           UART0_Rx_BufLen         1D34 
    -------------------------------------------------------------------------
DATA16_Z
  Relative segment, address: 1D3A - 1D3B (0x2 bytes), align: 1
  Segment part 18.            Intra module refs:   UART0_ClearBuffer
                                                   UART0_RX_ISR
           ENTRY                   ADDRESS         REF BY
           =====                   =======         ======
           UART0_Rx_INTIndex       1D3A 
    -------------------------------------------------------------------------
DATA16_Z
  Relative segment, address: 1D3C - 1D3D (0x2 bytes), align: 1
  Segment part 19.            Intra module refs:   UART0_ClearBuffer
                                                   UART0_RX_ISR
           ENTRY                   ADDRESS         REF BY
           =====                   =======         ======
           UART0_Rx_INTLen         1D3C 
    -------------------------------------------------------------------------
DATA16_Z
  Relative segment, address: 1D3E - 1D3F (0x2 bytes), align: 1
  Segment part 20.            Intra module refs:   UART0_ClearBuffer
                                                   UART0_RecvLineTry
                                                   UART0_RecvLineWait
           ENTRY                   ADDRESS         REF BY
           =====                   =======         ======
           UART0_Rx_RecvIndex      1D3E 
    -------------------------------------------------------------------------
DATA16_Z
  Relative segment, address: 1D40 - 1D41 (0x2 bytes), align: 1
  Segment part 21.            Intra module refs:   UART0_ClearBuffer
                                                   UART0_Send
           ENTRY                   ADDRESS         REF BY
           =====                   =======         ======
           UART0_Tx_Flag           1D40 
    -------------------------------------------------------------------------
DATA16_Z
  Relative segment, address: 1D42 - 1D43 (0x2 bytes), align: 1
  Segment part 22.            Intra module refs:   UART0_ClearBuffer
                                                   UART0_Send
           ENTRY                   ADDRESS         REF BY
           =====                   =======         ======
           UART0_Tx_Len            1D42 
    -------------------------------------------------------------------------
DATA16_Z
  Relative segment, address: 1D44 - 1D45 (0x2 bytes), align: 1
  Segment part 28.            Intra module refs:   UART0_Open
                                                   UART0_RecvLineWait
                                                   UART0_Send
           LOCAL                   ADDRESS         
           =====                   =======         
           s_uart0_type            1D44 
    -------------------------------------------------------------------------
<CODE> 2 (was CODE)
  Relative segment, address: 00018B38 - 00018B6D (0x36 bytes), align: 1
  Segment part 33.
           ENTRY                   ADDRESS         REF BY
           =====                   =======         ======
           UART0_Open              00018B38        GSM_Open (GSM)
                                                   PowerOn (ec200)
               calls direct
    -------------------------------------------------------------------------
<CODE> 2 (was CODE)
  Relative segment, address: 00019C0A - 00019C11 (0x8 bytes), align: 1
  Segment part 36.
           ENTRY                   ADDRESS         REF BY
           =====                   =======         ======
           UART0_Close             00019C0A        GSM_Close (GSM)
               calls direct
    -------------------------------------------------------------------------
<CODE> 2 (was CODE)
  Relative segment, address: 0001890E - 00018945 (0x38 bytes), align: 1
  Segment part 32.            Intra module refs:   UART0_Close
                                                   UART0_Open
           ENTRY                   ADDRESS         REF BY
           =====                   =======         ======
           UART0_ClearBuffer       0001890E        GPRS_ClearRecvBuf (GTM900C)
               calls direct
    -------------------------------------------------------------------------
<CODE> 1 (was CODE)
  Relative segment, address: FECE - FF7D (0xb0 bytes), align: 1
  Segment part 39.
           ENTRY                   ADDRESS         REF BY
           =====                   =======         ======
           UART0_Send              FECE            Ec200Send (ec200)
                                                   Ec200SendWithCR (ec200)
                                                   Ec200SendWithLen (ec200)
                                                   GPRS_AT_OFF_CALL (GTM900C)
                                                   GPRS_WriteBytes (GTM900C)
                                                   GSM_AT_CloseFeedback (GSM)
                                                   GSM_AT_OffCall (GSM)
                                                   GSM_AT_QuitInput (GSM)
                                                   GSM_AT_ShutDown (GSM)
               calls direct
    -------------------------------------------------------------------------
<CODE> 2 (was CODE)
  Relative segment, address: 000162CE - 0001634B (0x7e bytes), align: 1
  Segment part 42.
           ENTRY                   ADDRESS         REF BY
           =====                   =======         ======
           UART0_RecvLineTry       000162CE        GPRS_PrepareForSend (GTM900C)
                                                   GPRS_Proc_AT_Response (GTM900C)
                                                   GSM_DealAllData (GSM)
    -------------------------------------------------------------------------
<CODE> 2 (was CODE)
  Relative segment, address: 0001483C - 000148DD (0xa2 bytes), align: 1
  Segment part 43.
           ENTRY                   ADDRESS         REF BY
           =====                   =======         ======
           UART0_RecvLineWait      0001483C        CloseTran (ec200)
                                                   Ec200RecvMsg (ec200)
                                                   GPRS_AT_OFF_CALL (GTM900C)
                                                   GSM_AT_CloseFeedback (GSM)
                                                   GSM_AT_OffCall (GSM)
                                                   GSM_AT_ShutDown (GSM)
                                                   OpenTran (ec200)
                                                   QueryCerg (ec200)
                                                   QuerySIMSignal (ec200)
                                                   SetNoEcho (ec200)
                                                   TransmissionActivation (ec200)
                                                   TransmissionConfiguration (ec200)
                                                   TransmissionDeactivation (ec200)
                                                   get_time (ec200)
               calls direct
    -------------------------------------------------------------------------
ISR_CODE
  Relative segment, address: 845C - 85A5 (0x14a bytes), align: 1
  Segment part 46.            Intra module refs:   UART0_RX_ISR::??INTVEC 114
           ENTRY                   ADDRESS         REF BY
           =====                   =======         ======
           UART0_RX_ISR            845C 
               interrupt function
    -------------------------------------------------------------------------
INTVEC
  Common segment, address: FF80 - FFF3 (0x74 bytes), align: 1
  Segment part 10. ROOT 
           ENTRY                   ADDRESS         REF BY
           =====                   =======         ======
           UART0_RX_ISR::??INTVEC 114
                                   FFF2 

    *************************************************************************

  FILE NAME : \\Mac\Home\work\ETL\Debug\Obj\uart1.r43
  PROGRAM MODULE, NAME : uart1

  SEGMENTS IN THE MODULE
  ======================
DATA16_AN
  Relative segment, address: 0600 - 0601 (0x2 bytes), align: 0
  Segment part 3. ROOT        Intra module refs:   UART1_Open_9600
           ENTRY                   ADDRESS         REF BY
           =====                   =======         ======
           _A_UCA1CTLW0_L          0600 
           LOCAL                   ADDRESS         
           =====                   =======         
           UCA1CTLW0               0600 
           UCA1CTLW0_H             0601 
           UCA1CTLW0_L             0600 
    -------------------------------------------------------------------------
DATA16_AN
  Relative segment, address: 0606 - 0607 (0x2 bytes), align: 0
  Segment part 4. ROOT        Intra module refs:   UART1_Open_9600
           ENTRY                   ADDRESS         REF BY
           =====                   =======         ======
           _A_UCA1BRW_L            0606 
           LOCAL                   ADDRESS         
           =====                   =======         
           UCA1BRW                 0606 
           UCA1BRW_H               0607 
           UCA1BRW_L               0606 
    -------------------------------------------------------------------------
DATA16_AN
  Relative segment, address: 0608 - 0608 (0x1 bytes), align: 0
  Segment part 5. ROOT        Intra module refs:   UART1_Open_9600
           ENTRY                   ADDRESS         REF BY
           =====                   =======         ======
           UCA1MCTL                0608 
    -------------------------------------------------------------------------
DATA16_AN
  Relative segment, address: 060C - 060C (0x1 bytes), align: 0
  Segment part 6. ROOT        Intra module refs:   UART1_RX_ISR
           ENTRY                   ADDRESS         REF BY
           =====                   =======         ======
           UCA1RXBUF               060C 
    -------------------------------------------------------------------------
DATA16_AN
  Relative segment, address: 060E - 060E (0x1 bytes), align: 0
  Segment part 7. ROOT        Intra module refs:   UART1_Send
           ENTRY                   ADDRESS         REF BY
           =====                   =======         ======
           UCA1TXBUF               060E 
    -------------------------------------------------------------------------
DATA16_AN
  Relative segment, address: 061C - 061D (0x2 bytes), align: 0
  Segment part 8. ROOT        Intra module refs:   UART1_Open_9600
                                                   UART1_Send
           ENTRY                   ADDRESS         REF BY
           =====                   =======         ======
           _A_UCA1ICTL_L           061C 
           LOCAL                   ADDRESS         
           =====                   =======         
           UCA1ICTL                061C 
           UCA1ICTL_H              061D 
           UCA1ICTL_L              061C 
    -------------------------------------------------------------------------
DATA16_Z
  Relative segment, address: 1D46 - 1D47 (0x2 bytes), align: 1
  Segment part 12.            Intra module refs:   UART1_ClearBuffer
                                                   UART1_Send
           ENTRY                   ADDRESS         REF BY
           =====                   =======         ======
           UART1_Tx_Buf            1D46 
    -------------------------------------------------------------------------
DATA16_Z
  Relative segment, address: 2188 - 24A7 (0x320 bytes), align: 0
  Segment part 13.            Intra module refs:   UART1_RX_ISR
                                                   UART1_RecvLineTry
           ENTRY                   ADDRESS         REF BY
           =====                   =======         ======
           UART1_Rx_Buffer         2188 
    -------------------------------------------------------------------------
DATA16_Z
  Relative segment, address: 1D48 - 1D4B (0x4 bytes), align: 1
  Segment part 14.            Intra module refs:   Judge_Watermeter
                                                   UART1_ClearBuffer
                                                   UART1_RX_ISR
                                                   UART1_RecvLineTry
           ENTRY                   ADDRESS         REF BY
           =====                   =======         ======
           UART1_Rx_BufLen         1D48 
    -------------------------------------------------------------------------
DATA16_Z
  Relative segment, address: 1D4C - 1D4D (0x2 bytes), align: 1
  Segment part 15.            Intra module refs:   Judge_Watermeter
                                                   UART1_ClearBuffer
                                                   UART1_RX_ISR
           ENTRY                   ADDRESS         REF BY
           =====                   =======         ======
           UART1_Rx_INTIndex       1D4C 
    -------------------------------------------------------------------------
DATA16_Z
  Relative segment, address: 1D4E - 1D4F (0x2 bytes), align: 1
  Segment part 16.            Intra module refs:   Judge_Watermeter
                                                   UART1_ClearBuffer
                                                   UART1_RX_ISR
           ENTRY                   ADDRESS         REF BY
           =====                   =======         ======
           UART1_Rx_INTLen         1D4E 
    -------------------------------------------------------------------------
DATA16_Z
  Relative segment, address: 1D50 - 1D51 (0x2 bytes), align: 1
  Segment part 17.            Intra module refs:   UART1_ClearBuffer
                                                   UART1_RecvLineTry
           ENTRY                   ADDRESS         REF BY
           =====                   =======         ======
           UART1_Rx_RecvIndex      1D50 
    -------------------------------------------------------------------------
DATA16_Z
  Relative segment, address: 1D52 - 1D53 (0x2 bytes), align: 1
  Segment part 18.            Intra module refs:   UART1_ClearBuffer
                                                   UART1_Send
           ENTRY                   ADDRESS         REF BY
           =====                   =======         ======
           UART1_Tx_Flag           1D52 
    -------------------------------------------------------------------------
DATA16_Z
  Relative segment, address: 1D54 - 1D55 (0x2 bytes), align: 1
  Segment part 19.            Intra module refs:   UART1_ClearBuffer
                                                   UART1_Send
           ENTRY                   ADDRESS         REF BY
           =====                   =======         ======
           UART1_Tx_Len            1D54 
    -------------------------------------------------------------------------
DATA16_Z
  Relative segment, address: 1D56 - 1D57 (0x2 bytes), align: 1
  Segment part 20.            Intra module refs:   UART1_Open_9600
                                                   UART1_RX_ISR
           ENTRY                   ADDRESS         REF BY
           =====                   =======         ======
           s_uart1_type            1D56 
    -------------------------------------------------------------------------
<CODE> 2 (was CODE)
  Relative segment, address: 000189B6 - 000189ED (0x38 bytes), align: 1
  Segment part 23.
           ENTRY                   ADDRESS         REF BY
           =====                   =======         ======
           UART1_Open_9600         000189B6        HydrologySample (hydrologytask)
               calls direct
    -------------------------------------------------------------------------
<CODE> 2 (was CODE)
  Relative segment, address: 00018E40 - 00018E71 (0x32 bytes), align: 1
  Segment part 21.            Intra module refs:   UART1_Open_9600
           ENTRY                   ADDRESS         REF BY
           =====                   =======         ======
           UART1_ClearBuffer       00018E40 
               calls direct
    -------------------------------------------------------------------------
<CODE> 2 (was CODE)
  Relative segment, address: 00015014 - 000150A7 (0x94 bytes), align: 1
  Segment part 25.
           ENTRY                   ADDRESS         REF BY
           =====                   =======         ======
           UART1_Send              00015014        RS485_SerilWrite (hydrologycommand)
               calls direct
    -------------------------------------------------------------------------
<CODE> 2 (was CODE)
  Relative segment, address: 00014980 - 00014A21 (0xa2 bytes), align: 1
  Segment part 28.
           ENTRY                   ADDRESS         REF BY
           =====                   =======         ======
           UART1_RecvLineTry       00014980        RS485_SerilRead (hydrologycommand)
               calls direct
    -------------------------------------------------------------------------
<CODE> 2 (was CODE)
  Relative segment, address: 0001909C - 000190C5 (0x2a bytes), align: 1
  Segment part 31.            Intra module refs:   UART1_RX_ISR
           ENTRY                   ADDRESS         REF BY
           =====                   =======         ======
           Judge_Watermeter        0001909C        UART3_RX_ISR (uart3)
    -------------------------------------------------------------------------
ISR_CODE
  Relative segment, address: 85A6 - 8691 (0xec bytes), align: 1
  Segment part 32.            Intra module refs:   UART1_RX_ISR::??INTVEC 92
           ENTRY                   ADDRESS         REF BY
           =====                   =======         ======
           UART1_RX_ISR            85A6 
               interrupt function
               calls direct
    -------------------------------------------------------------------------
INTVEC
  Common segment, address: FF80 - FFDD (0x5e bytes), align: 1
  Segment part 9. ROOT 
           ENTRY                   ADDRESS         REF BY
           =====                   =======         ======
           UART1_RX_ISR::??INTVEC 92
                                   FFDC 
    -------------------------------------------------------------------------
DATA16_C
  Relative segment, address: 7864 - 7875 (0x12 bytes), align: 0
  Segment part 11.            Intra module refs:   UART1_RecvLineTry
           LOCAL                   ADDRESS         
           =====                   =======         
           UART1_RecvLineTry::__FUNCTION__
                                   7864 

    *************************************************************************

  FILE NAME : \\Mac\Home\work\ETL\Debug\Obj\uart2.r43
  PROGRAM MODULE, NAME : uart2

  SEGMENTS IN THE MODULE
  ======================
DATA16_AN
  Relative segment, address: 028A - 028B (0x2 bytes), align: 0
  Segment part 4. ROOT        Intra module refs:   UART2_Open
                                                   UART3_Open (uart3)
           ENTRY                   ADDRESS         REF BY
           =====                   =======         ======
           _A_PESEL_L              028A 
           LOCAL                   ADDRESS         
           =====                   =======         
           PESEL                   028A 
           PESEL_H                 028B 
           PESEL_L                 028A 
    -------------------------------------------------------------------------
DATA16_AN
  Relative segment, address: 0640 - 0641 (0x2 bytes), align: 0
  Segment part 5. ROOT        Intra module refs:   UART2_Open
           ENTRY                   ADDRESS         REF BY
           =====                   =======         ======
           _A_UCA2CTLW0_L          0640 
           LOCAL                   ADDRESS         
           =====                   =======         
           UCA2CTLW0               0640 
           UCA2CTLW0_H             0641 
           UCA2CTLW0_L             0640 
    -------------------------------------------------------------------------
DATA16_AN
  Relative segment, address: 0646 - 0647 (0x2 bytes), align: 0
  Segment part 6. ROOT        Intra module refs:   UART2_Open
           ENTRY                   ADDRESS         REF BY
           =====                   =======         ======
           _A_UCA2BRW_L            0646 
           LOCAL                   ADDRESS         
           =====                   =======         
           UCA2BRW                 0646 
           UCA2BRW_H               0647 
           UCA2BRW_L               0646 
    -------------------------------------------------------------------------
DATA16_AN
  Relative segment, address: 0648 - 0648 (0x1 bytes), align: 0
  Segment part 7. ROOT        Intra module refs:   UART2_Open
           ENTRY                   ADDRESS         REF BY
           =====                   =======         ======
           UCA2MCTL                0648 
    -------------------------------------------------------------------------
DATA16_AN
  Relative segment, address: 064C - 064C (0x1 bytes), align: 0
  Segment part 8. ROOT        Intra module refs:   UART2_RX_ISR
           ENTRY                   ADDRESS         REF BY
           =====                   =======         ======
           UCA2RXBUF               064C 
    -------------------------------------------------------------------------
DATA16_AN
  Relative segment, address: 064E - 064E (0x1 bytes), align: 0
  Segment part 9. ROOT        Intra module refs:   UART2_Send
           ENTRY                   ADDRESS         REF BY
           =====                   =======         ======
           UCA2TXBUF               064E 
    -------------------------------------------------------------------------
DATA16_AN
  Relative segment, address: 065C - 065D (0x2 bytes), align: 0
  Segment part 10. ROOT       Intra module refs:   UART2_Close
                                                   UART2_Open
                                                   UART2_Send
           ENTRY                   ADDRESS         REF BY
           =====                   =======         ======
           _A_UCA2ICTL_L           065C 
           LOCAL                   ADDRESS         
           =====                   =======         
           UCA2ICTL                065C 
           UCA2ICTL_H              065D 
           UCA2ICTL_L              065C 
    -------------------------------------------------------------------------
DATA16_Z
  Relative segment, address: 1D58 - 1D59 (0x2 bytes), align: 1
  Segment part 16.            Intra module refs:   UART2_ClearBuffer
                                                   UART2_Send
           ENTRY                   ADDRESS         REF BY
           =====                   =======         ======
           UART2_Tx_Buf            1D58 
    -------------------------------------------------------------------------
DATA16_Z
  Relative segment, address: 24A8 - 2B19 (0x672 bytes), align: 0
  Segment part 17.            Intra module refs:   UART2_RX_ISR
                                                   UART2_RecvLineLongWait
                                                   UART2_RecvLineTry
                                                   UART2_RecvLineWait
           ENTRY                   ADDRESS         REF BY
           =====                   =======         ======
           UART2_Rx_Buffer         24A8 
    -------------------------------------------------------------------------
DATA16_Z
  Relative segment, address: 1D5A - 1D5F (0x6 bytes), align: 1
  Segment part 18.            Intra module refs:   UART2_ClearBuffer
                                                   UART2_RX_ISR
                                                   UART2_RecvLineLongWait
                                                   UART2_RecvLineTry
                                                   UART2_RecvLineWait
           ENTRY                   ADDRESS         REF BY
           =====                   =======         ======
           UART2_Rx_BufLen         1D5A 
    -------------------------------------------------------------------------
DATA16_Z
  Relative segment, address: 1D60 - 1D61 (0x2 bytes), align: 1
  Segment part 19.            Intra module refs:   UART2_ClearBuffer
                                                   UART2_RX_ISR
           ENTRY                   ADDRESS         REF BY
           =====                   =======         ======
           UART2_Rx_INTIndex       1D60 
    -------------------------------------------------------------------------
DATA16_Z
  Relative segment, address: 1D62 - 1D63 (0x2 bytes), align: 1
  Segment part 20.            Intra module refs:   UART2_ClearBuffer
                                                   UART2_RX_ISR
           ENTRY                   ADDRESS         REF BY
           =====                   =======         ======
           UART2_Rx_INTLen         1D62 
    -------------------------------------------------------------------------
DATA16_Z
  Relative segment, address: 1D64 - 1D65 (0x2 bytes), align: 1
  Segment part 21.            Intra module refs:   UART2_ClearBuffer
                                                   UART2_RecvLineLongWait
                                                   UART2_RecvLineTry
                                                   UART2_RecvLineWait
           ENTRY                   ADDRESS         REF BY
           =====                   =======         ======
           UART2_Rx_RecvIndex      1D64 
    -------------------------------------------------------------------------
DATA16_Z
  Relative segment, address: 1D66 - 1D67 (0x2 bytes), align: 1
  Segment part 22.            Intra module refs:   UART2_ClearBuffer
                                                   UART2_Send
           ENTRY                   ADDRESS         REF BY
           =====                   =======         ======
           UART2_Tx_Flag           1D66 
    -------------------------------------------------------------------------
DATA16_Z
  Relative segment, address: 1D68 - 1D69 (0x2 bytes), align: 1
  Segment part 23.            Intra module refs:   UART2_ClearBuffer
                                                   UART2_Send
           ENTRY                   ADDRESS         REF BY
           =====                   =======         ======
           UART2_Tx_Len            1D68 
    -------------------------------------------------------------------------
DATA16_I
  Relative segment, address: 1C4C - 1C4D (0x2 bytes), align: 1
  Segment part 24.            Intra module refs:   UART2_RX_ISR
           ENTRY                   ADDRESS         REF BY
           =====                   =======         ======
           line_len                1C4C 
    -------------------------------------------------------------------------
DATA16_Z
  Relative segment, address: 1D6A - 1D6B (0x2 bytes), align: 1
  Segment part 26.            Intra module refs:   UART2_Open
                                                   UART2_RX_ISR
           ENTRY                   ADDRESS         REF BY
           =====                   =======         ======
           s_uart2_type            1D6A 
    -------------------------------------------------------------------------
<CODE> 2 (was CODE)
  Relative segment, address: 00017D68 - 00017DB3 (0x4c bytes), align: 1
  Segment part 28.
           ENTRY                   ADDRESS         REF BY
           =====                   =======         ======
           UART2_Open              00017D68        BLE_INIT (blueTooth)
                                                   camera_Take (camera)
               calls direct
    -------------------------------------------------------------------------
<CODE> 2 (was CODE)
  Relative segment, address: 00019B56 - 00019B5F (0xa bytes), align: 1
  Segment part 30.
           ENTRY                   ADDRESS         REF BY
           =====                   =======         ======
           UART2_Close             00019B56        BLE_Close (blueTooth)
                                                   camera_Take (camera)
               calls direct
    -------------------------------------------------------------------------
<CODE> 2 (was CODE)
  Relative segment, address: 00018C0E - 00018C41 (0x34 bytes), align: 1
  Segment part 27.            Intra module refs:   UART2_Close
                                                   UART2_Open
           ENTRY                   ADDRESS         REF BY
           =====                   =======         ======
           UART2_ClearBuffer       00018C0E        BLE_buffer_Clear (blueTooth)
               calls direct
    -------------------------------------------------------------------------
<CODE> 2 (was CODE)
  Relative segment, address: 00014E58 - 00014EEB (0x94 bytes), align: 1
  Segment part 31.
           ENTRY                   ADDRESS         REF BY
           =====                   =======         ======
           UART2_Send              00014E58        BLE_BLESP (blueTooth)
                                                   BLE_BLESPPEND (blueTooth)
                                                   BLE_GATTSSRVCRE (blueTooth)
                                                   BLE_SendAtCmd (blueTooth)
                                                   BLE_SendMsg (blueTooth)
                                                   camera_GetCmdSend (camera)
                                                   camera_TakeCmdSend (camera)
               calls direct
    -------------------------------------------------------------------------
<CODE> 2 (was CODE)
  Relative segment, address: 0001464C - 000146F1 (0xa6 bytes), align: 1
  Segment part 34.
           ENTRY                   ADDRESS         REF BY
           =====                   =======         ======
           UART2_RecvLineTry       0001464C        SPPTX_NOWAIT (blueTooth)
               calls direct
    -------------------------------------------------------------------------
<CODE> 2 (was CODE)
  Relative segment, address: 00015496 - 00015521 (0x8c bytes), align: 1
  Segment part 35.
           ENTRY                   ADDRESS         REF BY
           =====                   =======         ======
           UART2_RecvLineWait      00015496        BLE_RecvLineTry (blueTooth)
                                                   SPPTX (blueTooth)
               calls direct
    -------------------------------------------------------------------------
<CODE> 2 (was CODE)
  Relative segment, address: 000155AE - 00015637 (0x8a bytes), align: 1
  Segment part 36.
           ENTRY                   ADDRESS         REF BY
           =====                   =======         ======
           UART2_RecvLineLongWait
                                   000155AE        camera_AckRead (camera)
                                                   camera_DatapackRead (camera)
                                                   camera_InfoRead (camera)
               calls direct
    -------------------------------------------------------------------------
ISR_CODE
  Relative segment, address: 8692 - 886D (0x1dc bytes), align: 1
  Segment part 37.            Intra module refs:   UART2_RX_ISR::??INTVEC 104
           ENTRY                   ADDRESS         REF BY
           =====                   =======         ======
           UART2_RX_ISR            8692 
               interrupt function
               calls direct
    -------------------------------------------------------------------------
INTVEC
  Common segment, address: FF80 - FFE9 (0x6a bytes), align: 1
  Segment part 11. ROOT 
           ENTRY                   ADDRESS         REF BY
           =====                   =======         ======
           UART2_RX_ISR::??INTVEC 104
                                   FFE8 
    -------------------------------------------------------------------------
DATA16_ID
  Relative segment, address: 7ADE - 7ADF (0x2 bytes), align: 1
  Segment part 25.            Intra module refs:   line_len
    -------------------------------------------------------------------------
DATA16_C
  Relative segment, address: 7876 - 7887 (0x12 bytes), align: 0
  Segment part 13.            Intra module refs:   UART2_RecvLineTry
           LOCAL                   ADDRESS         
           =====                   =======         
           UART2_RecvLineTry::__FUNCTION__
                                   7876 
    -------------------------------------------------------------------------
DATA16_C
  Relative segment, address: 7888 - 7894 (0xd bytes), align: 0
  Segment part 14.            Intra module refs:   UART2_RX_ISR
           LOCAL                   ADDRESS         
           =====                   =======         
           UART2_RX_ISR::__FUNCTION__
                                   7888 
    -------------------------------------------------------------------------
DATA16_C
  Relative segment, address: 7895 - 78B5 (0x21 bytes), align: 0
  Segment part 15.            Intra module refs:   UART2_RX_ISR

    *************************************************************************

  FILE NAME : \\Mac\Home\work\ETL\Debug\Obj\uart3.r43
  PROGRAM MODULE, NAME : uart3

  SEGMENTS IN THE MODULE
  ======================
DATA16_AN
  Relative segment, address: 0680 - 0681 (0x2 bytes), align: 0
  Segment part 3. ROOT        Intra module refs:   UART3_Open
           ENTRY                   ADDRESS         REF BY
           =====                   =======         ======
           _A_UCA3CTLW0_L          0680 
           LOCAL                   ADDRESS         
           =====                   =======         
           UCA3CTLW0               0680 
           UCA3CTLW0_H             0681 
           UCA3CTLW0_L             0680 
    -------------------------------------------------------------------------
DATA16_AN
  Relative segment, address: 0686 - 0687 (0x2 bytes), align: 0
  Segment part 4. ROOT        Intra module refs:   UART3_Open
           ENTRY                   ADDRESS         REF BY
           =====                   =======         ======
           _A_UCA3BRW_L            0686 
           LOCAL                   ADDRESS         
           =====                   =======         
           UCA3BRW                 0686 
           UCA3BRW_H               0687 
           UCA3BRW_L               0686 
    -------------------------------------------------------------------------
DATA16_AN
  Relative segment, address: 0688 - 0688 (0x1 bytes), align: 0
  Segment part 5. ROOT        Intra module refs:   UART3_Open
           ENTRY                   ADDRESS         REF BY
           =====                   =======         ======
           UCA3MCTL                0688 
    -------------------------------------------------------------------------
DATA16_AN
  Relative segment, address: 068C - 068C (0x1 bytes), align: 0
  Segment part 6. ROOT        Intra module refs:   UART3_RX_ISR
           ENTRY                   ADDRESS         REF BY
           =====                   =======         ======
           UCA3RXBUF               068C 
    -------------------------------------------------------------------------
DATA16_AN
  Relative segment, address: 068E - 068E (0x1 bytes), align: 0
  Segment part 7. ROOT        Intra module refs:   UART3_Send
                                                   putchar
           ENTRY                   ADDRESS         REF BY
           =====                   =======         ======
           UCA3TXBUF               068E 
    -------------------------------------------------------------------------
DATA16_AN
  Relative segment, address: 069C - 069D (0x2 bytes), align: 0
  Segment part 8. ROOT        Intra module refs:   UART3_Close
                                                   UART3_Open
                                                   UART3_Send
                                                   putchar
           ENTRY                   ADDRESS         REF BY
           =====                   =======         ======
           _A_UCA3ICTL_L           069C 
           LOCAL                   ADDRESS         
           =====                   =======         
           UCA3ICTL                069C 
           UCA3ICTL_H              069D 
           UCA3ICTL_L              069C 
    -------------------------------------------------------------------------
DATA16_Z
  Relative segment, address: 1D6C - 1D6D (0x2 bytes), align: 1
  Segment part 14.            Intra module refs:   UART3_ClearBuffer
                                                   UART3_Send
           ENTRY                   ADDRESS         REF BY
           =====                   =======         ======
           UART3_Tx_Buf            1D6C 
    -------------------------------------------------------------------------
DATA16_Z
  Relative segment, address: 2B1A - 2E39 (0x320 bytes), align: 0
  Segment part 15.            Intra module refs:   UART3_RX_ISR
                                                   UART3_RecvLineTry
           ENTRY                   ADDRESS         REF BY
           =====                   =======         ======
           UART3_Rx_Buffer         2B1A 
    -------------------------------------------------------------------------
DATA16_Z
  Relative segment, address: 1D6E - 1D71 (0x4 bytes), align: 1
  Segment part 16.            Intra module refs:   UART3_ClearBuffer
                                                   UART3_RX_ISR
                                                   UART3_RecvLineTry
           ENTRY                   ADDRESS         REF BY
           =====                   =======         ======
           UART3_Rx_BufLen         1D6E 
    -------------------------------------------------------------------------
DATA16_Z
  Relative segment, address: 1D72 - 1D73 (0x2 bytes), align: 1
  Segment part 17.            Intra module refs:   UART3_ClearBuffer
                                                   UART3_RX_ISR
           ENTRY                   ADDRESS         REF BY
           =====                   =======         ======
           UART3_Rx_INTIndex       1D72 
    -------------------------------------------------------------------------
DATA16_Z
  Relative segment, address: 1D74 - 1D75 (0x2 bytes), align: 1
  Segment part 18.            Intra module refs:   UART3_ClearBuffer
                                                   UART3_RX_ISR
           ENTRY                   ADDRESS         REF BY
           =====                   =======         ======
           UART3_Rx_INTLen         1D74 
    -------------------------------------------------------------------------
DATA16_Z
  Relative segment, address: 1D76 - 1D77 (0x2 bytes), align: 1
  Segment part 19.            Intra module refs:   UART3_ClearBuffer
                                                   UART3_RecvLineTry
           ENTRY                   ADDRESS         REF BY
           =====                   =======         ======
           UART3_Rx_RecvIndex      1D76 
    -------------------------------------------------------------------------
DATA16_Z
  Relative segment, address: 1D78 - 1D79 (0x2 bytes), align: 1
  Segment part 20.            Intra module refs:   UART3_ClearBuffer
                                                   UART3_Send
           ENTRY                   ADDRESS         REF BY
           =====                   =======         ======
           UART3_Tx_Flag           1D78 
    -------------------------------------------------------------------------
DATA16_Z
  Relative segment, address: 1D7A - 1D7B (0x2 bytes), align: 1
  Segment part 21.            Intra module refs:   UART3_ClearBuffer
                                                   UART3_Send
           ENTRY                   ADDRESS         REF BY
           =====                   =======         ======
           UART3_Tx_Len            1D7A 
    -------------------------------------------------------------------------
DATA16_Z
  Relative segment, address: 2E3A - 2E3A (0x1 bytes), align: 0
  Segment part 22.            Intra module refs:   UART3_RX_ISR
           ENTRY                   ADDRESS         REF BY
           =====                   =======         ======
           Is_uart3_RX_INT         2E3A            Hydrology_ProcessUARTReceieve (uart_config)
    -------------------------------------------------------------------------
DATA16_Z
  Relative segment, address: 1D7C - 1D7D (0x2 bytes), align: 1
  Segment part 23.            Intra module refs:   UART3_Open
                                                   UART3_RX_ISR
           LOCAL                   ADDRESS         
           =====                   =======         
           s_uart3_type            1D7C 
    -------------------------------------------------------------------------
<CODE> 2 (was CODE)
  Relative segment, address: 00018A5E - 00018A95 (0x38 bytes), align: 1
  Segment part 25.
           ENTRY                   ADDRESS         REF BY
           =====                   =======         ======
           UART3_Open              00018A5E        Console_Open (Console)
                                                   HydrologySample (hydrologytask)
               calls direct
    -------------------------------------------------------------------------
<CODE> 2 (was CODE)
  Relative segment, address: 00019B88 - 00019B91 (0xa bytes), align: 1
  Segment part 27.
           ENTRY                   ADDRESS         REF BY
           =====                   =======         ======
           UART3_Close             00019B88        Console_Close (Console)
               calls direct
    -------------------------------------------------------------------------
<CODE> 2 (was CODE)
  Relative segment, address: 00018DAA - 00018DDB (0x32 bytes), align: 1
  Segment part 24.            Intra module refs:   UART3_Close
                                                   UART3_Open
           ENTRY                   ADDRESS         REF BY
           =====                   =======         ======
           UART3_ClearBuffer       00018DAA        WIFI_ClearBuffer (wifi_config)
                                                   WIFI_Write (wifi_config)
               calls direct
    -------------------------------------------------------------------------
<CODE> 2 (was CODE)
  Relative segment, address: 00014DC4 - 00014E57 (0x94 bytes), align: 1
  Segment part 28.
           ENTRY                   ADDRESS         REF BY
           =====                   =======         ======
           UART3_Send              00014DC4        Console_WriteBytes (Console)
                                                   Console_WriteBytesln (Console)
                                                   Console_WriteString (Console)
                                                   Console_WriteStringln (Console)
                                                   WIFI_Write (wifi_config)
               calls direct
    -------------------------------------------------------------------------
<CODE> 2 (was CODE)
  Relative segment, address: 000148DE - 0001497F (0xa2 bytes), align: 1
  Segment part 31.
           ENTRY                   ADDRESS         REF BY
           =====                   =======         ======
           UART3_RecvLineTry       000148DE        Hydrology_ProcessUARTReceieve (uart_config)
                                                   WIFI_RecvLineTry (wifi_config)
               calls direct
    -------------------------------------------------------------------------
ISR_CODE
  Relative segment, address: 886E - 8959 (0xec bytes), align: 1
  Segment part 35.            Intra module refs:   UART3_RX_ISR::??INTVEC 88
           ENTRY                   ADDRESS         REF BY
           =====                   =======         ======
           UART3_RX_ISR            886E 
               interrupt function
               calls direct
    -------------------------------------------------------------------------
<CODE> 2 (was CODE)
  Relative segment, address: 00019AEC - 00019AF7 (0xc bytes), align: 1
  Segment part 34.
           ENTRY                   ADDRESS         REF BY
           =====                   =======         ======
           putchar                 00019AEC        _Prout (?xprout)
    -------------------------------------------------------------------------
INTVEC
  Common segment, address: FF80 - FFD9 (0x5a bytes), align: 1
  Segment part 9. ROOT 
           ENTRY                   ADDRESS         REF BY
           =====                   =======         ======
           UART3_RX_ISR::??INTVEC 88
                                   FFD8 
    -------------------------------------------------------------------------
DATA16_C
  Relative segment, address: 78B6 - 78C7 (0x12 bytes), align: 0
  Segment part 11.            Intra module refs:   UART3_RecvLineTry
           LOCAL                   ADDRESS         
           =====                   =======         
           UART3_RecvLineTry::__FUNCTION__
                                   78B6 

    *************************************************************************

  FILE NAME : \\Mac\Home\work\ETL\Debug\Obj\uart_config.r43
  PROGRAM MODULE, NAME : uart_config

  SEGMENTS IN THE MODULE
  ======================
DATA16_Z
  Relative segment, address: 2E3B - 2E3B (0x1 bytes), align: 0
  Segment part 10.            Intra module refs:   Hydrology_ProcessBLEReceieve
                                                   Hydrology_ProcessUARTReceieve
           ENTRY                   ADDRESS         REF BY
           =====                   =======         ======
           isUARTConfig            2E3B            Hydrology_SendData (message)
    -------------------------------------------------------------------------
<CODE> 2 (was CODE)
  Relative segment, address: 000161D0 - 0001624F (0x80 bytes), align: 1
  Segment part 11.            Intra module refs:   Hydrology_InitWaitConfig
           ENTRY                   ADDRESS         REF BY
           =====                   =======         ======
           Hydrology_ProcessUARTReceieve
                                   000161D0        HydrologyTask (hydrologytask)
               calls direct
    -------------------------------------------------------------------------
<CODE> 2 (was CODE)
  Relative segment, address: 00014798 - 0001483B (0xa4 bytes), align: 1
  Segment part 12.            Intra module refs:   Hydrology_InitWaitConfig
           ENTRY                   ADDRESS         REF BY
           =====                   =======         ======
           Hydrology_ProcessBLEReceieve
                                   00014798 
               calls direct and indirect
    -------------------------------------------------------------------------
<CODE> 2 (was CODE)
  Relative segment, address: 000156C2 - 0001574B (0x8a bytes), align: 1
  Segment part 13.
           ENTRY                   ADDRESS         REF BY
           =====                   =======         ======
           Hydrology_InitWaitConfig
                                   000156C2        main (main)
               calls direct and indirect
    -------------------------------------------------------------------------
DATA16_C
  Relative segment, address: 78C8 - 78E5 (0x1e bytes), align: 0
  Segment part 2.             Intra module refs:   Hydrology_ProcessUARTReceieve
           LOCAL                   ADDRESS         
           =====                   =======         
           Hydrology_ProcessUARTReceieve::__FUNCTION__
                                   78C8 
    -------------------------------------------------------------------------
DATA16_C
  Relative segment, address: 78E6 - 7902 (0x1d bytes), align: 0
  Segment part 3.             Intra module refs:   Hydrology_ProcessBLEReceieve
           LOCAL                   ADDRESS         
           =====                   =======         
           Hydrology_ProcessBLEReceieve::__FUNCTION__
                                   78E6 
    -------------------------------------------------------------------------
DATA16_C
  Relative segment, address: 7903 - 7910 (0xe bytes), align: 0
  Segment part 4.             Intra module refs:   Hydrology_ProcessBLEReceieve
    -------------------------------------------------------------------------
DATA16_C
  Relative segment, address: 7911 - 791F (0xf bytes), align: 0
  Segment part 5.             Intra module refs:   Hydrology_ProcessBLEReceieve
    -------------------------------------------------------------------------
DATA16_C
  Relative segment, address: 7920 - 7938 (0x19 bytes), align: 0
  Segment part 6.             Intra module refs:   Hydrology_InitWaitConfig
           LOCAL                   ADDRESS         
           =====                   =======         
           Hydrology_InitWaitConfig::__FUNCTION__
                                   7920 
    -------------------------------------------------------------------------
DATA16_C
  Relative segment, address: 7939 - 7963 (0x2b bytes), align: 0
  Segment part 7.             Intra module refs:   Hydrology_InitWaitConfig
    -------------------------------------------------------------------------
DATA16_C
  Relative segment, address: 7964 - 7977 (0x14 bytes), align: 0
  Segment part 8.             Intra module refs:   Hydrology_InitWaitConfig
    -------------------------------------------------------------------------
DATA16_C
  Relative segment, address: 7978 - 7987 (0x10 bytes), align: 0
  Segment part 9.             Intra module refs:   Hydrology_InitWaitConfig

    *************************************************************************

  FILE NAME : \\Mac\Home\work\ETL\Debug\Obj\ucs.r43
    *************************************************************************

  FILE NAME : \\Mac\Home\work\ETL\Debug\Obj\usci_a_spi.r43
    *************************************************************************

  FILE NAME : \\Mac\Home\work\ETL\Debug\Obj\usci_a_uart.r43
    *************************************************************************

  FILE NAME : \\Mac\Home\work\ETL\Debug\Obj\usci_b_i2c.r43
    *************************************************************************

  FILE NAME : \\Mac\Home\work\ETL\Debug\Obj\usci_b_spi.r43
    *************************************************************************

  FILE NAME : \\Mac\Home\work\ETL\Debug\Obj\wdt_a.r43
    *************************************************************************

  FILE NAME : \\Mac\Home\work\ETL\Debug\Obj\wifi_config.r43
  PROGRAM MODULE, NAME : wifi_config

  SEGMENTS IN THE MODULE
  ======================
DATA16_Z
  Relative segment, address: 1D7E - 1D7F (0x2 bytes), align: 1
  Segment part 69.            Intra module refs:   WIFI_Close
                                                   WIFI_Open
           ENTRY                   ADDRESS         REF BY
           =====                   =======         ======
           WIFI_Inited_Flag        1D7E            Console_WriteBytes (Console)
                                                   Console_WriteBytesln (Console)
                                                   Console_WriteString (Console)
                                                   Console_WriteStringln (Console)
    -------------------------------------------------------------------------
DATA16_Z
  Relative segment, address: 1D80 - 1D81 (0x2 bytes), align: 1
  Segment part 70.
           ENTRY                   ADDRESS         REF BY
           =====                   =======         ======
           g_wifi_connetflag       1D80            Console_WriteBytes (Console)
                                                   Console_WriteBytesln (Console)
                                                   Console_WriteString (Console)
                                                   Console_WriteStringln (Console)
    -------------------------------------------------------------------------
DATA16_Z
  Relative segment, address: 1D82 - 1D83 (0x2 bytes), align: 1
  Segment part 71.            Intra module refs:   WIFI_SendData
           ENTRY                   ADDRESS         REF BY
           =====                   =======         ======
           g_wifi_index            1D82 
    -------------------------------------------------------------------------
DATA16_I
  Relative segment, address: 1C5B - 1C64 (0xa bytes), align: 0
  Segment part 72.            Intra module refs:   WIFI_InitCmd
           ENTRY                   ADDRESS         REF BY
           =====                   =======         ======
           g_ssidname              1C5B 
    -------------------------------------------------------------------------
DATA16_I
  Relative segment, address: 1C65 - 1C6E (0xa bytes), align: 0
  Segment part 74.            Intra module refs:   WIFI_InitCmd
           ENTRY                   ADDRESS         REF BY
           =====                   =======         ======
           g_wifipwd               1C65 
    -------------------------------------------------------------------------
<CODE> 2 (was CODE)
  Relative segment, address: 0001969E - 000196B7 (0x1a bytes), align: 1
  Segment part 80.            Intra module refs:   WIFI_InitCmd
                                                   WIFI_SendData
                                                   WIFI_Server_Start
           ENTRY                   ADDRESS         REF BY
           =====                   =======         ======
           WIFI_Write              0001969E 
               calls direct
    -------------------------------------------------------------------------
<CODE> 2 (was CODE)
  Relative segment, address: 00015F40 - 00015FC3 (0x84 bytes), align: 1
  Segment part 81.            Intra module refs:   WIFI_Open
           ENTRY                   ADDRESS         REF BY
           =====                   =======         ======
           WIFI_InitCmd            00015F40 
               calls direct
    -------------------------------------------------------------------------
<CODE> 2 (was CODE)
  Relative segment, address: 00017AEC - 00017B3D (0x52 bytes), align: 1
  Segment part 82.            Intra module refs:   WIFI_Open
           ENTRY                   ADDRESS         REF BY
           =====                   =======         ======
           WIFI_Server_Start       00017AEC 
               calls direct
    -------------------------------------------------------------------------
<CODE> 2 (was CODE)
  Relative segment, address: 00016048 - 000160CB (0x84 bytes), align: 1
  Segment part 84.            Intra module refs:   WIFI_SendData
           ENTRY                   ADDRESS         REF BY
           =====                   =======         ======
           WIFI_WaitSendResult     00016048 
               calls direct
    -------------------------------------------------------------------------
<CODE> 2 (was CODE)
  Relative segment, address: 000164BE - 00016537 (0x7a bytes), align: 1
  Segment part 86.
           ENTRY                   ADDRESS         REF BY
           =====                   =======         ======
           WIFI_Open               000164BE        Select_Debug_Mode (common)
               calls direct
    -------------------------------------------------------------------------
<CODE> 2 (was CODE)
  Relative segment, address: 00014452 - 000144FF (0xae bytes), align: 1
  Segment part 87.
           ENTRY                   ADDRESS         REF BY
           =====                   =======         ======
           WIFI_SendData           00014452        Console_WriteBytes (Console)
                                                   Console_WriteBytesln (Console)
                                                   Console_WriteString (Console)
                                                   Console_WriteStringln (Console)
               calls direct
    -------------------------------------------------------------------------
<CODE> 2 (was CODE)
  Relative segment, address: 00019A52 - 00019A5F (0xe bytes), align: 1
  Segment part 91.
           ENTRY                   ADDRESS         REF BY
           =====                   =======         ======
           WIFI_Close              00019A52        Select_Debug_Mode (common)
    -------------------------------------------------------------------------
<CODE> 2 (was CODE)
  Relative segment, address: 00019C94 - 00019C97 (0x4 bytes), align: 1
  Segment part 85.            Intra module refs:   WIFI_Open
                                                   WIFI_SendData
           ENTRY                   ADDRESS         REF BY
           =====                   =======         ======
           WIFI_ClearBuffer        00019C94 
               calls direct
    -------------------------------------------------------------------------
<CODE> 2 (was CODE)
  Relative segment, address: 00019C9C - 00019C9F (0x4 bytes), align: 1
  Segment part 96.            Intra module refs:   WIFI_WaitSendResult
           ENTRY                   ADDRESS         REF BY
           =====                   =======         ======
           WIFI_RecvLineTry        00019C9C 
               calls direct
    -------------------------------------------------------------------------
DATA16_ID
  Relative segment, address: 7AED - 7AF6 (0xa bytes), align: 0
  Segment part 73.            Intra module refs:   g_ssidname
    -------------------------------------------------------------------------
DATA16_ID
  Relative segment, address: 7AF7 - 7B00 (0xa bytes), align: 0
  Segment part 75.            Intra module refs:   g_wifipwd
    -------------------------------------------------------------------------
DATA16_C
  Relative segment, address: 7988 - 7993 (0xc bytes), align: 0
  Segment part 6.             Intra module refs:   WIFI_InitCmd
    -------------------------------------------------------------------------
DATA16_C
  Relative segment, address: 7994 - 79AA (0x17 bytes), align: 0
  Segment part 7.             Intra module refs:   WIFI_InitCmd
    -------------------------------------------------------------------------
DATA16_C
  Relative segment, address: 79AB - 79B1 (0x7 bytes), align: 0
  Segment part 8.             Intra module refs:   WIFI_InitCmd
    -------------------------------------------------------------------------
DATA16_C
  Relative segment, address: 79B2 - 79B6 (0x5 bytes), align: 0
  Segment part 9.             Intra module refs:   WIFI_Server_Start
    -------------------------------------------------------------------------
DATA16_C
  Relative segment, address: 79B7 - 79C2 (0xc bytes), align: 0
  Segment part 10.            Intra module refs:   WIFI_Server_Start
    -------------------------------------------------------------------------
DATA16_C
  Relative segment, address: 79C3 - 79D6 (0x14 bytes), align: 0
  Segment part 11.            Intra module refs:   WIFI_Server_Start
    -------------------------------------------------------------------------
DATA16_C
  Relative segment, address: 79D7 - 79D9 (0x3 bytes), align: 0
  Segment part 21.            Intra module refs:   WIFI_WaitSendResult
    -------------------------------------------------------------------------
DATA16_C
  Relative segment, address: 79DA - 79DF (0x6 bytes), align: 0
  Segment part 22.            Intra module refs:   WIFI_WaitSendResult
    -------------------------------------------------------------------------
DATA16_C
  Relative segment, address: 79E0 - 79E9 (0xa bytes), align: 0
  Segment part 23.            Intra module refs:   WIFI_Open
           LOCAL                   ADDRESS         
           =====                   =======         
           WIFI_Open::__FUNCTION__
                                   79E0 
    -------------------------------------------------------------------------
DATA16_C
  Relative segment, address: 79EA - 79F4 (0xb bytes), align: 0
  Segment part 24.            Intra module refs:   WIFI_Open
    -------------------------------------------------------------------------
DATA16_C
  Relative segment, address: 79F5 - 7A08 (0x14 bytes), align: 0
  Segment part 25.            Intra module refs:   WIFI_Open
    -------------------------------------------------------------------------
DATA16_C
  Relative segment, address: 7A09 - 7A1C (0x14 bytes), align: 0
  Segment part 26.            Intra module refs:   WIFI_Open
    -------------------------------------------------------------------------
DATA16_C
  Relative segment, address: 7A1D - 7A2D (0x11 bytes), align: 0
  Segment part 28.            Intra module refs:   WIFI_SendData

    *************************************************************************

  FILE NAME : C:\Program Files (x86)\IAR Systems\Embedded Workbench 8.0\430\lib\dlib\dl430xlsfn.r43
  LIBRARY MODULE, NAME : ?__dbg_break

  SEGMENTS IN THE MODULE
  ======================
<CODE> 1 (was CODE)
  Relative segment, address: FF7E - FF7F (0x2 bytes), align: 1
  Segment part 2.
           ENTRY                   ADDRESS         REF BY
           =====                   =======         ======
           __DebugBreak            FF7E            __exit (?__exit)

    -------------------------------------------------------------------------
  LIBRARY MODULE, NAME : ?__exit

  SEGMENTS IN THE MODULE
  ======================
<CODE> 2 (was CODE)
  Relative segment, address: 00019856 - 00019869 (0x14 bytes), align: 1
  Segment part 2.
           ENTRY                   ADDRESS         REF BY
           =====                   =======         ======
           __exit                  00019856        Segment part 6 (?_exit)
                                                   _exit (?_exit)
               calls direct

    -------------------------------------------------------------------------
  LIBRARY MODULE, NAME : ?atoi

  SEGMENTS IN THE MODULE
  ======================
<CODE> 2 (was CODE)
  Relative segment, address: 00019B9C - 00019BA5 (0xa bytes), align: 1
  Segment part 2.
           ENTRY                   ADDRESS         REF BY
           =====                   =======         ======
           atoi                    00019B9C        GPRS_AT_CheckSimStat_Response (GTM900C)
                                                   GPRS_AT_CloseTCPLink_Response (GTM900C)
                                                   GPRS_AT_QueryIP_Response (GTM900C)
                                                   GPRS_AT_QueryOperater_Response (GTM900C)
                                                   GPRS_AT_QueryRemainData_Response (GTM900C)
                                                   GPRS_AT_QueryTCPLink_Response (GTM900C)
                                                   GPRS_AT_QuitGPRSNet_Response (GTM900C)
                                                   GPRS_SubProc_AT_ResponseTwo (GTM900C)
                                                   GRPS_AT_Receive_Response (GTM900C)
                                                   GRPS_AT_Send_Response (GTM900C)
               calls direct

    -------------------------------------------------------------------------
  LIBRARY MODULE, NAME : ?_exit

  SEGMENTS IN THE MODULE
  ======================
<CODE> 2 (was CODE)
  Relative segment, address: 00019CB4, align: 1
  Segment part 0.
           ENTRY                   ADDRESS         REF BY
           =====                   =======         ======
           _exit                   00019CB4        exit (?exit)
    -------------------------------------------------------------------------
<CODE> 2 (was CODE)
  Relative segment, address: 00019CB4 - 00019CB7 (0x4 bytes), align: 1
  Segment part 6.             Intra module refs:   _exit

    -------------------------------------------------------------------------
  LIBRARY MODULE, NAME : ?div64i

  SEGMENTS IN THE MODULE
  ======================
<CODE> 2 (was CODE)
  Relative segment, address: 00014A22 - 00014AC3 (0xa2 bytes), align: 1
  Segment part 2.
           ENTRY                   ADDRESS         REF BY
           =====                   =======         ======
           _Div64u                 00014A22        ROM_ReadBytes (rom)
                                                   ROM_WriteBytes (rom)
                                                   _LitobFullNoMb (?xprintffull_nomb)
    -------------------------------------------------------------------------
<CODE> 2 (was CODE)
  Relative segment, address: 00019684 - 0001969D (0x1a bytes), align: 1
  Segment part 4.             Intra module refs:   _Div64u

    -------------------------------------------------------------------------
  LIBRARY MODULE, NAME : ?div

  SEGMENTS IN THE MODULE
  ======================
<CODE> 2 (was CODE)
  Relative segment, address: 00019804 - 00019819 (0x16 bytes), align: 1
  Segment part 0.
           ENTRY                   ADDRESS         REF BY
           =====                   =======         ======
           div                     00019804        _GenldFullNoMb (?xprintffull_nomb)

    -------------------------------------------------------------------------
  LIBRARY MODULE, NAME : ?errno

  SEGMENTS IN THE MODULE
  ======================
DATA16_Z
  Relative segment, address: 1D84 - 1D85 (0x2 bytes), align: 1
  Segment part 2.
           ENTRY                   ADDRESS         REF BY
           =====                   =======         ======
           __iar_Errno             1D84            __iar_Stoulx (?xstoul)

    -------------------------------------------------------------------------
  LIBRARY MODULE, NAME : ?exit

  SEGMENTS IN THE MODULE
  ======================
<CODE> 2 (was CODE)
  Relative segment, address: 00019CC8 - 00019CCB (0x4 bytes), align: 1
  Segment part 2.
           ENTRY                   ADDRESS         REF BY
           =====                   =======         ======
           exit                    00019CC8        Segment part 27 (?cstart)
                                                   WriteFlashInBank (flash)
               calls direct

    -------------------------------------------------------------------------
  LIBRARY MODULE, NAME : ?Mul32fHw32

  SEGMENTS IN THE MODULE
  ======================
<CODE> 2 (was CODE)
  Relative segment, address: 000124D0 - 000125E5 (0x116 bytes), align: 1
  Segment part 0.
           ENTRY                   ADDRESS         REF BY
           =====                   =======         ======
           ?Mul32fHw32             000124D0        ConvertAnalog (hydrologytask)
                                                   _LdtobFullNoMb (?xprintffull_nomb)
                                                   scale (?xprintffull_nomb)

    -------------------------------------------------------------------------
  LIBRARY MODULE, NAME : ?Cast32f32i

  SEGMENTS IN THE MODULE
  ======================
<CODE> 2 (was CODE)
  Relative segment, address: 000150A8 - 000150BB (0x14 bytes), align: 1
  Segment part 0.
           ENTRY                   ADDRESS         REF BY
           =====                   =======         ======
           _Cast32sto32f           000150A8        ConvertAnalog (hydrologytask)
                                                   HydrologySaveData (hydrologytask)
                                                   Hydrology_CalElementInfo (message)
                                                   _LdtobFullNoMb (?xprintffull_nomb)
    -------------------------------------------------------------------------
<CODE> 2 (was CODE)
  Relative segment, address: 000150BC - 00015139 (0x7e bytes), align: 1
  Segment part 1.             Intra module refs:   _Cast32sto32f
           ENTRY                   ADDRESS         REF BY
           =====                   =======         ======
           _Cast32uto32f           000150BC        ConvertAnalog (hydrologytask)
                                                   _LdtobFullNoMb (?xprintffull_nomb)

    -------------------------------------------------------------------------
  LIBRARY MODULE, NAME : _Cast32fto32u

  SEGMENTS IN THE MODULE
  ======================
<CODE> 2 (was CODE)
  Relative segment, address: 00019B40 - 00019B4B (0xc bytes), align: 1
  Segment part 0.
           ENTRY                   ADDRESS         REF BY
           =====                   =======         ======
           _Cast32fto32u           00019B40        _LdtobFullNoMb (?xprintffull_nomb)

    -------------------------------------------------------------------------
  LIBRARY MODULE, NAME : _Cast32fto32s

  SEGMENTS IN THE MODULE
  ======================
<CODE> 2 (was CODE)
  Relative segment, address: 00018D46 - 00018D77 (0x32 bytes), align: 1
  Segment part 0.
           ENTRY                   ADDRESS         REF BY
           =====                   =======         ======
           _Cast32fto32s           00018D46        _LdtobFullNoMb (?xprintffull_nomb)
                                                   getBCDnums (message)

    -------------------------------------------------------------------------
  LIBRARY MODULE, NAME : ?FLT_Extract

  SEGMENTS IN THE MODULE
  ======================
<CODE> 2 (was CODE)
  Relative segment, address: 00017DB4 - 00017DFF (0x4c bytes), align: 1
  Segment part 0.
           ENTRY                   ADDRESS         REF BY
           =====                   =======         ======
           ?FLT_Extract            00017DB4        _Cast32fto32s (_Cast32fto32s)
                                                   _Cast32fto32u (_Cast32fto32u)

    -------------------------------------------------------------------------
  LIBRARY MODULE, NAME : ?FLT_GE

  SEGMENTS IN THE MODULE
  ======================
<CODE> 2 (was CODE)
  Relative segment, address: 000178F6 - 0001794B (0x56 bytes), align: 1
  Segment part 0.
           ENTRY                   ADDRESS         REF BY
           =====                   =======         ======
           ?FLT_GE                 000178F6        _LdtobFullNoMb (?xprintffull_nomb)

    -------------------------------------------------------------------------
  LIBRARY MODULE, NAME : ?FLT_LT

  SEGMENTS IN THE MODULE
  ======================
<CODE> 2 (was CODE)
  Relative segment, address: 000179F6 - 00017A47 (0x52 bytes), align: 1
  Segment part 0.
           ENTRY                   ADDRESS         REF BY
           =====                   =======         ======
           ?FLT_LT                 000179F6        Segment part 19 (?xprintffull_nomb)

    -------------------------------------------------------------------------
  LIBRARY MODULE, NAME : _Div32f

  SEGMENTS IN THE MODULE
  ======================
<CODE> 2 (was CODE)
  Relative segment, address: 0001198C - 00011ABB (0x130 bytes), align: 1
  Segment part 0.
           ENTRY                   ADDRESS         REF BY
           =====                   =======         ======
           _Div32f                 0001198C        ConvertAnalog (hydrologytask)
                                                   _LdtobFullNoMb (?xprintffull_nomb)

    -------------------------------------------------------------------------
  LIBRARY MODULE, NAME : _Add32f

  SEGMENTS IN THE MODULE
  ======================
<CODE> 2 (was CODE)
  Relative segment, address: 000107AE - 000107B1 (0x4 bytes), align: 1
  Segment part 0.
           ENTRY                   ADDRESS         REF BY
           =====                   =======         ======
           _Sub32f                 000107AE        _LdtobFullNoMb (?xprintffull_nomb)
    -------------------------------------------------------------------------
<CODE> 2 (was CODE)
  Relative segment, address: 000107B2 - 00010911 (0x160 bytes), align: 1
  Segment part 1.             Intra module refs:   _Sub32f
           ENTRY                   ADDRESS         REF BY
           =====                   =======         ======
           _Add32f                 000107B2        ConvertAnalog (hydrologytask)

    -------------------------------------------------------------------------
  LIBRARY MODULE, NAME : ?DivMod816u

  SEGMENTS IN THE MODULE
  ======================
<CODE> 2 (was CODE)
  Relative segment, address: 000195E4 - 000195E7 (0x4 bytes), align: 1
  Segment part 0.
           ENTRY                   ADDRESS         REF BY
           =====                   =======         ======
           ?DivMod8u               000195E4        GPRS_AT_OpenTCPLink (GTM900C)
                                                   HydrologyTask (hydrologytask)
                                                   OpenTran (ec200)
                                                   _HEXtoBCD (rtc)
                                                   getguideid (message)
                                                   mallocElement (message)
    -------------------------------------------------------------------------
<CODE> 2 (was CODE)
  Relative segment, address: 000195E8 - 000195FF (0x18 bytes), align: 1
  Segment part 1.             Intra module refs:   ?DivMod8u
           ENTRY                   ADDRESS         REF BY
           =====                   =======         ======
           ?DivMod16u              000195E8        ?DivMod16s (?DivMod816s)
                                                   Utility_UintToStr4 (common)

    -------------------------------------------------------------------------
  LIBRARY MODULE, NAME : ?DivMod816s

  SEGMENTS IN THE MODULE
  ======================
<CODE> 2 (was CODE)
  Relative segment, address: 00018F62 - 00018F91 (0x30 bytes), align: 1
  Segment part 1.
           ENTRY                   ADDRESS         REF BY
           =====                   =======         ======
           ?DivMod16s              00018F62        CalcNextWakeupTime (lowpower)
                                                   GPRS_AT_OpenTCPLink (GTM900C)
                                                   OpenTran (ec200)
                                                   RS485_Send (hydrologycommand)
                                                   SleepIfWakeupAcceidently (lowpower)
                                                   Utility_Is_A_CheckTime (common)
                                                   Utility_Is_A_ReportTime (common)
                                                   Utility_Is_A_SaveTime (common)
                                                   _HEXtoBCD (rtc)
                                                   div (?div)
                                                   getEvenNum (message)
                                                   hydrologyGate (hydrologycommand)
                                                   mallocElement (message)
                                                   setWakeupInterval (main)

    -------------------------------------------------------------------------
  LIBRARY MODULE, NAME : ?DivMod32u

  SEGMENTS IN THE MODULE
  ======================
<CODE> 2 (was CODE)
  Relative segment, address: 00018F02 - 00018F31 (0x30 bytes), align: 1
  Segment part 0.
           ENTRY                   ADDRESS         REF BY
           =====                   =======         ======
           ?DivMod32u              00018F02        ?DivMod32s (?DivMod32s)
                                                   _LdtobFullNoMb (?xprintffull_nomb)
                                                   __iar_Stoulx (?xstoul)

    -------------------------------------------------------------------------
  LIBRARY MODULE, NAME : ?DivMod32s

  SEGMENTS IN THE MODULE
  ======================
<CODE> 2 (was CODE)
  Relative segment, address: 0001853E - 0001857D (0x40 bytes), align: 1
  Segment part 0.
           ENTRY                   ADDRESS         REF BY
           =====                   =======         ======
           ?DivMod32s              0001853E        _LdtobFullNoMb (?xprintffull_nomb)
                                                   getstreamid (message)

    -------------------------------------------------------------------------
  LIBRARY MODULE, NAME : ?ShiftLeft32_8n

  SEGMENTS IN THE MODULE
  ======================
<CODE> 2 (was CODE)
  Relative segment, address: 000199C0 - 000199C3 (0x4 bytes), align: 1
  Segment part 5.
           ENTRY                   ADDRESS         REF BY
           =====                   =======         ======
           ?ShiftLeft32_9          000199C0        WriteFlashInBank (flash)
    -------------------------------------------------------------------------
<CODE> 2 (was CODE)
  Relative segment, address: 000199C4 - 000199CF (0xc bytes), align: 1
  Segment part 6.             Intra module refs:   ?ShiftLeft32_9
           ENTRY                   ADDRESS         REF BY
           =====                   =======         ======
           ?ShiftLeft32_8          000199C4 

    -------------------------------------------------------------------------
  LIBRARY MODULE, NAME : ?ShiftRight32s

  SEGMENTS IN THE MODULE
  ======================
<CODE> 2 (was CODE)
  Relative segment, address: 000198B6 - 000198B9 (0x4 bytes), align: 1
  Segment part 4.
           ENTRY                   ADDRESS         REF BY
           =====                   =======         ======
           ?ShiftRight32s_4        000198B6        _LdtobFullNoMb (?xprintffull_nomb)
    -------------------------------------------------------------------------
<CODE> 2 (was CODE)
  Relative segment, address: 000198BA - 000198BD (0x4 bytes), align: 1
  Segment part 5.             Intra module refs:   ?ShiftRight32s_4
           ENTRY                   ADDRESS         REF BY
           =====                   =======         ======
           ?ShiftRight32s_3        000198BA 
    -------------------------------------------------------------------------
<CODE> 2 (was CODE)
  Relative segment, address: 000198BE - 000198C7 (0xa bytes), align: 1
  Segment part 6.             Intra module refs:   ?ShiftRight32s_3
           ENTRY                   ADDRESS         REF BY
           =====                   =======         ======
           ?ShiftRight32s_2        000198BE 

    -------------------------------------------------------------------------
  LIBRARY MODULE, NAME : ?ShiftRight32u_8n

  SEGMENTS IN THE MODULE
  ======================
<CODE> 2 (was CODE)
  Relative segment, address: 00019940 - 00019943 (0x4 bytes), align: 1
  Segment part 5.
           ENTRY                   ADDRESS         REF BY
           =====                   =======         ======
           ?ShiftRight32u_9        00019940        WriteFlashInBank (flash)
                                                   camera_PacketSend (camera)
    -------------------------------------------------------------------------
<CODE> 2 (was CODE)
  Relative segment, address: 00019944 - 0001994F (0xc bytes), align: 1
  Segment part 6.             Intra module refs:   ?ShiftRight32u_9
           ENTRY                   ADDRESS         REF BY
           =====                   =======         ======
           ?ShiftRight32u_8        00019944 

    -------------------------------------------------------------------------
  LIBRARY MODULE, NAME : ?memchr

  SEGMENTS IN THE MODULE
  ======================
<CODE> 2 (was CODE)
  Relative segment, address: 0001987E - 00019891 (0x14 bytes), align: 1
  Segment part 2.
           ENTRY                   ADDRESS         REF BY
           =====                   =======         ======
           __iar_Memchr            0001987E        _PrintfFullNoMb (?xprintffull_nomb)
                                                   __iar_Stoulx (?xstoul)

    -------------------------------------------------------------------------
  LIBRARY MODULE, NAME : ?memcpy

  SEGMENTS IN THE MODULE
  ======================
<CODE> 2 (was CODE)
  Relative segment, address: 000198FE - 0001990F (0x12 bytes), align: 1
  Segment part 2.
           ENTRY                   ADDRESS         REF BY
           =====                   =======         ======
           memcpy                  000198FE        ADC_Element (hydrologytask)
                                                   GPRS_AT_OpenTCPLink (GTM900C)
                                                   HydrologySample (hydrologytask)
                                                   HydrologySaveData (hydrologytask)
                                                   Hydrology_CalElementInfo (message)
                                                   Hydrology_Reset (hydrologycommand)
                                                   OpenTran (ec200)
                                                   RS485_Read (hydrologycommand)
                                                   RS485_ValueDefine (hydrologycommand)
                                                   Segment part 12 (?xprintffull_nomb)
                                                   Store_ReadDataItem (store)
                                                   WriteFlashInBank (flash)
                                                   _GenldFullNoMb (?xprintffull_nomb)
                                                   _LdtobFullNoMb (?xprintffull_nomb)
                                                   __data16_memcpy (?memzero)
                                                   camera_PicturePacket (camera)
                                                   camera_PicturePacketInfo (camera)
                                                   converToHexElement (message)
                                                   hydrologyMakeDownBody (message)
                                                   hydrologyMakeDownHeader (message)
                                                   hydrologyMakeUpBody (message)
                                                   hydrologyMakeUpBodyBasicInfo (message)
                                                   hydrologyMakeUpTail (message)
                                                   hydrologySetPara (hydrologycommand)

    -------------------------------------------------------------------------
  LIBRARY MODULE, NAME : ?CopyMemoryBytes

  SEGMENTS IN THE MODULE
  ======================
<CODE> 2 (was CODE)
  Relative segment, address: 00019910 - 0001991F (0x10 bytes), align: 1
  Segment part 0.
           ENTRY                   ADDRESS         REF BY
           =====                   =======         ======
           ?CopyMemoryBytes        00019910        ATTEST (blueTooth)
                                                   BLE_ADVSTART (blueTooth)
                                                   BLE_ATE (blueTooth)
                                                   BLE_BLESP (blueTooth)
                                                   BLE_BLESPPCFG (blueTooth)
                                                   BLE_BLESPPEND (blueTooth)
                                                   BLE_CONNECT (blueTooth)
                                                   BLE_GATTSSRVCRE (blueTooth)
                                                   BLE_GATTSSRVSTART (blueTooth)
                                                   BLE_RST (blueTooth)
                                                   BLE_SERVER (blueTooth)
                                                   BLE_SERVER_INIT (blueTooth)
                                                   BLE_SetName (blueTooth)
                                                   GPRS_AT_ActiveGPRSNet (GTM900C)
                                                   GPRS_AT_CheckSimStat (GTM900C)
                                                   GPRS_AT_OpenTCPLink (GTM900C)
                                                   GPRS_AT_QueryIP (GTM900C)
                                                   GPRS_AT_QueryOperater (GTM900C)
                                                   GPRS_AT_SetAPN (GTM900C)
                                                   GPRS_AT_SetIOMode (GTM900C)
                                                   GSM_AT_CloseFeedback (GSM)
                                                   GSM_AT_ShutDown (GSM)
                                                   OpenTran (ec200)

    -------------------------------------------------------------------------
  LIBRARY MODULE, NAME : ?CopyMemoryWords

  SEGMENTS IN THE MODULE
  ======================
<CODE> 2 (was CODE)
  Relative segment, address: 00019970 - 0001997F (0x10 bytes), align: 1
  Segment part 0.
           ENTRY                   ADDRESS         REF BY
           =====                   =======         ======
           ?CopyMemoryWords        00019970        hex_2_ascii (common)

    -------------------------------------------------------------------------
  LIBRARY MODULE, NAME : ?ClearMemoryBytes

  SEGMENTS IN THE MODULE
  ======================
<CODE> 2 (was CODE)
  Relative segment, address: 000199B0 - 000199BF (0x10 bytes), align: 1
  Segment part 0.
           ENTRY                   ADDRESS         REF BY
           =====                   =======         ======
           ?ClearMemoryBytes       000199B0        CloseTran (ec200)
                                                   ExitTTMode (ec200)
                                                   OpenTran (ec200)
                                                   QueryCerg (ec200)
                                                   QuerySIMSignal (ec200)
                                                   SetNoEcho (ec200)
                                                   TransmissionActivation (ec200)
                                                   TransmissionConfiguration (ec200)
                                                   TransmissionDeactivation (ec200)
                                                   get_time (ec200)

    -------------------------------------------------------------------------
  LIBRARY MODULE, NAME : ?ClearMemoryWords

  SEGMENTS IN THE MODULE
  ======================
<CODE> 2 (was CODE)
  Relative segment, address: 000199A0 - 000199AF (0x10 bytes), align: 1
  Segment part 0.
           ENTRY                   ADDRESS         REF BY
           =====                   =======         ======
           ?ClearMemoryWords       000199A0        BLE_CONNECT (blueTooth)
                                                   GPRS_AT_QueryIP (GTM900C)
                                                   GPRS_AT_QueryOperater (GTM900C)
                                                   HydrologyInstantWaterLevel (hydrologytask)
                                                   HydrologySaveData (hydrologytask)
                                                   ROM_WriteBytes_Page (rom)
                                                   Store_ReadDataItem (store)
                                                   WIFI_InitCmd (wifi_config)
                                                   WIFI_WaitSendResult (wifi_config)
                                                   camera_PicturePacket (camera)

    -------------------------------------------------------------------------
  LIBRARY MODULE, NAME : ?memset

  SEGMENTS IN THE MODULE
  ======================
<CODE> 2 (was CODE)
  Relative segment, address: 000198A4 - 000198B5 (0x12 bytes), align: 1
  Segment part 2.
           ENTRY                   ADDRESS         REF BY
           =====                   =======         ======
           memset                  000198A4        Console_WriteHexCharln (Console)
                                                   Ec200GetNetworktime (ec200)
                                                   GPRS_AT_OpenTCPLink (GTM900C)
                                                   HydrologySample (hydrologytask)
                                                   Hydrology_ProcessBLEReceieve (uart_config)
                                                   Hydrology_ProcessUARTReceieve (uart_config)
                                                   OpenTran (ec200)
                                                   WIFI_InitCmd (wifi_config)
                                                   WIFI_WaitSendResult (wifi_config)
                                                   ble_waiting_query (blueTooth)
                                                   hydrologyInitReceieve (message)
                                                   hydrologyInitSend (message)
                                                   hydrologyProcessSend (message)
                                                   mallocElement (message)

    -------------------------------------------------------------------------
  LIBRARY MODULE, NAME : ?memzero

  SEGMENTS IN THE MODULE
  ======================
<CODE> 2 (was CODE)
  Relative segment, address: 00019990 - 0001999F (0x10 bytes), align: 1
  Segment part 2.
           ENTRY                   ADDRESS         REF BY
           =====                   =======         ======
           __data16_memzero        00019990        ?cstart_init_zero (?cstart)
    -------------------------------------------------------------------------
<CODE> 2 (was CODE)
  Relative segment, address: 00019C80 - 00019C83 (0x4 bytes), align: 1
  Segment part 3.
           ENTRY                   ADDRESS         REF BY
           =====                   =======         ======
           __data16_memcpy         00019C80        ?cstart_init_copy (?cstart)
               calls direct

    -------------------------------------------------------------------------
  LIBRARY MODULE, NAME : ?Mul8Hw

  SEGMENTS IN THE MODULE
  ======================
<CODE> 2 (was CODE)
  Relative segment, address: 0001940A - 0001940D (0x4 bytes), align: 1
  Segment part 0.
           ENTRY                   ADDRESS         REF BY
           =====                   =======         ======
           ?Mul8Hw                 0001940A        _LitobFullNoMb (?xprintffull_nomb)
    -------------------------------------------------------------------------
<CODE> 2 (was CODE)
  Relative segment, address: 0001940E - 00019429 (0x1c bytes), align: 1
  Segment part 1.             Intra module refs:   ?Mul8Hw
           ENTRY                   ADDRESS         REF BY
           =====                   =======         ======
           ?Mul16Hw                0001940E 
           ?Mul16to32uHw           0001940E 

    -------------------------------------------------------------------------
  LIBRARY MODULE, NAME : ?Mul16to32sHw

  SEGMENTS IN THE MODULE
  ======================
<CODE> 2 (was CODE)
  Relative segment, address: 000195AC - 000195C7 (0x1c bytes), align: 1
  Segment part 0.
           ENTRY                   ADDRESS         REF BY
           =====                   =======         ======
           ?Mul16to32sHw           000195AC        _LdtobFullNoMb (?xprintffull_nomb)

    -------------------------------------------------------------------------
  LIBRARY MODULE, NAME : ?Mul32Hw32

  SEGMENTS IN THE MODULE
  ======================
<CODE> 2 (was CODE)
  Relative segment, address: 0001926E - 00019291 (0x24 bytes), align: 1
  Segment part 0.
           ENTRY                   ADDRESS         REF BY
           =====                   =======         ======
           ?Mul32Hw32              0001926E        __iar_Stoulx (?xstoul)

    -------------------------------------------------------------------------
  LIBRARY MODULE, NAME : ?Mul64Hw32

  SEGMENTS IN THE MODULE
  ======================
<CODE> 2 (was CODE)
  Relative segment, address: 00017846 - 0001789D (0x58 bytes), align: 1
  Segment part 0.
           ENTRY                   ADDRESS         REF BY
           =====                   =======         ======
           ?Mul64Hw32              00017846        ROM_ReadBytes (rom)
                                                   ROM_WriteBytes (rom)
                                                   Store_MarkDataItemSended (store)

    -------------------------------------------------------------------------
  LIBRARY MODULE, NAME : ?printf

  SEGMENTS IN THE MODULE
  ======================
<CODE> 2 (was CODE)
  Relative segment, address: 00019164 - 00019189 (0x26 bytes), align: 1
  Segment part 2.
           ENTRY                   ADDRESS         REF BY
           =====                   =======         ======
           printf                  00019164        BLE_BLESPP (blueTooth)
                                                   BLE_BLESPPEND (blueTooth)
                                                   BLE_INIT (blueTooth)
                                                   BLE_MAIN (blueTooth)
                                                   BLE_Open (blueTooth)
                                                   BleDriverInstall (blueTooth)
                                                   CalcNextWakeupTime (lowpower)
                                                   Ec200CreateLink (ec200)
                                                   Ec200Poweron (ec200)
                                                   HydrologyDataPacketInit (hydrologytask)
                                                   HydrologyInstantWaterLevel (hydrologytask)
                                                   Hydrology_SendData (message)
                                                   Hydrology_TimeCheck (hydrologytask)
                                                   Port_2 (main)
                                                   ROM_WriteBytes_Page (rom)
                                                   ROM_WriteBytes_Page_ (rom)
                                                   Sampler_Init (Sampler)
                                                   SleepIfWakeupAcceidently (lowpower)
                                                   Store_WriteDataItemAuto (store)
                                                   TransmissionInit (ec200)
                                                   TryToSyncTime (hydrologytask)
                                                   UpdateDebugState (main)
                                                   WriteFlashInBank (flash)
                                                   ble_init (blueTooth)
                                                   ble_waiting_query (blueTooth)
                                                   camera_InfoRead (camera)
                                                   gotoSleepLPM3 (lowpower)
                                                   setWakeupInterval (main)
               calls direct

    -------------------------------------------------------------------------
  LIBRARY MODULE, NAME : ?IndCallR11

  SEGMENTS IN THE MODULE
  ======================
<CODE> 2 (was CODE)
  Relative segment, address: 00019C7C - 00019C7F (0x4 bytes), align: 1
  Segment part 0.
           ENTRY                   ADDRESS         REF BY
           =====                   =======         ======
           ?IndCallR11             00019C7C        _PutcharFullNoMb (?xprintffull_nomb)

    -------------------------------------------------------------------------
  LIBRARY MODULE, NAME : ?IndCallR15

  SEGMENTS IN THE MODULE
  ======================
<CODE> 2 (was CODE)
  Relative segment, address: 00019CB8 - 00019CBB (0x4 bytes), align: 1
  Segment part 0.
           ENTRY                   ADDRESS         REF BY
           =====                   =======         ======
           ?IndCallR15             00019CB8        Hydrology_InitWaitConfig (uart_config)
                                                   Hydrology_ProcessBLEReceieve (uart_config)
                                                   Hydrology_SendData (message)

    -------------------------------------------------------------------------
  LIBRARY MODULE, NAME : ?sprintf

  SEGMENTS IN THE MODULE
  ======================
<CODE> 2 (was CODE)
  Relative segment, address: 0001804A - 0001808F (0x46 bytes), align: 1
  Segment part 2.
           ENTRY                   ADDRESS         REF BY
           =====                   =======         ======
           sprintf                 0001804A        WIFI_InitCmd (wifi_config)
                                                   WIFI_SendData (wifi_config)
                                                   getBCDnums (message)
               calls direct

    -------------------------------------------------------------------------
  LIBRARY MODULE, NAME : ?strchr

  SEGMENTS IN THE MODULE
  ======================
<CODE> 2 (was CODE)
  Relative segment, address: 00019A44 - 00019A51 (0xe bytes), align: 1
  Segment part 2.
           ENTRY                   ADDRESS         REF BY
           =====                   =======         ======
           __iar_Strchr            00019A44        _PrintfFullNoMb (?xprintffull_nomb)

    -------------------------------------------------------------------------
  LIBRARY MODULE, NAME : ?strlen

  SEGMENTS IN THE MODULE
  ======================
<CODE> 2 (was CODE)
  Relative segment, address: 000198EC - 000198FD (0x12 bytes), align: 1
  Segment part 2.
           ENTRY                   ADDRESS         REF BY
           =====                   =======         ======
           strlen                  000198EC        _PrintfFullNoMb (?xprintffull_nomb)

    -------------------------------------------------------------------------
  LIBRARY MODULE, NAME : ?strstr

  SEGMENTS IN THE MODULE
  ======================
<CODE> 2 (was CODE)
  Relative segment, address: 00018C76 - 00018CA9 (0x34 bytes), align: 1
  Segment part 2.
           ENTRY                   ADDRESS         REF BY
           =====                   =======         ======
           __iar_Strstr            00018C76        strstr (BC95)

    -------------------------------------------------------------------------
  LIBRARY MODULE, NAME : ?xdscale

  SEGMENTS IN THE MODULE
  ======================
<CODE> 2 (was CODE)
  Relative segment, address: 0001537A - 00015407 (0x8e bytes), align: 1
  Segment part 2.
           ENTRY                   ADDRESS         REF BY
           =====                   =======         ======
           __iar_Dscale            0001537A        _LdtobFullNoMb (?xprintffull_nomb)

    -------------------------------------------------------------------------
  LIBRARY MODULE, NAME : ?xdunscal

  SEGMENTS IN THE MODULE
  ======================
<CODE> 2 (was CODE)
  Relative segment, address: 00018004 - 00018049 (0x46 bytes), align: 1
  Segment part 2.
           ENTRY                   ADDRESS         REF BY
           =====                   =======         ======
           __iar_Dunscale          00018004        _LdtobFullNoMb (?xprintffull_nomb)

    -------------------------------------------------------------------------
  LIBRARY MODULE, NAME : ?xgetmemchunk

  SEGMENTS IN THE MODULE
  ======================
<CODE> 2 (was CODE)
  Relative segment, address: 000194C4 - 000194E1 (0x1e bytes), align: 1
  Segment part 3.
           ENTRY                   ADDRESS         REF BY
           =====                   =======         ======
           __data16_GetMemChunk    000194C4        __data16_findmem (?xxmemxmalloc)
    -------------------------------------------------------------------------
DATA16_Z
  Relative segment, address: 1D86 - 1D87 (0x2 bytes), align: 1
  Segment part 2.             Intra module refs:   __data16_GetMemChunk
    -------------------------------------------------------------------------
DATA16_HEAP
  Relative segment, address: 2E3C, align: 1
  Segment part 4.

    -------------------------------------------------------------------------
  LIBRARY MODULE, NAME : ?xprintffull_nomb

  SEGMENTS IN THE MODULE
  ======================
<CODE> 1 (was CODE)
  Relative segment, address: C9D4 - CE73 (0x4a0 bytes), align: 1
  Segment part 23.
           ENTRY                   ADDRESS         REF BY
           =====                   =======         ======
           _PrintfFullNoMb         C9D4            printf (?printf)
                                                   sprintf (?sprintf)
               calls direct
    -------------------------------------------------------------------------
<CODE> 2 (was CODE)
  Relative segment, address: 00019322 - 00019329 (0x8 bytes), align: 1
  Segment part 27.            Intra module refs:   Segment part 30
                                                   _PrintfFullNoMb
    -------------------------------------------------------------------------
<CODE> 2 (was CODE)
  Relative segment, address: 0001932A - 00019331 (0x8 bytes), align: 1
  Segment part 28.            Intra module refs:   _PrintfFullNoMb
    -------------------------------------------------------------------------
<CODE> 2 (was CODE)
  Relative segment, address: 00019332 - 0001933D (0xc bytes), align: 1
  Segment part 29.            Intra module refs:   Segment part 27
                                                   Segment part 28
    -------------------------------------------------------------------------
<CODE> 2 (was CODE)
  Relative segment, address: 0001933E - 00019343 (0x6 bytes), align: 1
  Segment part 30.            Intra module refs:   _PrintfFullNoMb
    -------------------------------------------------------------------------
<CODE> 1 (was CODE)
  Relative segment, address: 96DE - 9761 (0x84 bytes), align: 1
  Segment part 8.             Intra module refs:   _PrintfFullNoMb
           LOCAL                   ADDRESS         
           =====                   =======         
           LoadInt                 96DE 
    -------------------------------------------------------------------------
<CODE> 1 (was CODE)
  Relative segment, address: 9762 - 976F (0xe bytes), align: 1
  Segment part 9.             Intra module refs:   LoadInt
    -------------------------------------------------------------------------
<CODE> 1 (was CODE)
  Relative segment, address: 9770 - 99C9 (0x25a bytes), align: 1
  Segment part 10.            Intra module refs:   _LdtobFullNoMb
           LOCAL                   ADDRESS         
           =====                   =======         
           _GenldFullNoMb          9770 
               calls direct
    -------------------------------------------------------------------------
<CODE> 1 (was CODE)
  Relative segment, address: 99CA - 99D9 (0x10 bytes), align: 1
  Segment part 11.            Intra module refs:   _GenldFullNoMb
    -------------------------------------------------------------------------
<CODE> 1 (was CODE)
  Relative segment, address: 99DA - 99E7 (0xe bytes), align: 1
  Segment part 12.            Intra module refs:   Segment part 11
                                                   _GenldFullNoMb
    -------------------------------------------------------------------------
<CODE> 1 (was CODE)
  Relative segment, address: 99E8 - 9A05 (0x1e bytes), align: 1
  Segment part 13.            Intra module refs:   _GenldFullNoMb
    -------------------------------------------------------------------------
<CODE> 1 (was CODE)
  Relative segment, address: 9A06 - 9A47 (0x42 bytes), align: 1
  Segment part 14.            Intra module refs:   _LdtobFullNoMb
           LOCAL                   ADDRESS         
           =====                   =======         
           scale                   9A06 
               calls direct
    -------------------------------------------------------------------------
<CODE> 1 (was CODE)
  Relative segment, address: 9A48 - 9E2D (0x3e6 bytes), align: 1
  Segment part 15.            Intra module refs:   _PrintfFullNoMb
           LOCAL                   ADDRESS         
           =====                   =======         
           _LdtobFullNoMb          9A48 
               calls direct
    -------------------------------------------------------------------------
<CODE> 1 (was CODE)
  Relative segment, address: 9E2E - 9E33 (0x6 bytes), align: 1
  Segment part 16.            Intra module refs:   _LdtobFullNoMb
    -------------------------------------------------------------------------
<CODE> 1 (was CODE)
  Relative segment, address: 9E34 - 9E3D (0xa bytes), align: 1
  Segment part 17.            Intra module refs:   Segment part 16
                                                   _LdtobFullNoMb
    -------------------------------------------------------------------------
<CODE> 1 (was CODE)
  Relative segment, address: 9E3E - 9E47 (0xa bytes), align: 1
  Segment part 18.            Intra module refs:   _LdtobFullNoMb
    -------------------------------------------------------------------------
<CODE> 1 (was CODE)
  Relative segment, address: 9E48 - 9E57 (0x10 bytes), align: 1
  Segment part 19.            Intra module refs:   _LdtobFullNoMb
    -------------------------------------------------------------------------
<CODE> 1 (was CODE)
  Relative segment, address: 9E58 - 9FFD (0x1a6 bytes), align: 1
  Segment part 20.            Intra module refs:   _PrintfFullNoMb
           LOCAL                   ADDRESS         
           =====                   =======         
           _LitobFullNoMb          9E58 
               calls direct
    -------------------------------------------------------------------------
<CODE> 1 (was CODE)
  Relative segment, address: 9FFE - A00F (0x12 bytes), align: 1
  Segment part 21.            Intra module refs:   _LitobFullNoMb
    -------------------------------------------------------------------------
<CODE> 1 (was CODE)
  Relative segment, address: A010 - A019 (0xa bytes), align: 1
  Segment part 22.            Intra module refs:   LoadInt
                                                   _LitobFullNoMb
                                                   _PrintfFullNoMb
    -------------------------------------------------------------------------
<CODE> 2 (was CODE)
  Relative segment, address: 00018B02 - 00018B37 (0x36 bytes), align: 1
  Segment part 32.            Intra module refs:   Segment part 27
           LOCAL                   ADDRESS         
           =====                   =======         
           pad                     00018B02 
               calls direct
    -------------------------------------------------------------------------
<CODE> 2 (was CODE)
  Relative segment, address: 00019116 - 0001913D (0x28 bytes), align: 1
  Segment part 33.            Intra module refs:   _PrintfFullNoMb
                                                   _PutcharsFullNoMb
           LOCAL                   ADDRESS         
           =====                   =======         
           _PutcharFullNoMb        00019116 
               calls indirect
    -------------------------------------------------------------------------
<CODE> 2 (was CODE)
  Relative segment, address: 00019018 - 00019043 (0x2c bytes), align: 1
  Segment part 34.            Intra module refs:   Segment part 28
                                                   pad
           LOCAL                   ADDRESS         
           =====                   =======         
           _PutcharsFullNoMb       00019018 
               calls direct
    -------------------------------------------------------------------------
<CODE> 2 (was CODE)
  Relative segment, address: 00019BA6 - 00019BAF (0xa bytes), align: 1
  Segment part 24.            Intra module refs:   _PrintfFullNoMb
    -------------------------------------------------------------------------
<CODE> 2 (was CODE)
  Relative segment, address: 00019A28 - 00019A35 (0xe bytes), align: 1
  Segment part 25.            Intra module refs:   _PrintfFullNoMb
    -------------------------------------------------------------------------
<CODE> 2 (was CODE)
  Relative segment, address: 000198DA - 000198EB (0x12 bytes), align: 1
  Segment part 26.            Intra module refs:   _PrintfFullNoMb
    -------------------------------------------------------------------------
<CODE> 2 (was CODE)
  Relative segment, address: 00018678 - 000186B5 (0x3e bytes), align: 1
  Segment part 31.            Intra module refs:   _PrintfFullNoMb
    -------------------------------------------------------------------------
DATA16_C
  Relative segment, address: 7A2E - 7A34 (0x7 bytes), align: 0
  Segment part 2.             Intra module refs:   _PrintfFullNoMb
    -------------------------------------------------------------------------
DATA16_C
  Relative segment, address: 7A35 - 7A38 (0x4 bytes), align: 0
  Segment part 3.             Intra module refs:   _LdtobFullNoMb
    -------------------------------------------------------------------------
DATA16_C
  Relative segment, address: 7A39 - 7A3C (0x4 bytes), align: 0
  Segment part 4.             Intra module refs:   _LdtobFullNoMb
    -------------------------------------------------------------------------
DATA16_C
  Relative segment, address: 7A3D - 7A40 (0x4 bytes), align: 0
  Segment part 5.             Intra module refs:   _LdtobFullNoMb
    -------------------------------------------------------------------------
DATA16_C
  Relative segment, address: 7A41 - 7A44 (0x4 bytes), align: 0
  Segment part 6.             Intra module refs:   _LdtobFullNoMb
    -------------------------------------------------------------------------
DATA16_C
  Relative segment, address: 7A45 - 7A46 (0x2 bytes), align: 0
  Segment part 7.             Intra module refs:   _GenldFullNoMb

    -------------------------------------------------------------------------
  LIBRARY MODULE, NAME : ?xprout

  SEGMENTS IN THE MODULE
  ======================
<CODE> 2 (was CODE)
  Relative segment, address: 0001974C - 00019763 (0x18 bytes), align: 1
  Segment part 2.
           ENTRY                   ADDRESS         REF BY
           =====                   =======         ======
           _Prout                  0001974C        printf (?printf)
               calls direct

    -------------------------------------------------------------------------
  LIBRARY MODULE, NAME : ?xsprout

  SEGMENTS IN THE MODULE
  ======================
<CODE> 2 (was CODE)
  Relative segment, address: 00019B04 - 00019B0F (0xc bytes), align: 1
  Segment part 2.
           ENTRY                   ADDRESS         REF BY
           =====                   =======         ======
           _SProut                 00019B04        sprintf (?sprintf)

    -------------------------------------------------------------------------
  LIBRARY MODULE, NAME : ?xstoul

  SEGMENTS IN THE MODULE
  ======================
DATA16_C
  Relative segment, address: 7A47 - 7A6B (0x25 bytes), align: 0
  Segment part 2.             Intra module refs:   __iar_Stoulx
    -------------------------------------------------------------------------
DATA16_C
  Relative segment, address: 7A6C - 7A90 (0x25 bytes), align: 0
  Segment part 3.             Intra module refs:   __iar_Stoulx
    -------------------------------------------------------------------------
<CODE> 2 (was CODE)
  Relative segment, address: 0001032E - 000104B5 (0x188 bytes), align: 1
  Segment part 4.             Intra module refs:   __iar_Stoul
           ENTRY                   ADDRESS         REF BY
           =====                   =======         ======
           __iar_Stoulx            0001032E 
               calls direct
    -------------------------------------------------------------------------
<CODE> 2 (was CODE)
  Relative segment, address: 00019A8A - 00019A97 (0xe bytes), align: 1
  Segment part 5.             Intra module refs:   __iar_Stoulx
    -------------------------------------------------------------------------
<CODE> 2 (was CODE)
  Relative segment, address: 00019C2A - 00019C2F (0x6 bytes), align: 1
  Segment part 6.
           ENTRY                   ADDRESS         REF BY
           =====                   =======         ======
           __iar_Stoul             00019C2A        atoi (?atoi)
               calls direct

    -------------------------------------------------------------------------
  LIBRARY MODULE, NAME : ?xxmemxfree

  SEGMENTS IN THE MODULE
  ======================
<CODE> 2 (was CODE)
  Relative segment, address: 00015D28 - 00015DAD (0x86 bytes), align: 1
  Segment part 2.
           ENTRY                   ADDRESS         REF BY
           =====                   =======         ======
           __data16_free           00015D28        __data16_findmem (?xxmemxmalloc)
                                                   free (BC95)

    -------------------------------------------------------------------------
  LIBRARY MODULE, NAME : ?xxmemxmalloc

  SEGMENTS IN THE MODULE
  ======================
DATA16_Z
  Relative segment, address: 1D88 - 1D8B (0x4 bytes), align: 1
  Segment part 2.             Intra module refs:   __data16_findmem
                                                   __data16_malloc
           ENTRY                   ADDRESS         REF BY
           =====                   =======         ======
           __data16_Aldata         1D88            __data16_free (?xxmemxfree)
    -------------------------------------------------------------------------
<CODE> 2 (was CODE)
  Relative segment, address: 00017154 - 000171B7 (0x64 bytes), align: 1
  Segment part 3.             Intra module refs:   __data16_malloc
           LOCAL                   ADDRESS         
           =====                   =======         
           __data16_findmem        00017154 
               calls direct
    -------------------------------------------------------------------------
<CODE> 2 (was CODE)
  Relative segment, address: 00016B88 - 00016BF5 (0x6e bytes), align: 1
  Segment part 4.
           ENTRY                   ADDRESS         REF BY
           =====                   =======         ======
           __data16_malloc         00016B88        malloc (BC95)
               calls direct




                ****************************************
                *                                      *
                *      SEGMENTS IN ADDRESS ORDER       *
                *                                      *
                ****************************************


SEGMENT              SPACE    START ADDRESS   END ADDRESS     SIZE  TYPE  ALIGN
=======              =====    =============   ===========     ====  ====  =====
DATA16_AN                              0100 - 0103               4   rel    0
                                       0120 - 0121               2 
                                       0124 - 0127               4 
                                       012C - 012D               2 
                                       0140 - 0141               2 
                                       0144 - 0145               2 
                                       015C - 015D               2 
                                       0168 - 016F               8 
                                       0200 - 0205               6 
                                       020A - 020B               2 
                                       021A - 021D               4 
                                       0220 - 0225               6 
                                       022A - 022B               2 
                                       0242 - 0245               4 
                                       024A - 024B               2 
                                       0260 - 0265               6 
                                       026A - 026B               2 
                                       0280 - 0285               6 
                                       028A - 028B               2 
                                       02A2 - 02A5               4 
                                       0340 - 0343               4 
                                       0352 - 0353               2 
                                       0380 - 0383               4 
                                       0392 - 0393               2 
                                       03C0 - 03C7               8 
                                       03D2 - 03D7               6 
                                       03EE - 03EF               2 
                                       05C0 - 05C1               2 
                                       05C6 - 05C8               3 
                                       05CC - 05CC               1 
                                       05CE - 05CE               1 
                                       05DC - 05DD               2 
                                       0600 - 0601               2 
                                       0606 - 0608               3 
                                       060C - 060C               1 
                                       060E - 060E               1 
                                       061C - 061D               2 
                                       0640 - 0641               2 
                                       0646 - 0648               3 
                                       064C - 064C               1 
                                       064E - 064E               1 
                                       065C - 065D               2 
                                       0680 - 0681               2 
                                       0686 - 0688               3 
                                       068C - 068C               1 
                                       068E - 068E               1 
                                       069C - 069D               2 
                                       0700 - 0703               4 
                                       0710 - 073F              30 
DATA16_I                               1C00 - 1C6E              6F   rel    1
DATA16_Z                               1C70 - 2E3B            11CC   rel    1
DATA16_HEAP                            2E3C - 45AB            1770   rel    1
CODE_I                                    45AC                       rel    1
DATA20_I                                  45AC                       rel    1
DATA20_Z                                  45AC                       rel    1
DATA20_N                                  45AC                       rel    1
CSTACK                                 4848 - 5BFF            13B8   rel    1
DATA16_C                               5C00 - 7A90            1E91   rel    1
DATA16_ID                              7A92 - 7B00              6F   rel    1
CSTART                                 7B02 - 7B2F              2E   rel    1
ISR_CODE                               7B30 - 8959             E2A   rel    1
<CODE> 1                               895A - FF7F            7626   rel    1
INTVEC                                 FF80 - FFF9              7A   com    1
RESET                                  FFFE - FFFF               2   rel    1
<CODE> 2                           00010000 - 00019CCF        9CD0   rel    1
DATA20_ID                               00019CD0                     rel    1
CODE_ID                                 00019CD0                     rel    1
DATA20_C                                00019CD0                     rel    1

                ****************************************
                *                                      *
                *        END OF CROSS REFERENCE        *
                *                                      *
                ****************************************

 74 186 bytes of CODE  memory
 15 715 bytes of DATA  memory (+ 188 absolute )
  7 936 bytes of CONST memory

Errors: none
Warnings: 28

