Warning[w6]: Type conflict for external/entry "GSM_Close", in module main against external/entry in module GSM; prototyped function vs K&R function
  /* In module main: */
  /* K&R Function, args 0, attr 0 */
  int (__cc_version2 GSM_Close)();
  /* In module GSM: */
  /* Function, args 1, attr 0 */
  int (__cc_version2 GSM_Close)(int);
Warning[w6]: Type conflict for external/entry "GSM_Process", in module main against external/entry in module GSM; prototyped function vs K&R function
  /* In module main: */
  /* K&R Function, args 0, attr 0 */
  int (__cc_version2 GSM_Process)();
  /* In module GSM: */
  /* Function, args 2, attr 0 */
  int (__cc_version2 GSM_Process)(int,
                                  int);
Warning[w6]: Type conflict for external/entry "GSM_SendMsgTxt", in module main against external/entry in module GSM; prototyped function vs K&R function
  /* In module main: */
  /* K&R Function, args 0, attr 0 */
  int (__cc_version2 GSM_SendMsgTxt)();
  /* In module GSM: */
  /* Function, args 3, attr 0 */
  int (__cc_version2 GSM_SendMsgTxt)(char *,
                                     char *,
                                     int);
Warning[w6]: Type conflict for external/entry "mallocElement", in module hydrologytask against external/entry in module message; prototyped function vs K&R function
  /* In module hydrologytask: */
  /* K&R Function, args 0, attr 0 */
  int (__cc_version2 mallocElement)();
  /* In module message: */
  /* Function, args 4, attr 0 */
  int (__cc_version2 mallocElement)(char,
                                    char,
                                    char,
                                    hydrologyElement *);
    typedef struct tagHydrologyElement hydrologyElement;
Warning[w6]: Type conflict for external/entry "Judge_Watermeter", in module uart3 against external/entry in module uart1; function return types are different; different basic types
  /* In module uart3: */
  /* K&R Function, args 0, attr 0 */
  int (__cc_version2 Judge_Watermeter)();
  /* In module uart1: */
  /* K&R Function, args 0, attr 0 */
  void (__cc_version2 Judge_Watermeter)();
Warning[w6]: Type conflict for external/entry "printf", in module ioDev against external/entry in module ?printf; prototyped function vs K&R function
  /* In module ioDev: */
  /* K&R Function, args 0, attr 0 */
  int (__cc_version2 printf)();
  /* In module ?printf: */
  /* Function, args 2, attr 0 */
  int (__cc_version2 printf)(char const *,
                             ...);
Error[e46]: Undefined external "BC95_Open" referred in GTM900C ( C:\Users\Administrator\Desktop\师弟代码\RTUtest_GP\Debug\Obj\GTM900C.r43 )
Error[e46]: Undefined external "BC95_QuerySimState" referred in GTM900C ( C:\Users\Administrator\Desktop\师弟代码\RTUtest_GP\Debug\Obj\GTM900C.r43 )
Error[e46]: Undefined external "BC95_SetSendMsgIndications" referred in GTM900C ( C:\Users\Administrator\Desktop\师弟代码\RTUtest_GP\Debug\Obj\GTM900C.r43 )
Error[e46]: Undefined external "BC95_SetNNMI" referred in GTM900C ( C:\Users\Administrator\Desktop\师弟代码\RTUtest_GP\Debug\Obj\GTM900C.r43 )
Error[e46]: Undefined external "BC95_QueryCSQState" referred in GTM900C ( C:\Users\Administrator\Desktop\师弟代码\RTUtest_GP\Debug\Obj\GTM900C.r43 )
Error[e46]: Undefined external "BC95_QueryCGATTState" referred in GTM900C ( C:\Users\Administrator\Desktop\师弟代码\RTUtest_GP\Debug\Obj\GTM900C.r43 )
Error[e46]: Undefined external "BC95_Close" referred in GTM900C ( C:\Users\Administrator\Desktop\师弟代码\RTUtest_GP\Debug\Obj\GTM900C.r43 )
Error[e46]: Undefined external "BC95_QueryTime" referred in GTM900C ( C:\Users\Administrator\Desktop\师弟代码\RTUtest_GP\Debug\Obj\GTM900C.r43 )
Error[e46]: Undefined external "BC95_SendSocketData" referred in GTM900C ( C:\Users\Administrator\Desktop\师弟代码\RTUtest_GP\Debug\Obj\GTM900C.r43 )
################################################################################
#                                                                              #
#      IAR Universal Linker V6.5.1.95                                          #
#                                                                              #
#           Link time     =  03/Dec/2019  11:16:47                             #
#           Target CPU    =  MSP430                                            #
#           List file     =  C:\Users\Administrator\Desktop\师弟代码\RTUtest_G #
#                            P\Debug\List\RTUtest_NB.map                       #
#           Output file 1 =  C:\Users\Administrator\Desktop\师弟代码\RTUtest_G #
#                            P\Debug\Exe\RTUtest_NB.d43                        #
#                            Format: ubrof10                                   #
#                            UBROF version 10.0.6                              #
#                            Using library modules for C-SPY (-rt)             #
#           Command line  =  -f                                                #
#                            C:\Users\ADMINI~1\AppData\Local\Temp\EWF2A5.tmp   #
#                            (C:\Users\Administrator\Desktop\师弟代码\RTUtest_ #
#                            GP\Debug\Obj\adc.r43                              #
#                            C:\Users\Administrator\Desktop\师弟代码\RTUtest_G #
#                            P\Debug\Obj\common.r43                            #
#                            C:\Users\Administrator\Desktop\师弟代码\RTUtest_G #
#                            P\Debug\Obj\Console.r43                           #
#                            C:\Users\Administrator\Desktop\师弟代码\RTUtest_G #
#                            P\Debug\Obj\debug.r43                             #
#                            C:\Users\Administrator\Desktop\师弟代码\RTUtest_G #
#                            P\Debug\Obj\flash.r43                             #
#                            C:\Users\Administrator\Desktop\师弟代码\RTUtest_G #
#                            P\Debug\Obj\flow.r43                              #
#                            C:\Users\Administrator\Desktop\师弟代码\RTUtest_G #
#                            P\Debug\Obj\GSM.r43                               #
#                            C:\Users\Administrator\Desktop\师弟代码\RTUtest_G #
#                            P\Debug\Obj\GTM900C.r43                           #
#                            C:\Users\Administrator\Desktop\师弟代码\RTUtest_G #
#                            P\Debug\Obj\hydrologycommand.r43                  #
#                            C:\Users\Administrator\Desktop\师弟代码\RTUtest_G #
#                            P\Debug\Obj\hydrologytask.r43                     #
#                            C:\Users\Administrator\Desktop\师弟代码\RTUtest_G #
#                            P\Debug\Obj\ioDev.r43                             #
#                            C:\Users\Administrator\Desktop\师弟代码\RTUtest_G #
#                            P\Debug\Obj\led.r43                               #
#                            C:\Users\Administrator\Desktop\师弟代码\RTUtest_G #
#                            P\Debug\Obj\main.r43                              #
#                            C:\Users\Administrator\Desktop\师弟代码\RTUtest_G #
#                            P\Debug\Obj\message.r43                           #
#                            C:\Users\Administrator\Desktop\师弟代码\RTUtest_G #
#                            P\Debug\Obj\packet.r43                            #
#                            C:\Users\Administrator\Desktop\师弟代码\RTUtest_G #
#                            P\Debug\Obj\rom.r43                               #
#                            C:\Users\Administrator\Desktop\师弟代码\RTUtest_G #
#                            P\Debug\Obj\rtc.r43                               #
#                            C:\Users\Administrator\Desktop\师弟代码\RTUtest_G #
#                            P\Debug\Obj\Sampler.r43                           #
#                            C:\Users\Administrator\Desktop\师弟代码\RTUtest_G #
#                            P\Debug\Obj\store.r43                             #
#                            C:\Users\Administrator\Desktop\师弟代码\RTUtest_G #
#                            P\Debug\Obj\timer.r43                             #
#                            C:\Users\Administrator\Desktop\师弟代码\RTUtest_G #
#                            P\Debug\Obj\uart0.r43                             #
#                            C:\Users\Administrator\Desktop\师弟代码\RTUtest_G #
#                            P\Debug\Obj\uart1.r43                             #
#                            C:\Users\Administrator\Desktop\师弟代码\RTUtest_G #
#                            P\Debug\Obj\uart2.r43                             #
#                            C:\Users\Administrator\Desktop\师弟代码\RTUtest_G #
#                            P\Debug\Obj\uart3.r43                             #
#                            C:\Users\Administrator\Desktop\师弟代码\RTUtest_G #
#                            P\Debug\Obj\uart_config.r43                       #
#                            C:\Users\Administrator\Desktop\师弟代码\RTUtest_G #
#                            P\Debug\Obj\wifi_config.r43                       #
#                            -o                                                #
#                            C:\Users\Administrator\Desktop\师弟代码\RTUtest_G #
#                            P\Debug\Exe\RTUtest_NB.d43                        #
#                            -l                                                #
#                            C:\Users\Administrator\Desktop\师弟代码\RTUtest_G #
#                            P\Debug\List\RTUtest_NB.map                       #
#                            -xms                                              #
#                            "-ID:\Program Files (x86)\IAR Systems\Embedded Wo #
#                            rkbench 8.0\430\LIB\"                             #
#                            -f                                                #
#                            "D:\Program Files (x86)\IAR Systems\Embedded Work #
#                            bench 8.0\430\config\linker\lnk430f5438a.xcl"     #
#                            (-cmsp430 -D?CPU30_OFFSET=2 -QCODE_I=CODE_ID      #
#                            -QTLS16_I=TLS16_ID -D__iar_HWMUL=4C0              #
#                            -Z(CONST)INFO=1800-19FF                           #
#                            -Z(CONST)INFOA=1980-19FF                          #
#                            -Z(CONST)INFOB=1900-197F                          #
#                            -Z(CONST)INFOC=1880-18FF                          #
#                            -Z(CONST)INFOD=1800-187F                          #
#                            -Z(DATA)DATA16_I,DATA16_Z,DATA16_N,TLS16_I=1C00-5 #
#                            BFF                                               #
#                            -Z(DATA)DATA16_HEAP+_DATA16_HEAP_SIZE             #
#                            -Z(DATA)CODE_I                                    #
#                            -Z(DATA)DATA20_I,DATA20_Z,DATA20_N,DATA20_HEAP+_D #
#                            ATA20_HEAP_SIZE                                   #
#                            -Z(DATA)CSTACK+_STACK_SIZE#                       #
#                            -Z(CONST)DATA16_C,DATA16_ID,TLS16_ID,DIFUNCT,CHEC #
#                            KSUM=5C00-FF7F                                    #
#                            -Z(CODE)CSTART,ISR_CODE,CODE16=5C00-FF7F          #
#                            -P(CODE)CODE=5C00-FF7F,10000-45BFF                #
#                            -Z(CONST)DATA20_C,DATA20_ID,CODE_ID=5C00-FF7F,100 #
#                            40-45BFF                                          #
#                            -Z(CODE)INTVEC=FF80-FFFF                          #
#                            -Z(CODE)RESET=FFFE-FFFF) -f                       #
#                            "D:\Program Files (x86)\IAR Systems\Embedded Work #
#                            bench 8.0\430\config\linker\multiplier32.xcl"     #
#                            (-e?Mul8Hw=?Mul8 -e?Mul16Hw=?Mul16                #
#                            -e?Mul16to32uHw=?Mul16to32u                       #
#                            -e?Mul16to32sHw=?Mul16to32s -e?Mul32Hw32=?Mul32   #
#                            -e?Mul64Hw32=_Mul64i                              #
#                            -e?Mul32u32uto64iHw32=_Mul32u32uto64i             #
#                            -e?Mul32fHw32=_Mul32f                             #
#                            -e_Mul64fHw32Ptr=_Mul64fPtr) -D_STACK_SIZE=800    #
#                            -rt                                               #
#                            "D:\Program Files (x86)\IAR Systems\Embedded Work #
#                            bench 8.0\430\lib\dlib\dl430xlsfn.r43"            #
#                            -D_DATA16_HEAP_SIZE=9C4 -s __program_start        #
#                            -D_DATA20_HEAP_SIZE=50)                           #
#                                                                              #
#                           Copyright (C) 1987-2016 IAR Systems AB.            #
################################################################################





                ****************************************
                *                                      *
                *           CROSS REFERENCE            *
                *                                      *
                ****************************************

       Program entry at :           6532  Relocatable, from module : ?cstart




                ****************************************
                *                                      *
                *            RUNTIME MODEL             *
                *                                      *
                ****************************************

  __Heap_Handler             = Basic
  __SystemLibrary            = DLib
  __code_model               = large
  __core                     = 430X
  __data_model               = small
  __dlib_file_descriptor     = 0
  __dlib_full_locale_support = 0
  __double_size              = 32
  __pic                      = no
  __reg_r4                   = free
  __reg_r5                   = free
  __rt_version               = 3

                ****************************************
                *                                      *
                *    AUTOMATIC SYMBOL REDIRECTIONS     *
                *                                      *
                ****************************************

       All references to: _Printf
         were redirected to: _PrintfFullNoMb



                ****************************************
                *                                      *
                *              MODULE MAP              *
                *                                      *
                ****************************************


  DEFINED ABSOLUTE ENTRIES
    *************************************************************************

  DEFINED ABSOLUTE ENTRIES
  PROGRAM MODULE, NAME : ?ABS_ENTRY_MOD

Absolute parts
           ENTRY                   ADDRESS         REF BY
           =====                   =======         ======
           _DATA20_HEAP_SIZE       0050 
           _DATA16_HEAP_SIZE       09C4 
           _STACK_SIZE             0800 
           __iar_HWMUL             04C0            ?Mul16to32sHw (?Mul16to32sHw)
                                                   ?Mul32fHw32 (?Mul32fHw32)
                                                   HydrologySaveData (hydrologytask)
                                                   Hydrology_ReadRom (message)
                                                   ROM_WriteBytes (rom)
                                                   Segment part 1 (?Mul8Hw)
                                                   Store_CheckDataItemSended (store)
                                                   Store_MarkDataItemSended (store)
                                                   Store_ReadDataItem (store)
                                                   Store_WriteDataItem (store)
                                                   _DECtoBCD (rtc)
                                                   getstreamid (message)
           ?CPU30_OFFSET           0002 
    *************************************************************************

  FILE NAME : C:\Users\Administrator\Desktop\师弟代码\RTUtest_GP\Debug\Obj\adc.r43
  PROGRAM MODULE, NAME : adc

  SEGMENTS IN THE MODULE
  ======================
DATA16_AN
  Relative segment, address: 0700 - 0701 (0x2 bytes), align: 0
  Segment part 1. ROOT        Intra module refs:   ADC_Open
                                                   ADC_Sample
           ENTRY                   ADDRESS         REF BY
           =====                   =======         ======
           _A_ADC12CTL0_L          0700 
           LOCAL                   ADDRESS         
           =====                   =======         
           ADC12CTL0               0700 
           ADC12CTL0_H             0701 
           ADC12CTL0_L             0700 
    -------------------------------------------------------------------------
DATA16_AN
  Relative segment, address: 0702 - 0703 (0x2 bytes), align: 0
  Segment part 2. ROOT        Intra module refs:   ADC_Open
                                                   ADC_Sample
           ENTRY                   ADDRESS         REF BY
           =====                   =======         ======
           _A_ADC12CTL1_L          0702 
           LOCAL                   ADDRESS         
           =====                   =======         
           ADC12CTL1               0702 
           ADC12CTL1_H             0703 
           ADC12CTL1_L             0702 
    -------------------------------------------------------------------------
DATA16_AN
  Relative segment, address: 0720 - 0721 (0x2 bytes), align: 0
  Segment part 3. ROOT        Intra module refs:   ADC_Sample
           ENTRY                   ADDRESS         REF BY
           =====                   =======         ======
           _A_ADC12MEM0_L          0720 
           LOCAL                   ADDRESS         
           =====                   =======         
           ADC12MEM0               0720 
           ADC12MEM0_H             0721 
           ADC12MEM0_L             0720 
    -------------------------------------------------------------------------
DATA16_AN
  Relative segment, address: 0722 - 0723 (0x2 bytes), align: 0
  Segment part 4. ROOT        Intra module refs:   ADC_Sample
           ENTRY                   ADDRESS         REF BY
           =====                   =======         ======
           _A_ADC12MEM1_L          0722 
           LOCAL                   ADDRESS         
           =====                   =======         
           ADC12MEM1               0722 
           ADC12MEM1_H             0723 
           ADC12MEM1_L             0722 
    -------------------------------------------------------------------------
DATA16_AN
  Relative segment, address: 0724 - 0725 (0x2 bytes), align: 0
  Segment part 5. ROOT        Intra module refs:   ADC_Sample
           ENTRY                   ADDRESS         REF BY
           =====                   =======         ======
           _A_ADC12MEM2_L          0724 
           LOCAL                   ADDRESS         
           =====                   =======         
           ADC12MEM2               0724 
           ADC12MEM2_H             0725 
           ADC12MEM2_L             0724 
    -------------------------------------------------------------------------
DATA16_AN
  Relative segment, address: 0726 - 0727 (0x2 bytes), align: 0
  Segment part 6. ROOT        Intra module refs:   ADC_Sample
           ENTRY                   ADDRESS         REF BY
           =====                   =======         ======
           _A_ADC12MEM3_L          0726 
           LOCAL                   ADDRESS         
           =====                   =======         
           ADC12MEM3               0726 
           ADC12MEM3_H             0727 
           ADC12MEM3_L             0726 
    -------------------------------------------------------------------------
DATA16_AN
  Relative segment, address: 0728 - 0729 (0x2 bytes), align: 0
  Segment part 7. ROOT        Intra module refs:   ADC_Sample
           ENTRY                   ADDRESS         REF BY
           =====                   =======         ======
           _A_ADC12MEM4_L          0728 
           LOCAL                   ADDRESS         
           =====                   =======         
           ADC12MEM4               0728 
           ADC12MEM4_H             0729 
           ADC12MEM4_L             0728 
    -------------------------------------------------------------------------
DATA16_AN
  Relative segment, address: 072A - 072B (0x2 bytes), align: 0
  Segment part 8. ROOT        Intra module refs:   ADC_Sample
           ENTRY                   ADDRESS         REF BY
           =====                   =======         ======
           _A_ADC12MEM5_L          072A 
           LOCAL                   ADDRESS         
           =====                   =======         
           ADC12MEM5               072A 
           ADC12MEM5_H             072B 
           ADC12MEM5_L             072A 
    -------------------------------------------------------------------------
DATA16_AN
  Relative segment, address: 072C - 072D (0x2 bytes), align: 0
  Segment part 9. ROOT        Intra module refs:   ADC_Sample
           ENTRY                   ADDRESS         REF BY
           =====                   =======         ======
           _A_ADC12MEM6_L          072C 
           LOCAL                   ADDRESS         
           =====                   =======         
           ADC12MEM6               072C 
           ADC12MEM6_H             072D 
           ADC12MEM6_L             072C 
    -------------------------------------------------------------------------
DATA16_AN
  Relative segment, address: 072E - 072F (0x2 bytes), align: 0
  Segment part 10. ROOT       Intra module refs:   ADC_Sample
           ENTRY                   ADDRESS         REF BY
           =====                   =======         ======
           _A_ADC12MEM7_L          072E 
           LOCAL                   ADDRESS         
           =====                   =======         
           ADC12MEM7               072E 
           ADC12MEM7_H             072F 
           ADC12MEM7_L             072E 
    -------------------------------------------------------------------------
DATA16_AN
  Relative segment, address: 0730 - 0731 (0x2 bytes), align: 0
  Segment part 11. ROOT       Intra module refs:   ADC_Sample
           ENTRY                   ADDRESS         REF BY
           =====                   =======         ======
           _A_ADC12MEM8_L          0730 
           LOCAL                   ADDRESS         
           =====                   =======         
           ADC12MEM8               0730 
           ADC12MEM8_H             0731 
           ADC12MEM8_L             0730 
    -------------------------------------------------------------------------
DATA16_AN
  Relative segment, address: 0732 - 0733 (0x2 bytes), align: 0
  Segment part 12. ROOT       Intra module refs:   ADC_Sample
           ENTRY                   ADDRESS         REF BY
           =====                   =======         ======
           _A_ADC12MEM9_L          0732 
           LOCAL                   ADDRESS         
           =====                   =======         
           ADC12MEM9               0732 
           ADC12MEM9_H             0733 
           ADC12MEM9_L             0732 
    -------------------------------------------------------------------------
DATA16_AN
  Relative segment, address: 0734 - 0735 (0x2 bytes), align: 0
  Segment part 13. ROOT       Intra module refs:   ADC_Sample
           ENTRY                   ADDRESS         REF BY
           =====                   =======         ======
           _A_ADC12MEM10_L         0734 
           LOCAL                   ADDRESS         
           =====                   =======         
           ADC12MEM10              0734 
           ADC12MEM10_H            0735 
           ADC12MEM10_L            0734 
    -------------------------------------------------------------------------
DATA16_AN
  Relative segment, address: 0736 - 0737 (0x2 bytes), align: 0
  Segment part 14. ROOT       Intra module refs:   ADC_Sample
           ENTRY                   ADDRESS         REF BY
           =====                   =======         ======
           _A_ADC12MEM11_L         0736 
           LOCAL                   ADDRESS         
           =====                   =======         
           ADC12MEM11              0736 
           ADC12MEM11_H            0737 
           ADC12MEM11_L            0736 
    -------------------------------------------------------------------------
DATA16_AN
  Relative segment, address: 0738 - 0739 (0x2 bytes), align: 0
  Segment part 15. ROOT       Intra module refs:   ADC_Sample
           ENTRY                   ADDRESS         REF BY
           =====                   =======         ======
           _A_ADC12MEM12_L         0738 
           LOCAL                   ADDRESS         
           =====                   =======         
           ADC12MEM12              0738 
           ADC12MEM12_H            0739 
           ADC12MEM12_L            0738 
    -------------------------------------------------------------------------
DATA16_AN
  Relative segment, address: 073A - 073B (0x2 bytes), align: 0
  Segment part 16. ROOT       Intra module refs:   ADC_Sample
           ENTRY                   ADDRESS         REF BY
           =====                   =======         ======
           _A_ADC12MEM13_L         073A 
           LOCAL                   ADDRESS         
           =====                   =======         
           ADC12MEM13              073A 
           ADC12MEM13_H            073B 
           ADC12MEM13_L            073A 
    -------------------------------------------------------------------------
DATA16_AN
  Relative segment, address: 073C - 073D (0x2 bytes), align: 0
  Segment part 17. ROOT       Intra module refs:   ADC_Sample
           ENTRY                   ADDRESS         REF BY
           =====                   =======         ======
           _A_ADC12MEM14_L         073C 
           LOCAL                   ADDRESS         
           =====                   =======         
           ADC12MEM14              073C 
           ADC12MEM14_H            073D 
           ADC12MEM14_L            073C 
    -------------------------------------------------------------------------
DATA16_AN
  Relative segment, address: 073E - 073F (0x2 bytes), align: 0
  Segment part 18. ROOT       Intra module refs:   ADC_Sample
           ENTRY                   ADDRESS         REF BY
           =====                   =======         ======
           _A_ADC12MEM15_L         073E 
           LOCAL                   ADDRESS         
           =====                   =======         
           ADC12MEM15              073E 
           ADC12MEM15_H            073F 
           ADC12MEM15_L            073E 
    -------------------------------------------------------------------------
DATA16_AN
  Relative segment, address: 0710 - 0710 (0x1 bytes), align: 0
  Segment part 19. ROOT       Intra module refs:   ADC_Open
           ENTRY                   ADDRESS         REF BY
           =====                   =======         ======
           ADC12MCTL0              0710 
    -------------------------------------------------------------------------
DATA16_AN
  Relative segment, address: 0711 - 0711 (0x1 bytes), align: 0
  Segment part 20. ROOT       Intra module refs:   ADC_Open
           ENTRY                   ADDRESS         REF BY
           =====                   =======         ======
           ADC12MCTL1              0711 
    -------------------------------------------------------------------------
DATA16_AN
  Relative segment, address: 0712 - 0712 (0x1 bytes), align: 0
  Segment part 21. ROOT       Intra module refs:   ADC_Open
           ENTRY                   ADDRESS         REF BY
           =====                   =======         ======
           ADC12MCTL2              0712 
    -------------------------------------------------------------------------
DATA16_AN
  Relative segment, address: 0713 - 0713 (0x1 bytes), align: 0
  Segment part 22. ROOT       Intra module refs:   ADC_Open
           ENTRY                   ADDRESS         REF BY
           =====                   =======         ======
           ADC12MCTL3              0713 
    -------------------------------------------------------------------------
DATA16_AN
  Relative segment, address: 0714 - 0714 (0x1 bytes), align: 0
  Segment part 23. ROOT       Intra module refs:   ADC_Open
           ENTRY                   ADDRESS         REF BY
           =====                   =======         ======
           ADC12MCTL4              0714 
    -------------------------------------------------------------------------
DATA16_AN
  Relative segment, address: 0715 - 0715 (0x1 bytes), align: 0
  Segment part 24. ROOT       Intra module refs:   ADC_Open
           ENTRY                   ADDRESS         REF BY
           =====                   =======         ======
           ADC12MCTL5              0715 
    -------------------------------------------------------------------------
DATA16_AN
  Relative segment, address: 0716 - 0716 (0x1 bytes), align: 0
  Segment part 25. ROOT       Intra module refs:   ADC_Open
           ENTRY                   ADDRESS         REF BY
           =====                   =======         ======
           ADC12MCTL6              0716 
    -------------------------------------------------------------------------
DATA16_AN
  Relative segment, address: 0717 - 0717 (0x1 bytes), align: 0
  Segment part 26. ROOT       Intra module refs:   ADC_Open
           ENTRY                   ADDRESS         REF BY
           =====                   =======         ======
           ADC12MCTL7              0717 
    -------------------------------------------------------------------------
DATA16_AN
  Relative segment, address: 0718 - 0718 (0x1 bytes), align: 0
  Segment part 27. ROOT       Intra module refs:   ADC_Open
           ENTRY                   ADDRESS         REF BY
           =====                   =======         ======
           ADC12MCTL8              0718 
    -------------------------------------------------------------------------
DATA16_AN
  Relative segment, address: 0719 - 0719 (0x1 bytes), align: 0
  Segment part 28. ROOT       Intra module refs:   ADC_Open
           ENTRY                   ADDRESS         REF BY
           =====                   =======         ======
           ADC12MCTL9              0719 
    -------------------------------------------------------------------------
DATA16_AN
  Relative segment, address: 071A - 071A (0x1 bytes), align: 0
  Segment part 29. ROOT       Intra module refs:   ADC_Open
           ENTRY                   ADDRESS         REF BY
           =====                   =======         ======
           ADC12MCTL10             071A 
    -------------------------------------------------------------------------
DATA16_AN
  Relative segment, address: 071B - 071B (0x1 bytes), align: 0
  Segment part 30. ROOT       Intra module refs:   ADC_Open
           ENTRY                   ADDRESS         REF BY
           =====                   =======         ======
           ADC12MCTL11             071B 
    -------------------------------------------------------------------------
DATA16_AN
  Relative segment, address: 071C - 071C (0x1 bytes), align: 0
  Segment part 31. ROOT       Intra module refs:   ADC_Open
           ENTRY                   ADDRESS         REF BY
           =====                   =======         ======
           ADC12MCTL12             071C 
    -------------------------------------------------------------------------
DATA16_AN
  Relative segment, address: 071D - 071D (0x1 bytes), align: 0
  Segment part 32. ROOT       Intra module refs:   ADC_Open
           ENTRY                   ADDRESS         REF BY
           =====                   =======         ======
           ADC12MCTL13             071D 
    -------------------------------------------------------------------------
DATA16_AN
  Relative segment, address: 071E - 071E (0x1 bytes), align: 0
  Segment part 33. ROOT       Intra module refs:   ADC_Open
           ENTRY                   ADDRESS         REF BY
           =====                   =======         ======
           ADC12MCTL14             071E 
    -------------------------------------------------------------------------
DATA16_AN
  Relative segment, address: 071F - 071F (0x1 bytes), align: 0
  Segment part 34. ROOT       Intra module refs:   ADC_Open
           ENTRY                   ADDRESS         REF BY
           =====                   =======         ======
           ADC12MCTL15             071F 
    -------------------------------------------------------------------------
DATA16_AN
  Relative segment, address: 0242 - 0243 (0x2 bytes), align: 0
  Segment part 35. ROOT       Intra module refs:   ADC_Sample
                                                   Led1_Off (led)
                                                   Led1_On (led)
                                                   Led_Init (led)
                                                   ROM_WP_OFF (rom)
                                                   ROM_WP_ON (rom)
           ENTRY                   ADDRESS         REF BY
           =====                   =======         ======
           _A_PCOUT_L              0242 
           LOCAL                   ADDRESS         
           =====                   =======         
           PCOUT                   0242 
           PCOUT_H                 0243 
           PCOUT_L                 0242 
    -------------------------------------------------------------------------
DATA16_AN
  Relative segment, address: 024A - 024B (0x2 bytes), align: 0
  Segment part 36. ROOT       Intra module refs:   ADC_Open
                                                   ADC_Sample
                                                   Clock_Init (common)
                                                   Led_Init (led)
                                                   UART1_Open_9600 (uart1)
           ENTRY                   ADDRESS         REF BY
           =====                   =======         ======
           _A_PCSEL_L              024A 
           LOCAL                   ADDRESS         
           =====                   =======         
           PCSEL                   024A 
           PCSEL_H                 024B 
           PCSEL_L                 024A 
    -------------------------------------------------------------------------
DATA16_Z
  Relative segment, address: 1C2A - 1C49 (0x20 bytes), align: 1
  Segment part 38.            Intra module refs:   ADC_Sample
           ENTRY                   ADDRESS         REF BY
           =====                   =======         ======
           A                       1C2A            ADC_Element (hydrologytask)
    -------------------------------------------------------------------------
<CODE> 1 (was CODE)
  Relative segment, address: D7BE - D859 (0x9c bytes), align: 1
  Segment part 39.
           ENTRY                   ADDRESS         REF BY
           =====                   =======         ======
           ADC_Open                D7BE            Sampler_Open (Sampler)
               calls direct
    -------------------------------------------------------------------------
<CODE> 1 (was CODE)
  Relative segment, address: 848C - 894D (0x4c2 bytes), align: 1
  Segment part 41.
           ENTRY                   ADDRESS         REF BY
           =====                   =======         ======
           ADC_Sample              848C            HydrologySample (hydrologytask)
               calls direct

    *************************************************************************

  FILE NAME : C:\Users\Administrator\Desktop\师弟代码\RTUtest_GP\Debug\Obj\common.r43
  PROGRAM MODULE, NAME : common

  SEGMENTS IN THE MODULE
  ======================
DATA16_AN
  Relative segment, address: 021A - 021B (0x2 bytes), align: 0
  Segment part 1. ROOT        Intra module refs:   Sampler_Init (Sampler)
           ENTRY                   ADDRESS         REF BY
           =====                   =======         ======
           _A_PAIE_L               021A 
           LOCAL                   ADDRESS         
           =====                   =======         
           PAIE                    021A 
           PAIE_H                  021B 
           PAIE_L                  021A 
    -------------------------------------------------------------------------
DATA16_AN
  Relative segment, address: 021C - 021D (0x2 bytes), align: 0
  Segment part 2. ROOT        Intra module refs:   PORT1_ISR (Sampler)
           ENTRY                   ADDRESS         REF BY
           =====                   =======         ======
           _A_PAIFG_L              021C 
           LOCAL                   ADDRESS         
           =====                   =======         
           PAIFG                   021C 
           PAIFG_H                 021D 
           PAIFG_L                 021C 
    -------------------------------------------------------------------------
DATA16_AN
  Relative segment, address: 026A - 026B (0x2 bytes), align: 0
  Segment part 4. ROOT        Intra module refs:   Clock_Init
                                                   Led_Init (led)
           ENTRY                   ADDRESS         REF BY
           =====                   =======         ======
           _A_PDSEL_L              026A 
           LOCAL                   ADDRESS         
           =====                   =======         
           PDSEL                   026A 
           PDSEL_H                 026B 
           PDSEL_L                 026A 
    -------------------------------------------------------------------------
DATA16_AN
  Relative segment, address: 0282 - 0283 (0x2 bytes), align: 0
  Segment part 5. ROOT        Intra module refs:   Clear_ExternWatchdog
                                                   GSM_Close (GSM)
                                                   IIC_SCL_HIGH (rtc)
                                                   IIC_SCL_LOW (rtc)
                                                   IIC_SDA_HIGH (rtc)
                                                   IIC_SDA_LOW (rtc)
                                                   Led_Init (led)
                                                   Max3222_Close
                                                   Max3222_Open
                                                   Restart_Init (main)
                                                   Sampler_Open (Sampler)
                                                   TimerB_Init (timer)
           ENTRY                   ADDRESS         REF BY
           =====                   =======         ======
           _A_PEOUT_L              0282 
           LOCAL                   ADDRESS         
           =====                   =======         
           PEOUT                   0282 
           PEOUT_H                 0283 
           PEOUT_L                 0282 
    -------------------------------------------------------------------------
DATA16_AN
  Relative segment, address: 0284 - 0285 (0x2 bytes), align: 0
  Segment part 6. ROOT        Intra module refs:   GSM_Close (GSM)
                                                   IIC_Ack (rtc)
                                                   IIC_NAck (rtc)
                                                   IIC_Read_Byte (rtc)
                                                   IIC_Send_Byte (rtc)
                                                   IIC_Start (rtc)
                                                   IIC_Stop (rtc)
                                                   IIC_Wait_Ack (rtc)
                                                   Led_Init (led)
                                                   Max3222_Close
                                                   Max3222_Open
                                                   RTC_Open (rtc)
                                                   Restart_Init (main)
                                                   Sampler_Open (Sampler)
                                                   TimerB_Init (timer)
                                                   UART3_Open (uart3)
           ENTRY                   ADDRESS         REF BY
           =====                   =======         ======
           _A_PEDIR_L              0284 
           LOCAL                   ADDRESS         
           =====                   =======         
           PEDIR                   0284 
           PEDIR_H                 0285 
           PEDIR_L                 0284 
    -------------------------------------------------------------------------
DATA16_AN
  Relative segment, address: 0120 - 0121 (0x2 bytes), align: 0
  Segment part 7. ROOT        Intra module refs:   Set_Vcore
           ENTRY                   ADDRESS         REF BY
           =====                   =======         ======
           _A_PMMCTL0_L            0120 
           LOCAL                   ADDRESS         
           =====                   =======         
           PMMCTL0                 0120 
           PMMCTL0_H               0121 
           PMMCTL0_L               0120 
    -------------------------------------------------------------------------
DATA16_AN
  Relative segment, address: 0124 - 0125 (0x2 bytes), align: 0
  Segment part 8. ROOT        Intra module refs:   Set_Vcore
           ENTRY                   ADDRESS         REF BY
           =====                   =======         ======
           _A_SVSMHCTL_L           0124 
           LOCAL                   ADDRESS         
           =====                   =======         
           SVSMHCTL                0124 
           SVSMHCTL_H              0125 
           SVSMHCTL_L              0124 
    -------------------------------------------------------------------------
DATA16_AN
  Relative segment, address: 0126 - 0127 (0x2 bytes), align: 0
  Segment part 9. ROOT        Intra module refs:   Set_Vcore
           ENTRY                   ADDRESS         REF BY
           =====                   =======         ======
           _A_SVSMLCTL_L           0126 
           LOCAL                   ADDRESS         
           =====                   =======         
           SVSMLCTL                0126 
           SVSMLCTL_H              0127 
           SVSMLCTL_L              0126 
    -------------------------------------------------------------------------
DATA16_AN
  Relative segment, address: 012C - 012D (0x2 bytes), align: 0
  Segment part 10. ROOT       Intra module refs:   Set_Vcore
           ENTRY                   ADDRESS         REF BY
           =====                   =======         ======
           _A_PMMIFG_L             012C 
           LOCAL                   ADDRESS         
           =====                   =======         
           PMMIFG                  012C 
           PMMIFG_H                012D 
           PMMIFG_L                012C 
    -------------------------------------------------------------------------
DATA16_AN
  Relative segment, address: 0102 - 0103 (0x2 bytes), align: 0
  Segment part 11. ROOT       Intra module refs:   Clock_ACLK_DIV
                                                   Clock_Init
                                                   Clock_SMCLK_DIV
           ENTRY                   ADDRESS         REF BY
           =====                   =======         ======
           _A_SFRIFG1_L            0102 
           LOCAL                   ADDRESS         
           =====                   =======         
           SFRIFG1                 0102 
           SFRIFG1_H               0103 
           SFRIFG1_L               0102 
    -------------------------------------------------------------------------
DATA16_AN
  Relative segment, address: 0168 - 0169 (0x2 bytes), align: 0
  Segment part 12. ROOT       Intra module refs:   Clock_Init
           ENTRY                   ADDRESS         REF BY
           =====                   =======         ======
           _A_UCSCTL4_L            0168 
           LOCAL                   ADDRESS         
           =====                   =======         
           UCSCTL4                 0168 
           UCSCTL4_H               0169 
           UCSCTL4_L               0168 
    -------------------------------------------------------------------------
DATA16_AN
  Relative segment, address: 016A - 016B (0x2 bytes), align: 0
  Segment part 13. ROOT       Intra module refs:   Clock_ACLK_DIV
                                                   Clock_SMCLK_DIV
           ENTRY                   ADDRESS         REF BY
           =====                   =======         ======
           _A_UCSCTL5_L            016A 
           LOCAL                   ADDRESS         
           =====                   =======         
           UCSCTL5                 016A 
           UCSCTL5_H               016B 
           UCSCTL5_L               016A 
    -------------------------------------------------------------------------
DATA16_AN
  Relative segment, address: 016C - 016D (0x2 bytes), align: 0
  Segment part 14. ROOT       Intra module refs:   Clock_Init
           ENTRY                   ADDRESS         REF BY
           =====                   =======         ======
           _A_UCSCTL6_L            016C 
           LOCAL                   ADDRESS         
           =====                   =======         
           UCSCTL6                 016C 
           UCSCTL6_H               016D 
           UCSCTL6_L               016C 
    -------------------------------------------------------------------------
DATA16_AN
  Relative segment, address: 016E - 016F (0x2 bytes), align: 0
  Segment part 15. ROOT       Intra module refs:   Clock_Init
           ENTRY                   ADDRESS         REF BY
           =====                   =======         ======
           _A_UCSCTL7_L            016E 
           LOCAL                   ADDRESS         
           =====                   =======         
           UCSCTL7                 016E 
           UCSCTL7_H               016F 
           UCSCTL7_L               016E 
    -------------------------------------------------------------------------
DATA16_AN
  Relative segment, address: 015C - 015D (0x2 bytes), align: 0
  Segment part 16. ROOT       Intra module refs:   Clock_Init
                                                   System_Reset
                                                   WatchDog_Clear (timer)
                                                   WatchDog_Init (timer)
           ENTRY                   ADDRESS         REF BY
           =====                   =======         ======
           _A_WDTCTL_L             015C 
           LOCAL                   ADDRESS         
           =====                   =======         
           WDTCTL                  015C 
           WDTCTL_H                015D 
           WDTCTL_L                015C 
    -------------------------------------------------------------------------
DATA16_Z
  Relative segment, address: 1C4A - 1C4B (0x2 bytes), align: 1
  Segment part 49.            Intra module refs:   TraceFunctionLine
                                                   TraceHexMsgFuncLine
                                                   TraceInt4FuncLine
                                                   TraceMsgFuncLine
                                                   TraceOpen
           ENTRY                   ADDRESS         REF BY
           =====                   =======         ======
           trace_open              1C4A            WIFI_Open (wifi_config)
    -------------------------------------------------------------------------
DATA16_Z
  Relative segment, address: 1C4C - 1C4D (0x2 bytes), align: 1
  Segment part 50.            Intra module refs:   System_Delayms
                                                   System_Delayus
           LOCAL                   ADDRESS         
           =====                   =======         
           s_clock                 1C4C 
    -------------------------------------------------------------------------
DATA16_Z
  Relative segment, address: 1C4E - 1C4F (0x2 bytes), align: 1
  Segment part 51.            Intra module refs:   DownInt
                                                   UpInt
           LOCAL                   ADDRESS         
           =====                   =======         
           _int                    1C4E 
    -------------------------------------------------------------------------
DATA16_Z
  Relative segment, address: 1C50 - 1C51 (0x2 bytes), align: 1
  Segment part 52.            Intra module refs:   Clear_ExternWatchdog
           LOCAL                   ADDRESS         
           =====                   =======         
           s_reset_pin             1C50 
    -------------------------------------------------------------------------
<CODE> 2 (was CODE)
  Relative segment, address: 00010718 - 00010725 (0xe bytes), align: 1
  Segment part 53.
           ENTRY                   ADDRESS         REF BY
           =====                   =======         ======
           TraceOpen               00010718        Main_Init (main)
                                                   main (main)
               calls direct
    -------------------------------------------------------------------------
<CODE> 2 (was CODE)
  Relative segment, address: 000103B6 - 000103D5 (0x20 bytes), align: 1
  Segment part 54.            Intra module refs:   TraceHexMsgFuncLine
                                                   TraceInt4FuncLine
                                                   TraceMsgFuncLine
           ENTRY                   ADDRESS         REF BY
           =====                   =======         ======
           TraceFunctionLine       000103B6 
               calls direct
    -------------------------------------------------------------------------
<CODE> 2 (was CODE)
  Relative segment, address: 00010336 - 00010355 (0x20 bytes), align: 1
  Segment part 55.
           ENTRY                   ADDRESS         REF BY
           =====                   =======         ======
           TraceHexMsgFuncLine     00010336        GPRS_Send (GTM900C)
                                                   HydrologyInstantWaterLevel (hydrologytask)
                                                   Hydrology_ProcessUARTReceieve (uart_config)
                                                   Hydrology_SendData (message)
                                                   Hydrology_TimeCheck (hydrologytask)
                                                   RS485_Read (hydrologycommand)
                                                   RS485_Send (hydrologycommand)
               calls direct
    -------------------------------------------------------------------------
<CODE> 1 (was CODE)
  Relative segment, address: FD4A - FD7B (0x32 bytes), align: 1
  Segment part 56.            Intra module refs:   System_Reset
           ENTRY                   ADDRESS         REF BY
           =====                   =======         ======
           TraceMsgFuncLine        FD4A            FlowCheckSampleData (flow)
                                                   GPRS_Close_TCP_Link (GTM900C)
                                                   GPRS_Send (GTM900C)
                                                   GSM_AT_CloseFeedback (GSM)
                                                   GSM_Close (GSM)
                                                   GSM_DealData (GSM)
                                                   HydrologyInstantWaterLevel (hydrologytask)
                                                   HydrologySample (hydrologytask)
                                                   HydrologySaveData (hydrologytask)
                                                   Hydrology_InitWaitConfig (uart_config)
                                                   Hydrology_Printf (message)
                                                   Hydrology_TimeCheck (hydrologytask)
                                                   PORT1_ISR (Sampler)
                                                   Store_ReadDataItem (store)
                                                   WIFI_Open (wifi_config)
                                                   main (main)
               calls direct
    -------------------------------------------------------------------------
<CODE> 1 (was CODE)
  Relative segment, address: F3DE - F423 (0x46 bytes), align: 1
  Segment part 61.
           ENTRY                   ADDRESS         REF BY
           =====                   =======         ======
           TraceInt4FuncLine       F3DE            FlowCheckSampleData (flow)
                                                   HydrologyInstantWaterLevel (hydrologytask)
                                                   HydrologyUpdateElementTable (hydrologytask)
                                                   PORT1_ISR (Sampler)
                                                   UART1_RecvLineTry (uart1)
                                                   UART3_RecvLineTry (uart3)
                                                   hydrologySetPara (hydrologycommand)
               calls direct
    -------------------------------------------------------------------------
<CODE> 1 (was CODE)
  Relative segment, address: EADC - EB3F (0x64 bytes), align: 1
  Segment part 62.
           ENTRY                   ADDRESS         REF BY
           =====                   =======         ======
           hex_2_ascii             EADC            Hydrology_SetTime (message)
               calls direct
    -------------------------------------------------------------------------
<CODE> 1 (was CODE)
  Relative segment, address: FA92 - FAC9 (0x38 bytes), align: 1
  Segment part 64.            Intra module refs:   Clock_Init
                                                   Select_Debug_Mode
                                                   System_Reset
           ENTRY                   ADDRESS         REF BY
           =====                   =======         ======
           System_Delayms          FA92            ADC_Open (adc)
                                                   ADC_Sample (adc)
                                                   GPRS_Close_GSM (GTM900C)
                                                   GPRS_Send (GTM900C)
                                                   GSM_Close (GSM)
                                                   HydrologyInstantWaterLevel (hydrologytask)
                                                   Hydrology_InitWaitConfig (uart_config)
                                                   Hydrology_TimeCheck (hydrologytask)
                                                   I2C_STOP (rom)
                                                   Led1_WARN (led)
                                                   RS485_Delayms (hydrologycommand)
                                                   RTC_Open (rtc)
                                                   Sampler_Open (Sampler)
                                                   UART0_RecvLineWait (uart0)
                                                   UART0_Send (uart0)
                                                   UART1_Send (uart1)
                                                   UART3_Send (uart3)
                                                   WIFI_InitCmd (wifi_config)
                                                   WIFI_Open (wifi_config)
                                                   //WIFI_SendData (wifi_config)
                                                   WIFI_Server_Start (wifi_config)
                                                   WIFI_WaitSendResult (wifi_config)
    -------------------------------------------------------------------------
<CODE> 1 (was CODE)
  Relative segment, address: FC18 - FC4D (0x36 bytes), align: 1
  Segment part 65.
           ENTRY                   ADDRESS         REF BY
           =====                   =======         ======
           System_Delayus          FC18            RS485_Delayus (hydrologycommand)
    -------------------------------------------------------------------------
<CODE> 2 (was CODE)
  Relative segment, address: 0001082E - 00010837 (0xa bytes), align: 1
  Segment part 66.
           ENTRY                   ADDRESS         REF BY
           =====                   =======         ======
           DownInt                 0001082E        ROM_Init (rom)
                                                   ROM_ReadByte (rom)
                                                   ROM_ReadBytes (rom)
                                                   ROM_WriteByte (rom)
                                                   ROM_WriteBytes (rom)
                                                   RTC_Open (rtc)
                                                   RTC_ReadTimeBytes5 (rtc)
                                                   RTC_ReadTimeBytes6 (rtc)
                                                   RTC_RetrievePulseBytes (rtc)
                                                   RTC_SetTimeStr6_B (rtc)
                                                   UART0_ClearBuffer (uart0)
                                                   UART1_ClearBuffer (uart1)
                                                   UART3_ClearBuffer (uart3)
    -------------------------------------------------------------------------
<CODE> 2 (was CODE)
  Relative segment, address: 00010578 - 0001058F (0x18 bytes), align: 1
  Segment part 67.
           ENTRY                   ADDRESS         REF BY
           =====                   =======         ======
           UpInt                   00010578        ROM_Init (rom)
                                                   ROM_ReadByte (rom)
                                                   ROM_ReadBytes (rom)
                                                   ROM_WriteByte (rom)
                                                   ROM_WriteBytes (rom)
                                                   RTC_Open (rtc)
                                                   RTC_ReadTimeBytes5 (rtc)
                                                   RTC_ReadTimeBytes6 (rtc)
                                                   RTC_RetrievePulseBytes (rtc)
                                                   RTC_SetTimeStr6_B (rtc)
                                                   UART0_ClearBuffer (uart0)
                                                   UART1_ClearBuffer (uart1)
                                                   UART3_ClearBuffer (uart3)
    -------------------------------------------------------------------------
<CODE> 2 (was CODE)
  Relative segment, address: 00010886 - 0001088B (0x6 bytes), align: 1
  Segment part 71.
           ENTRY                   ADDRESS         REF BY
           =====                   =======         ======
           EnInt                   00010886        Main_Init (main)
    -------------------------------------------------------------------------
<CODE> 2 (was CODE)
  Relative segment, address: 000107A4 - 000107B1 (0xe bytes), align: 1
  Segment part 72.            Intra module refs:   Select_Debug_Mode
           ENTRY                   ADDRESS         REF BY
           =====                   =======         ======
           Max3222_Open            000107A4 
    -------------------------------------------------------------------------
<CODE> 2 (was CODE)
  Relative segment, address: 000107C0 - 000107CD (0xe bytes), align: 1
  Segment part 73.            Intra module refs:   Select_Debug_Mode
           ENTRY                   ADDRESS         REF BY
           =====                   =======         ======
           Max3222_Close           000107C0 
    -------------------------------------------------------------------------
<CODE> 2 (was CODE)
  Relative segment, address: 000100B2 - 000100DD (0x2c bytes), align: 1
  Segment part 74.
           ENTRY                   ADDRESS         REF BY
           =====                   =======         ======
           Select_Debug_Mode       000100B2        main (main)
               calls direct
    -------------------------------------------------------------------------
<CODE> 2 (was CODE)
  Relative segment, address: 00010396 - 000103B5 (0x20 bytes), align: 1
  Segment part 75.
           ENTRY                   ADDRESS         REF BY
           =====                   =======         ======
           System_Reset            00010396        HydrologyInstantWaterLevel (hydrologytask)
                                                   Hydrology_TimeCheck (hydrologytask)
                                                   TIMERB1_ISR (timer)
               calls direct
    -------------------------------------------------------------------------
<CODE> 1 (was CODE)
  Relative segment, address: E9A6 - EA0D (0x68 bytes), align: 1
  Segment part 76.            Intra module refs:   Clock_Init
           ENTRY                   ADDRESS         REF BY
           =====                   =======         ======
           Clock_SMCLK_DIV         E9A6 
    -------------------------------------------------------------------------
<CODE> 1 (was CODE)
  Relative segment, address: EA0E - EA75 (0x68 bytes), align: 1
  Segment part 77.            Intra module refs:   Clock_Init
           ENTRY                   ADDRESS         REF BY
           =====                   =======         ======
           Clock_ACLK_DIV          EA0E 
    -------------------------------------------------------------------------
<CODE> 1 (was CODE)
  Relative segment, address: EEEC - EF41 (0x56 bytes), align: 1
  Segment part 78.            Intra module refs:   Clock_Init
           ENTRY                   ADDRESS         REF BY
           =====                   =======         ======
           Set_Vcore               EEEC 
    -------------------------------------------------------------------------
<CODE> 1 (was CODE)
  Relative segment, address: EDE4 - EE3F (0x5c bytes), align: 1
  Segment part 79.
           ENTRY                   ADDRESS         REF BY
           =====                   =======         ======
           Clock_Init              EDE4            Restart_Init (main)
               calls direct
    -------------------------------------------------------------------------
<CODE> 2 (was CODE)
  Relative segment, address: 000105F0 - 00010605 (0x16 bytes), align: 1
  Segment part 81.
           ENTRY                   ADDRESS         REF BY
           =====                   =======         ======
           Utility_Strlen          000105F0        Console_WriteString (Console)
                                                   Console_WriteStringln (Console)
                                                   WIFI_InitCmd (wifi_config)
                                                   //WIFI_SendData (wifi_config)
                                                   WIFI_Server_Start (wifi_config)
    -------------------------------------------------------------------------
<CODE> 2 (was CODE)
  Relative segment, address: 00010486 - 000104A1 (0x1c bytes), align: 1
  Segment part 80.
           ENTRY                   ADDRESS         REF BY
           =====                   =======         ======
           Utility_Strncpy         00010486        HydrologyInstantWaterLevel (hydrologytask)
                                                   HydrologySample (hydrologytask)
                                                   HydrologySaveData (hydrologytask)
                                                   Store_ReadDataItem (store)
    -------------------------------------------------------------------------
<CODE> 2 (was CODE)
  Relative segment, address: 00010240 - 00010263 (0x24 bytes), align: 1
  Segment part 91.
           ENTRY                   ADDRESS         REF BY
           =====                   =======         ======
           Utility_Strncmp         00010240        GSM_AT_CloseFeedback (GSM)
                                                   GSM_AT_OffCall (GSM)
                                                   GSM_AT_ShutDown (GSM)
                                                   GSM_DealData (GSM)
                                                   WIFI_WaitSendResult (wifi_config)
    -------------------------------------------------------------------------
<CODE> 1 (was CODE)
  Relative segment, address: F57C - F5BF (0x44 bytes), align: 1
  Segment part 92.
           ENTRY                   ADDRESS         REF BY
           =====                   =======         ======
           Utility_CharToHex       F57C            Console_WriteHexCharln (Console)
    -------------------------------------------------------------------------
<CODE> 1 (was CODE)
  Relative segment, address: E866 - E8D1 (0x6c bytes), align: 1
  Segment part 58.            Intra module refs:   TraceInt4FuncLine
           ENTRY                   ADDRESS         REF BY
           =====                   =======         ======
           Utility_UintToStr4      E866            Console_WriteInt (Console)
                                                   Hydrology_ReadEndIdx (message)
                                                   Hydrology_ReadStartIdx (message)
                                                   Hydrology_SetDataPacketCount (message)
                                                   Hydrology_SetEndIdx (message)
                                                   Hydrology_SetStartIdx (message)
               calls direct
    -------------------------------------------------------------------------
<CODE> 1 (was CODE)
  Relative segment, address: A98A - ABA1 (0x218 bytes), align: 1
  Segment part 112.
           ENTRY                   ADDRESS         REF BY
           =====                   =======         ======
           Utility_Is_A_ReportTime
                                   A98A            HydrologyInstantWaterLevel (hydrologytask)
               calls direct
    -------------------------------------------------------------------------
<CODE> 2 (was CODE)
  Relative segment, address: 00010430 - 0001044D (0x1e bytes), align: 1
  Segment part 120.
           ENTRY                   ADDRESS         REF BY
           =====                   =======         ======
           Clear_ExternWatchdog    00010430        TIMERB1_ISR (timer)
    -------------------------------------------------------------------------
DATA16_C
  Relative segment, address: 5C32 - 5C33 (0x2 bytes), align: 0
  Segment part 18.            Intra module refs:   TraceFunctionLine
    -------------------------------------------------------------------------
DATA16_C
  Relative segment, address: 5C00 - 5C11 (0x12 bytes), align: 1
  Segment part 19.            Intra module refs:   hex_2_ascii
    -------------------------------------------------------------------------
DATA16_C
  Relative segment, address: 5C34 - 5C40 (0xd bytes), align: 0
  Segment part 20.            Intra module refs:   System_Reset
           LOCAL                   ADDRESS         
           =====                   =======         
           System_Reset::__FUNCTION__
                                   5C34 
    -------------------------------------------------------------------------
DATA16_C
  Relative segment, address: 5C41 - 5C4D (0xd bytes), align: 0
  Segment part 21.            Intra module refs:   System_Reset

    *************************************************************************

  FILE NAME : C:\Users\Administrator\Desktop\师弟代码\RTUtest_GP\Debug\Obj\Console.r43
  PROGRAM MODULE, NAME : Console

  SEGMENTS IN THE MODULE
  ======================
<CODE> 2 (was CODE)
  Relative segment, address: 000108B8 - 000108BB (0x4 bytes), align: 1
  Segment part 5.             Intra module refs:   Console_WriteHexCharln
                                                   hydrologyExitReceieve (message)
                                                   hydrologyExitSend (message)
           ENTRY                   ADDRESS         REF BY
           =====                   =======         ======
           free                    000108B8 
               calls direct
    -------------------------------------------------------------------------
<CODE> 2 (was CODE)
  Relative segment, address: 00010898 - 0001089B (0x4 bytes), align: 1
  Segment part 6.             Intra module refs:   Console_WriteHexCharln
                                                   HydrologySaveData (hydrologytask)
                                                   Hydrology_CalElementInfo (message)
                                                   hydrologyInitReceieve (message)
                                                   hydrologyInitSend (message)
                                                   hydrologyMakeDownBody (message)
                                                   hydrologyMakeUpBody (message)
                                                   mallocElement (message)
           ENTRY                   ADDRESS         REF BY
           =====                   =======         ======
           malloc                  00010898 
               calls direct
    -------------------------------------------------------------------------
DATA16_Z
  Relative segment, address: 1C52 - 1C53 (0x2 bytes), align: 1
  Segment part 4.             Intra module refs:   Console_Open
                                                   Console_WriteBytes
                                                   Console_WriteBytesln
                                                   Console_WriteString
                                                   Console_WriteStringln
           LOCAL                   ADDRESS         
           =====                   =======         
           Opened                  1C52 
    -------------------------------------------------------------------------
<CODE> 2 (was CODE)
  Relative segment, address: 0001076C - 00010779 (0xe bytes), align: 1
  Segment part 7.
           ENTRY                   ADDRESS         REF BY
           =====                   =======         ======
           Console_Open            0001076C        Restart_Init (main)
                                                   Store_ReadPulseRangeBytes (store)
                                                   TraceOpen (common)
               calls direct
    -------------------------------------------------------------------------
<CODE> 2 (was CODE)
  Relative segment, address: 0001085A - 00010861 (0x8 bytes), align: 1
  Segment part 8.
           ENTRY                   ADDRESS         REF BY
           =====                   =======         ======
           Console_Close           0001085A        TraceOpen (common)
               calls direct
    -------------------------------------------------------------------------
<CODE> 1 (was CODE)
  Relative segment, address: ED26 - ED85 (0x60 bytes), align: 1
  Segment part 11.
           ENTRY                   ADDRESS         REF BY
           =====                   =======         ======
           Console_WriteHexCharln
                                   ED26            TraceHexMsgFuncLine (common)
               calls direct
    -------------------------------------------------------------------------
<CODE> 1 (was CODE)
  Relative segment, address: F708 - F747 (0x40 bytes), align: 1
  Segment part 12.
           ENTRY                   ADDRESS         REF BY
           =====                   =======         ======
           Console_WriteString     F708            TraceFunctionLine (common)
                                                   TraceMsgFuncLine (common)
               calls direct
    -------------------------------------------------------------------------
<CODE> 1 (was CODE)
  Relative segment, address: F748 - F787 (0x40 bytes), align: 1
  Segment part 10.            Intra module refs:   Console_WriteHexCharln
           ENTRY                   ADDRESS         REF BY
           =====                   =======         ======
           Console_WriteStringln   F748            GPRS_Send (GTM900C)
                                                   GSM_AT_CloseFeedback (GSM)
                                                   TraceMsgFuncLine (common)
               calls direct
    -------------------------------------------------------------------------
<CODE> 2 (was CODE)
  Relative segment, address: 00010184 - 000101A9 (0x26 bytes), align: 1
  Segment part 13.
           ENTRY                   ADDRESS         REF BY
           =====                   =======         ======
           Console_WriteBytes      00010184        TraceInt4FuncLine (common)
               calls direct
    -------------------------------------------------------------------------
<CODE> 2 (was CODE)
  Relative segment, address: 000101AA - 000101CF (0x26 bytes), align: 1
  Segment part 9.             Intra module refs:   Console_WriteHexCharln
                                                   Console_WriteInt
           ENTRY                   ADDRESS         REF BY
           =====                   =======         ======
           Console_WriteBytesln    000101AA        TraceInt4FuncLine (common)
               calls direct
    -------------------------------------------------------------------------
<CODE> 2 (was CODE)
  Relative segment, address: 0001052A - 00010543 (0x1a bytes), align: 1
  Segment part 14.
           ENTRY                   ADDRESS         REF BY
           =====                   =======         ======
           Console_WriteInt        0001052A        TraceFunctionLine (common)
               calls direct
    -------------------------------------------------------------------------
DATA16_C
  Relative segment, address: 5C4E - 5C72 (0x25 bytes), align: 0
  Segment part 2.             Intra module refs:   Console_WriteHexCharln

    *************************************************************************

  FILE NAME : C:\Users\Administrator\Desktop\师弟代码\RTUtest_GP\Debug\Obj\debug.r43
    *************************************************************************

  FILE NAME : C:\Users\Administrator\Desktop\师弟代码\RTUtest_GP\Debug\Obj\flash.r43
    *************************************************************************

  FILE NAME : C:\Users\Administrator\Desktop\师弟代码\RTUtest_GP\Debug\Obj\flow.r43
  PROGRAM MODULE, NAME : flow

  SEGMENTS IN THE MODULE
  ======================
<CODE> 1 (was CODE)
  Relative segment, address: B248 - B381 (0x13a bytes), align: 1
  Segment part 18.
           ENTRY                   ADDRESS         REF BY
           =====                   =======         ======
           FlowCheckSampleData     B248            HydrologyInstantWaterLevel (hydrologytask)
               calls direct
    -------------------------------------------------------------------------
DATA16_C
  Relative segment, address: 5C73 - 5C86 (0x14 bytes), align: 0
  Segment part 2.             Intra module refs:   FlowCheckSampleData
           LOCAL                   ADDRESS         
           =====                   =======         
           FlowCheckSampleData::__FUNCTION__
                                   5C73 
    -------------------------------------------------------------------------
DATA16_C
  Relative segment, address: 5C87 - 5CA3 (0x1d bytes), align: 0
  Segment part 3.             Intra module refs:   FlowCheckSampleData
    -------------------------------------------------------------------------
DATA16_C
  Relative segment, address: 5CA4 - 5CB2 (0xf bytes), align: 0
  Segment part 4.             Intra module refs:   FlowCheckSampleData
    -------------------------------------------------------------------------
DATA16_C
  Relative segment, address: 5CB3 - 5CBC (0xa bytes), align: 0
  Segment part 5.             Intra module refs:   FlowCheckSampleData
    -------------------------------------------------------------------------
DATA16_C
  Relative segment, address: 5CBD - 5CC4 (0x8 bytes), align: 0
  Segment part 6.             Intra module refs:   FlowCheckSampleData
    -------------------------------------------------------------------------
DATA16_C
  Relative segment, address: 5CC5 - 5CCE (0xa bytes), align: 0
  Segment part 7.             Intra module refs:   FlowCheckSampleData
    -------------------------------------------------------------------------
DATA16_C
  Relative segment, address: 5CCF - 5CD8 (0xa bytes), align: 0
  Segment part 8.             Intra module refs:   FlowCheckSampleData
    -------------------------------------------------------------------------
DATA16_C
  Relative segment, address: 5CD9 - 5CE0 (0x8 bytes), align: 0
  Segment part 9.             Intra module refs:   FlowCheckSampleData

    *************************************************************************

  FILE NAME : C:\Users\Administrator\Desktop\师弟代码\RTUtest_GP\Debug\Obj\GSM.r43
  PROGRAM MODULE, NAME : GSM

  SEGMENTS IN THE MODULE
  ======================
DATA16_AN
  Relative segment, address: 0222 - 0223 (0x2 bytes), align: 0
  Segment part 1. ROOT        Intra module refs:   Hydrology_SetIO_STATUS (hydrologycommand)
                                                   I2C_Set_sck_high (rom)
                                                   I2C_Set_sck_low (rom)
                                                   I2C_Set_sda_high (rom)
                                                   I2C_Set_sda_low (rom)
                                                   ROM_WP_OFF (rom)
                                                   ROM_WP_ON (rom)
                                                   Sampler_Init (Sampler)
                                                   WIFI_Close (wifi_config)
                                                   WIFI_Open (wifi_config)
           ENTRY                   ADDRESS         REF BY
           =====                   =======         ======
           _A_PBOUT_L              0222 
           LOCAL                   ADDRESS         
           =====                   =======         
           PBOUT                   0222 
           PBOUT_H                 0223 
           PBOUT_L                 0222 
    -------------------------------------------------------------------------
DATA16_AN
  Relative segment, address: 0224 - 0225 (0x2 bytes), align: 0
  Segment part 2. ROOT        Intra module refs:   Hydrology_SetIO_STATUS (hydrologycommand)
                                                   I2C_GetACK (rom)
                                                   I2C_Initial (rom)
                                                   I2C_RxByte (rom)
                                                   I2C_Set_sck_high (rom)
                                                   I2C_Set_sck_low (rom)
                                                   I2C_Set_sda_high (rom)
                                                   I2C_Set_sda_low (rom)
                                                   ROM_WP_OFF (rom)
                                                   ROM_WP_ON (rom)
                                                   Sampler_Init (Sampler)
                                                   WIFI_Close (wifi_config)
                                                   WIFI_Open (wifi_config)
           ENTRY                   ADDRESS         REF BY
           =====                   =======         ======
           _A_PBDIR_L              0224 
           LOCAL                   ADDRESS         
           =====                   =======         
           PBDIR                   0224 
           PBDIR_H                 0225 
           PBDIR_L                 0224 
    -------------------------------------------------------------------------
DATA16_AN
  Relative segment, address: 0244 - 0245 (0x2 bytes), align: 0
  Segment part 4. ROOT        Intra module refs:   Led_Init (led)
                                                   ROM_WP_OFF (rom)
                                                   ROM_WP_ON (rom)
                                                   UART1_Open_9600 (uart1)
           ENTRY                   ADDRESS         REF BY
           =====                   =======         ======
           _A_PCDIR_L              0244 
           LOCAL                   ADDRESS         
           =====                   =======         
           PCDIR                   0244 
           PCDIR_H                 0245 
           PCDIR_L                 0244 
    -------------------------------------------------------------------------
DATA16_Z
  Relative segment, address: 1C54 - 1C55 (0x2 bytes), align: 1
  Segment part 126.           Intra module refs:   GSM_AT_CloseFeedback
           ENTRY                   ADDRESS         REF BY
           =====                   =======         ======
           s_TimeOut               1C54 
    -------------------------------------------------------------------------
DATA16_Z
  Relative segment, address: 1C56 - 1C57 (0x2 bytes), align: 1
  Segment part 127.           Intra module refs:   GSM_DealData
           ENTRY                   ADDRESS         REF BY
           =====                   =======         ======
           s_RING                  1C56 
    -------------------------------------------------------------------------
DATA16_Z
  Relative segment, address: 1C58 - 1C59 (0x2 bytes), align: 1
  Segment part 132.           Intra module refs:   GSM_Close
                                                   GSM_DealData
           ENTRY                   ADDRESS         REF BY
           =====                   =======         ======
           s_RecvIdx               1C58 
    -------------------------------------------------------------------------
DATA16_Z
  Relative segment, address: 1C5A - 1C5B (0x2 bytes), align: 1
  Segment part 133.           Intra module refs:   GSM_Close
           ENTRY                   ADDRESS         REF BY
           =====                   =======         ======
           s_ProcIdx               1C5A 
    -------------------------------------------------------------------------
DATA16_Z
  Relative segment, address: 1C5C - 1C5D (0x2 bytes), align: 1
  Segment part 134.           Intra module refs:   GSM_Close
                                                   GSM_DealData
           ENTRY                   ADDRESS         REF BY
           =====                   =======         ======
           s_MsgNum                1C5C 
    -------------------------------------------------------------------------
DATA16_Z
  Relative segment, address: 1C5E - 1C7B (0x1e bytes), align: 1
  Segment part 135.           Intra module refs:   GSM_DealData
           ENTRY                   ADDRESS         REF BY
           =====                   =======         ======
           s_MsgArray              1C5E 
    -------------------------------------------------------------------------
DATA16_Z
  Relative segment, address: 1C7C - 1C7D (0x2 bytes), align: 1
  Segment part 136.           Intra module refs:   GSM_Close
           ENTRY                   ADDRESS         REF BY
           =====                   =======         ======
           s_MsgLeft               1C7C 
    -------------------------------------------------------------------------
<CODE> 1 (was CODE)
  Relative segment, address: F224 - F26F (0x4c bytes), align: 1
  Segment part 144.
           ENTRY                   ADDRESS         REF BY
           =====                   =======         ======
           GSM_Close               F224            GPRS_Close_GSM (GTM900C)
               calls direct
    -------------------------------------------------------------------------
<CODE> 1 (was CODE)
  Relative segment, address: C7C2 - C89F (0xde bytes), align: 1
  Segment part 146.           Intra module refs:   GSM_AT_CloseFeedback
                                                   GSM_AT_OffCall
                                                   GSM_DealAllData
           ENTRY                   ADDRESS         REF BY
           =====                   =======         ======
           GSM_DealData            C7C2 
               calls direct
    -------------------------------------------------------------------------
<CODE> 1 (was CODE)
  Relative segment, address: FEDA - FF09 (0x30 bytes), align: 1
  Segment part 142.           Intra module refs:   GSM_AT_OffCall
                                                   GSM_AT_ShutDown
           ENTRY                   ADDRESS         REF BY
           =====                   =======         ======
           GSM_DealAllData         FEDA 
               calls direct
    -------------------------------------------------------------------------
<CODE> 1 (was CODE)
  Relative segment, address: C504 - C5F3 (0xf0 bytes), align: 1
  Segment part 168.
           ENTRY                   ADDRESS         REF BY
           =====                   =======         ======
           GSM_AT_CloseFeedback    C504            GPRS_Create_TCP_Link (GTM900C)
               calls direct
    -------------------------------------------------------------------------
<CODE> 1 (was CODE)
  Relative segment, address: DEBA - DF43 (0x8a bytes), align: 1
  Segment part 143.           Intra module refs:   GSM_Close
           ENTRY                   ADDRESS         REF BY
           =====                   =======         ======
           GSM_AT_ShutDown         DEBA 
               calls direct
    -------------------------------------------------------------------------
<CODE> 1 (was CODE)
  Relative segment, address: E6AC - E71B (0x70 bytes), align: 1
  Segment part 145.           Intra module refs:   GSM_DealData
           ENTRY                   ADDRESS         REF BY
           =====                   =======         ======
           GSM_AT_OffCall          E6AC 
               calls direct
    -------------------------------------------------------------------------
<CODE> 2 (was CODE)
  Relative segment, address: 000105D8 - 000105EF (0x18 bytes), align: 1
  Segment part 141.           Intra module refs:   GSM_AT_ShutDown
           ENTRY                   ADDRESS         REF BY
           =====                   =======         ======
           GSM_AT_QuitInput        000105D8 
               calls direct
    -------------------------------------------------------------------------
DATA16_C
  Relative segment, address: 5CE1 - 5CEA (0xa bytes), align: 0
  Segment part 10.            Intra module refs:   GSM_Close
           LOCAL                   ADDRESS         
           =====                   =======         
           GSM_Close::__FUNCTION__
                                   5CE1 
    -------------------------------------------------------------------------
DATA16_C
  Relative segment, address: 5CEB - 5CF6 (0xc bytes), align: 0
  Segment part 11.            Intra module refs:   GSM_Close
    -------------------------------------------------------------------------
DATA16_C
  Relative segment, address: 5CF7 - 5CF9 (0x3 bytes), align: 0
  Segment part 35.            Intra module refs:   GSM_AT_CloseFeedback
                                                   GSM_AT_OffCall
                                                   GSM_DealData
    -------------------------------------------------------------------------
DATA16_C
  Relative segment, address: 5CFA - 5CFF (0x6 bytes), align: 0
  Segment part 40.            Intra module refs:   GSM_AT_CloseFeedback
    -------------------------------------------------------------------------
DATA16_C
  Relative segment, address: 5D00 - 5D07 (0x8 bytes), align: 0
  Segment part 47.            Intra module refs:   GSM_DealData
    -------------------------------------------------------------------------
DATA16_C
  Relative segment, address: 5D08 - 5D14 (0xd bytes), align: 0
  Segment part 95.            Intra module refs:   GSM_DealData
           LOCAL                   ADDRESS         
           =====                   =======         
           GSM_DealData::__FUNCTION__
                                   5D08 
    -------------------------------------------------------------------------
DATA16_C
  Relative segment, address: 5D15 - 5D19 (0x5 bytes), align: 0
  Segment part 96.            Intra module refs:   GSM_DealData
    -------------------------------------------------------------------------
DATA16_C
  Relative segment, address: 5D1A - 5D21 (0x8 bytes), align: 0
  Segment part 97.            Intra module refs:   GSM_DealData
    -------------------------------------------------------------------------
DATA16_C
  Relative segment, address: 5D22 - 5D29 (0x8 bytes), align: 0
  Segment part 98.            Intra module refs:   GSM_DealData
    -------------------------------------------------------------------------
DATA16_C
  Relative segment, address: 5D2A - 5D35 (0xc bytes), align: 0
  Segment part 99.            Intra module refs:   GSM_DealData
    -------------------------------------------------------------------------
DATA16_C
  Relative segment, address: 5D36 - 5D4A (0x15 bytes), align: 0
  Segment part 112.           Intra module refs:   GSM_AT_CloseFeedback
           LOCAL                   ADDRESS         
           =====                   =======         
           GSM_AT_CloseFeedback::__FUNCTION__
                                   5D36 
    -------------------------------------------------------------------------
DATA16_C
  Relative segment, address: 5D4B - 5D68 (0x1e bytes), align: 0
  Segment part 113.           Intra module refs:   GSM_AT_CloseFeedback
    -------------------------------------------------------------------------
DATA16_C
  Relative segment, address: 5D69 - 5D7E (0x16 bytes), align: 0
  Segment part 114.           Intra module refs:   GSM_AT_CloseFeedback
    -------------------------------------------------------------------------
DATA16_C
  Relative segment, address: 5D7F - 5D83 (0x5 bytes), align: 0
  Segment part 115.           Intra module refs:   GSM_AT_CloseFeedback
    -------------------------------------------------------------------------
DATA16_C
  Relative segment, address: 5D84 - 5D9A (0x17 bytes), align: 0
  Segment part 116.           Intra module refs:   GSM_AT_CloseFeedback
    -------------------------------------------------------------------------
DATA16_C
  Relative segment, address: 5D9B - 5DCC (0x32 bytes), align: 0
  Segment part 121.           Intra module refs:   GSM_AT_ShutDown
    -------------------------------------------------------------------------
DATA16_C
  Relative segment, address: 5DCD - 5DDA (0xe bytes), align: 0
  Segment part 122.           Intra module refs:   GSM_AT_ShutDown
    -------------------------------------------------------------------------
DATA16_C
  Relative segment, address: 5DDB - 5DDE (0x4 bytes), align: 0
  Segment part 123.           Intra module refs:   GSM_AT_OffCall

    *************************************************************************

  FILE NAME : C:\Users\Administrator\Desktop\师弟代码\RTUtest_GP\Debug\Obj\GTM900C.r43
  PROGRAM MODULE, NAME : GTM900C

  SEGMENTS IN THE MODULE
  ======================
DATA16_I
  Relative segment, address: 1C00 - 1C01 (0x2 bytes), align: 1
  Segment part 151.           Intra module refs:   GPRS_Close_GSM
                                                   GPRS_Close_TCP_Link
                                                   GPRS_Create_TCP_Link
                                                   GPRS_Send
           ENTRY                   ADDRESS         REF BY
           =====                   =======         ======
           gprsConfigSuccess       1C00            Hydrology_TimeCheck (hydrologytask)
    -------------------------------------------------------------------------
<CODE> 1 (was CODE)
  Relative segment, address: CCC0 - CD8B (0xcc bytes), align: 1
  Segment part 196.           Intra module refs:   GPRS_Send
           ENTRY                   ADDRESS         REF BY
           =====                   =======         ======
           GPRS_Create_TCP_Link    CCC0            Hydrology_TimeCheck (hydrologytask)
               calls direct
    -------------------------------------------------------------------------
<CODE> 2 (was CODE)
  Relative segment, address: 00010544 - 0001055D (0x1a bytes), align: 1
  Segment part 197.
           ENTRY                   ADDRESS         REF BY
           =====                   =======         ======
           GPRS_Close_TCP_Link     00010544        Hydrology_SendData (message)
               calls direct
    -------------------------------------------------------------------------
<CODE> 2 (was CODE)
  Relative segment, address: 00010688 - 00010699 (0x12 bytes), align: 1
  Segment part 198.           Intra module refs:   GPRS_Send
           ENTRY                   ADDRESS         REF BY
           =====                   =======         ======
           GPRS_Close_GSM          00010688        Hydrology_SendData (message)
                                                   Hydrology_TimeCheck (hydrologytask)
               calls direct
    -------------------------------------------------------------------------
<CODE> 1 (was CODE)
  Relative segment, address: C5F4 - C6DB (0xe8 bytes), align: 1
  Segment part 199.
           ENTRY                   ADDRESS         REF BY
           =====                   =======         ======
           GPRS_Send               C5F4            Hydrology_SendData (message)
               calls direct
    -------------------------------------------------------------------------
DATA16_ID
  Relative segment, address: 6508 - 6509 (0x2 bytes), align: 1
  Segment part 152.           Intra module refs:   gprsConfigSuccess
    -------------------------------------------------------------------------
DATA16_C
  Relative segment, address: 5DDF - 5DF2 (0x14 bytes), align: 0
  Segment part 132.           Intra module refs:   GPRS_Close_TCP_Link
           LOCAL                   ADDRESS         
           =====                   =======         
           GPRS_Close_TCP_Link::__FUNCTION__
                                   5DDF 
    -------------------------------------------------------------------------
DATA16_C
  Relative segment, address: 5DF3 - 5DFF (0xd bytes), align: 0
  Segment part 133.           Intra module refs:   GPRS_Close_TCP_Link
    -------------------------------------------------------------------------
DATA16_C
  Relative segment, address: 5E00 - 5E09 (0xa bytes), align: 0
  Segment part 134.           Intra module refs:   GPRS_Send
           LOCAL                   ADDRESS         
           =====                   =======         
           GPRS_Send::__FUNCTION__
                                   5E00 
    -------------------------------------------------------------------------
DATA16_C
  Relative segment, address: 5E0A - 5E49 (0x40 bytes), align: 0
  Segment part 136.           Intra module refs:   GPRS_Send
    -------------------------------------------------------------------------
DATA16_C
  Relative segment, address: 5E4A - 5E60 (0x17 bytes), align: 0
  Segment part 137.           Intra module refs:   GPRS_Send
    -------------------------------------------------------------------------
DATA16_C
  Relative segment, address: 5E61 - 5E7B (0x1b bytes), align: 0
  Segment part 138.           Intra module refs:   GPRS_Send

    *************************************************************************

  FILE NAME : C:\Users\Administrator\Desktop\师弟代码\RTUtest_GP\Debug\Obj\hydrologycommand.r43
  PROGRAM MODULE, NAME : hydrologycommand

  SEGMENTS IN THE MODULE
  ======================
DATA16_AN
  Relative segment, address: 0200 - 0201 (0x2 bytes), align: 0
  Segment part 1. ROOT        Intra module refs:   Hydrology_ReadIO_STATUS
           ENTRY                   ADDRESS         REF BY
           =====                   =======         ======
           _A_PAIN_L               0200 
           LOCAL                   ADDRESS         
           =====                   =======         
           PAIN                    0200 
           PAIN_H                  0201 
           PAIN_L                  0200 
    -------------------------------------------------------------------------
DATA16_AN
  Relative segment, address: 0260 - 0261 (0x2 bytes), align: 0
  Segment part 4. ROOT        Intra module refs:   Hydrology_ReadIO_STATUS
           ENTRY                   ADDRESS         REF BY
           =====                   =======         ======
           _A_PDIN_L               0260 
           LOCAL                   ADDRESS         
           =====                   =======         
           PDIN                    0260 
           PDIN_H                  0261 
           PDIN_L                  0260 
    -------------------------------------------------------------------------
DATA16_AN
  Relative segment, address: 02A2 - 02A3 (0x2 bytes), align: 0
  Segment part 7. ROOT        Intra module refs:   Hydrology_ReadIO_STATUS
           ENTRY                   ADDRESS         REF BY
           =====                   =======         ======
           _A_PFOUT_L              02A2 
           LOCAL                   ADDRESS         
           =====                   =======         
           PFOUT                   02A2 
           PFOUT_H                 02A3 
           PFOUT_L                 02A2 
    -------------------------------------------------------------------------
DATA16_AN
  Relative segment, address: 02A4 - 02A5 (0x2 bytes), align: 0
  Segment part 8. ROOT        Intra module refs:   Hydrology_ReadIO_STATUS
           ENTRY                   ADDRESS         REF BY
           =====                   =======         ======
           _A_PFDIR_L              02A4 
           LOCAL                   ADDRESS         
           =====                   =======         
           PFDIR                   02A4 
           PFDIR_H                 02A5 
           PFDIR_L                 02A4 
    -------------------------------------------------------------------------
DATA16_Z
  Relative segment, address: 1C7E - 1C7F (0x2 bytes), align: 1
  Segment part 20.            Intra module refs:   Hydrology_ReadRS485
                                                   hydrologySetPara
           ENTRY                   ADDRESS         REF BY
           =====                   =======         ======
           RS485RegisterCount      1C7E            HydrologyUpdateElementTable (hydrologytask)
    -------------------------------------------------------------------------
<CODE> 2 (was CODE)
  Relative segment, address: 00010874 - 00010879 (0x6 bytes), align: 1
  Segment part 24.            Intra module refs:   RS485_Send
           ENTRY                   ADDRESS         REF BY
           =====                   =======         ======
           RS485_SerilWrite        00010874 
               calls direct
    -------------------------------------------------------------------------
<CODE> 2 (was CODE)
  Relative segment, address: 000107F4 - 000107FF (0xc bytes), align: 1
  Segment part 25.            Intra module refs:   RS485_Read
           ENTRY                   ADDRESS         REF BY
           =====                   =======         ======
           RS485_SerilRead         000107F4 
               calls direct
    -------------------------------------------------------------------------
<CODE> 2 (was CODE)
  Relative segment, address: 000108B0 - 000108B3 (0x4 bytes), align: 1
  Segment part 26.            Intra module refs:   Hydrology_ReadRS485
                                                   RS485_Send
           ENTRY                   ADDRESS         REF BY
           =====                   =======         ======
           RS485_Delayms           000108B0 
               calls direct
    -------------------------------------------------------------------------
<CODE> 2 (was CODE)
  Relative segment, address: 000108A8 - 000108AB (0x4 bytes), align: 1
  Segment part 27.            Intra module refs:   RS485_Send
           ENTRY                   ADDRESS         REF BY
           =====                   =======         ======
           RS485_Delayus           000108A8 
               calls direct
    -------------------------------------------------------------------------
<CODE> 1 (was CODE)
  Relative segment, address: EE96 - EEEB (0x56 bytes), align: 1
  Segment part 28.            Intra module refs:   Hydrology_ReadRS485
           ENTRY                   ADDRESS         REF BY
           =====                   =======         ======
           RS485_ValueDefine       EE96 
               calls direct
    -------------------------------------------------------------------------
<CODE> 1 (was CODE)
  Relative segment, address: E71C - E78B (0x70 bytes), align: 1
  Segment part 29.            Intra module refs:   Hydrology_ReadRS485
           ENTRY                   ADDRESS         REF BY
           =====                   =======         ======
           RS485_Send              E71C 
               calls direct
    -------------------------------------------------------------------------
<CODE> 1 (was CODE)
  Relative segment, address: E63A - E6AB (0x72 bytes), align: 1
  Segment part 30.            Intra module refs:   Hydrology_ReadRS485
           ENTRY                   ADDRESS         REF BY
           =====                   =======         ======
           RS485_Read              E63A 
               calls direct
    -------------------------------------------------------------------------
<CODE> 1 (was CODE)
  Relative segment, address: C6DC - C7C1 (0xe6 bytes), align: 1
  Segment part 31.
           ENTRY                   ADDRESS         REF BY
           =====                   =======         ======
           Hydrology_ReadRS485     C6DC            HydrologySample (hydrologytask)
               calls direct
    -------------------------------------------------------------------------
DATA16_Z
  Relative segment, address: 1CFA - 1CFA (0x1 bytes), align: 0
  Segment part 21.            Intra module refs:   Hydrology_ReadRS485
           LOCAL                   ADDRESS         
           =====                   =======         
           Hydrology_ReadRS485::rs485_count
                                   1CFA 
    -------------------------------------------------------------------------
<CODE> 1 (was CODE)
  Relative segment, address: CB24 - CBF1 (0xce bytes), align: 1
  Segment part 32.
           ENTRY                   ADDRESS         REF BY
           =====                   =======         ======
           Hydrology_ReadIO_STATUS
                                   CB24            HydrologySample (hydrologytask)
    -------------------------------------------------------------------------
<CODE> 2 (was CODE)
  Relative segment, address: 000107B2 - 000107BF (0xe bytes), align: 1
  Segment part 33.            Intra module refs:   hydrologyGate
                                                   hydrologyPump
                                                   hydrologyValve
           ENTRY                   ADDRESS         REF BY
           =====                   =======         ======
           Hydrology_SetIO_STATUS
                                   000107B2 
    -------------------------------------------------------------------------
<CODE> 2 (was CODE)
  Relative segment, address: 000108C6 - 000108C7 (0x2 bytes), align: 1
  Segment part 34.            Intra module refs:   HydrologyReadSuiteElement
                                                   hydrologyCommand
           ENTRY                   ADDRESS         REF BY
           =====                   =======         ======
           hydrologyChangeMode     000108C6 
    -------------------------------------------------------------------------
<CODE> 1 (was CODE)
  Relative segment, address: B5E2 - B70B (0x12a bytes), align: 1
  Segment part 35.            Intra module refs:   hydrologyBasicInfoConfig
           ENTRY                   ADDRESS         REF BY
           =====                   =======         ======
           hydrologyConfigSelect   B5E2 
               calls direct
    -------------------------------------------------------------------------
<CODE> 1 (was CODE)
  Relative segment, address: B70C - B835 (0x12a bytes), align: 1
  Segment part 36.            Intra module refs:   HydrologyReadSuiteElement
                                                   hydrologyBasicInfoRead
           ENTRY                   ADDRESS         REF BY
           =====                   =======         ======
           hydrologyReadSelect     B70C 
               calls direct
    -------------------------------------------------------------------------
<CODE> 1 (was CODE)
  Relative segment, address: E050 - E0D5 (0x86 bytes), align: 1
  Segment part 37.            Intra module refs:   hydrologyCommand
           ENTRY                   ADDRESS         REF BY
           =====                   =======         ======
           hydrologyBasicInfoConfig
                                   E050 
               calls direct
    -------------------------------------------------------------------------
<CODE> 1 (was CODE)
  Relative segment, address: E0D6 - E15B (0x86 bytes), align: 1
  Segment part 38.            Intra module refs:   hydrologyCommand
           ENTRY                   ADDRESS         REF BY
           =====                   =======         ======
           hydrologyBasicInfoRead
                                   E0D6 
               calls direct
    -------------------------------------------------------------------------
<CODE> 1 (was CODE)
  Relative segment, address: 7AFC - 7FC7 (0x4cc bytes), align: 1
  Segment part 39.            Intra module refs:   hydrologySetPara
           ENTRY                   ADDRESS         REF BY
           =====                   =======         ======
           hydrologySetParaSelect
                                   7AFC 
               calls direct
    -------------------------------------------------------------------------
<CODE> 1 (was CODE)
  Relative segment, address: 7FC8 - 848B (0x4c4 bytes), align: 1
  Segment part 40.            Intra module refs:   HydrologyReadSuiteElement
                                                   hydrologyReadPara
           ENTRY                   ADDRESS         REF BY
           =====                   =======         ======
           hydrologyReadParaSelect
                                   7FC8 
               calls direct
    -------------------------------------------------------------------------
<CODE> 1 (was CODE)
  Relative segment, address: A528 - A767 (0x240 bytes), align: 1
  Segment part 41.            Intra module refs:   hydrologySetPara
           ENTRY                   ADDRESS         REF BY
           =====                   =======         ======
           getElementDd            A528            HydrologyUpdateElementTable (hydrologytask)
    -------------------------------------------------------------------------
<CODE> 1 (was CODE)
  Relative segment, address: 995C - 9CE1 (0x386 bytes), align: 1
  Segment part 42.            Intra module refs:   hydrologyCommand
           ENTRY                   ADDRESS         REF BY
           =====                   =======         ======
           hydrologySetPara        995C 
               calls direct
    -------------------------------------------------------------------------
<CODE> 1 (was CODE)
  Relative segment, address: DF44 - DFC9 (0x86 bytes), align: 1
  Segment part 43.            Intra module refs:   hydrologyCommand
           ENTRY                   ADDRESS         REF BY
           =====                   =======         ======
           hydrologyReadPara       DF44 
               calls direct
    -------------------------------------------------------------------------
<CODE> 1 (was CODE)
  Relative segment, address: E550 - E5C5 (0x76 bytes), align: 1
  Segment part 44.            Intra module refs:   HydrologyReadSuiteElement
                                                   hydrologyCommand
           ENTRY                   ADDRESS         REF BY
           =====                   =======         ======
           hydrologyInitializeSolidStorage
                                   E550 
               calls direct
    -------------------------------------------------------------------------
<CODE> 1 (was CODE)
  Relative segment, address: 7616 - 7AFB (0x4e6 bytes), align: 1
  Segment part 45.            Intra module refs:   hydrologyCommand
           ENTRY                   ADDRESS         REF BY
           =====                   =======         ======
           Hydrology_Reset         7616 
               calls direct
    -------------------------------------------------------------------------
<CODE> 1 (was CODE)
  Relative segment, address: FA5A - FA91 (0x38 bytes), align: 1
  Segment part 46.            Intra module refs:   HydrologyReadSuiteElement
                                                   hydrologyCommand
           ENTRY                   ADDRESS         REF BY
           =====                   =======         ======
           Hydrology_SetPassword   FA5A 
               calls direct
    -------------------------------------------------------------------------
<CODE> 2 (was CODE)
  Relative segment, address: 00010412 - 0001042F (0x1e bytes), align: 1
  Segment part 47.            Intra module refs:   HydrologyReadSuiteElement
                                                   hydrologyCommand
           ENTRY                   ADDRESS         REF BY
           =====                   =======         ======
           hydrologySetClock       00010412 
               calls direct
    -------------------------------------------------------------------------
<CODE> 1 (was CODE)
  Relative segment, address: FACA - FB01 (0x38 bytes), align: 1
  Segment part 48.            Intra module refs:   HydrologyReadSuiteElement
                                                   hydrologyCommand
           ENTRY                   ADDRESS         REF BY
           =====                   =======         ======
           hydrologySetICCard      FACA 
               calls direct
    -------------------------------------------------------------------------
<CODE> 1 (was CODE)
  Relative segment, address: EF98 - EFEB (0x54 bytes), align: 1
  Segment part 49.            Intra module refs:   HydrologyReadSuiteElement
                                                   hydrologyCommand
           ENTRY                   ADDRESS         REF BY
           =====                   =======         ======
           hydrologyPump           EF98 
               calls direct
    -------------------------------------------------------------------------
<CODE> 1 (was CODE)
  Relative segment, address: EFEC - F03F (0x54 bytes), align: 1
  Segment part 50.            Intra module refs:   HydrologyReadSuiteElement
                                                   hydrologyCommand
           ENTRY                   ADDRESS         REF BY
           =====                   =======         ======
           hydrologyValve          EFEC 
               calls direct
    -------------------------------------------------------------------------
<CODE> 1 (was CODE)
  Relative segment, address: E7FA - E865 (0x6c bytes), align: 1
  Segment part 51.            Intra module refs:   HydrologyReadSuiteElement
                                                   hydrologyCommand
           ENTRY                   ADDRESS         REF BY
           =====                   =======         ======
           hydrologyGate           E7FA 
               calls direct
    -------------------------------------------------------------------------
<CODE> 1 (was CODE)
  Relative segment, address: F9E6 - FA1F (0x3a bytes), align: 1
  Segment part 52.            Intra module refs:   HydrologyReadSuiteElement
                                                   hydrologyCommand
           ENTRY                   ADDRESS         REF BY
           =====                   =======         ======
           hydrologyWaterSetting   F9E6 
               calls direct
    -------------------------------------------------------------------------
<CODE> 1 (was CODE)
  Relative segment, address: EA76 - EADB (0x66 bytes), align: 1
  Segment part 53.            Intra module refs:   HydrologyReadSuiteElement
                                                   hydrologyCommand
           ENTRY                   ADDRESS         REF BY
           =====                   =======         ======
           HydrologyRecord         EA76            Hydrology_SendData (message)
               calls direct
    -------------------------------------------------------------------------
DATA16_Z
  Relative segment, address: 1CFB - 1CFB (0x1 bytes), align: 0
  Segment part 22.            Intra module refs:   hydrologyCommand
           ENTRY                   ADDRESS         REF BY
           =====                   =======         ======
           IsQuery                 1CFB            Hydrology_SendData (message)
    -------------------------------------------------------------------------
<CODE> 1 (was CODE)
  Relative segment, address: D08A - D13D (0xb4 bytes), align: 1
  Segment part 54.
           ENTRY                   ADDRESS         REF BY
           =====                   =======         ======
           hydrologyCommand        D08A            hydrologyProcessReceieve (message)
               calls direct
    -------------------------------------------------------------------------
<CODE> 1 (was CODE)
  Relative segment, address: D3F0 - D495 (0xa6 bytes), align: 1
  Segment part 55.
           ENTRY                   ADDRESS         REF BY
           =====                   =======         ======
           HydrologyReadSuiteElement
                                   D3F0            Hydrology_CalElementInfo (message)
               calls direct
    -------------------------------------------------------------------------
DATA16_C
  Relative segment, address: 5E7C - 5E86 (0xb bytes), align: 0
  Segment part 10.            Intra module refs:   RS485_Send
           LOCAL                   ADDRESS         
           =====                   =======         
           RS485_Send::__FUNCTION__
                                   5E7C 
    -------------------------------------------------------------------------
DATA16_C
  Relative segment, address: 5E87 - 5E91 (0xb bytes), align: 0
  Segment part 11.            Intra module refs:   RS485_Read
           LOCAL                   ADDRESS         
           =====                   =======         
           RS485_Read::__FUNCTION__
                                   5E87 
    -------------------------------------------------------------------------
DATA16_C
  Relative segment, address: 5E92 - 5EA9 (0x18 bytes), align: 0
  Segment part 12.            Intra module refs:   RS485_Read
    -------------------------------------------------------------------------
DATA16_C
  Relative segment, address: 5EAA - 5EBA (0x11 bytes), align: 0
  Segment part 15.            Intra module refs:   hydrologySetPara
           LOCAL                   ADDRESS         
           =====                   =======         
           hydrologySetPara::__FUNCTION__
                                   5EAA 
    -------------------------------------------------------------------------
DATA16_C
  Relative segment, address: 5EBB - 5EC9 (0xf bytes), align: 0
  Segment part 19.            Intra module refs:   Hydrology_Reset

    *************************************************************************

  FILE NAME : C:\Users\Administrator\Desktop\师弟代码\RTUtest_GP\Debug\Obj\hydrologytask.r43
  PROGRAM MODULE, NAME : hydrologytask

  SEGMENTS IN THE MODULE
  ======================
DATA16_Z
  Relative segment, address: 1C80 - 1C81 (0x2 bytes), align: 1
  Segment part 30.            Intra module refs:   HydrologyInstantWaterLevel
                                                   HydrologyTimeBase
           ENTRY                   ADDRESS         REF BY
           =====                   =======         ======
           time_10min              1C80 
    -------------------------------------------------------------------------
DATA16_Z
  Relative segment, address: 1C82 - 1C83 (0x2 bytes), align: 1
  Segment part 31.            Intra module refs:   HydrologyTimeBase
           ENTRY                   ADDRESS         REF BY
           =====                   =======         ======
           time_5min               1C82 
    -------------------------------------------------------------------------
DATA16_I
  Relative segment, address: 1C02 - 1C03 (0x2 bytes), align: 1
  Segment part 32.            Intra module refs:   HydrologyTask
                                                   HydrologyTimeBase
           ENTRY                   ADDRESS         REF BY
           =====                   =======         ======
           time_1min               1C02 
    -------------------------------------------------------------------------
<CODE> 2 (was CODE)
  Relative segment, address: 00010788 - 00010795 (0xe bytes), align: 1
  Segment part 40.
           ENTRY                   ADDRESS         REF BY
           =====                   =======         ======
           HydrologyTimeBase       00010788        TIMERA0_ISR (timer)
    -------------------------------------------------------------------------
<CODE> 1 (was CODE)
  Relative segment, address: F538 - F57B (0x44 bytes), align: 1
  Segment part 41.            Intra module refs:   HydrologySample
           ENTRY                   ADDRESS         REF BY
           =====                   =======         ======
           convertSampleTimetoHydrology
                                   F538 
               calls direct
    -------------------------------------------------------------------------
<CODE> 1 (was CODE)
  Relative segment, address: F136 - F185 (0x50 bytes), align: 1
  Segment part 42.
           ENTRY                   ADDRESS         REF BY
           =====                   =======         ======
           convertSendTimetoHydrology
                                   F136            Hydrology_ReadTime (message)
               calls direct
    -------------------------------------------------------------------------
<CODE> 1 (was CODE)
  Relative segment, address: F788 - F7C5 (0x3e bytes), align: 1
  Segment part 43.            Intra module refs:   ADC_Element
           ENTRY                   ADDRESS         REF BY
           =====                   =======         ======
           ConvertAnalog           F788 
               calls direct
    -------------------------------------------------------------------------
<CODE> 1 (was CODE)
  Relative segment, address: F186 - F1D5 (0x50 bytes), align: 1
  Segment part 44.            Intra module refs:   HydrologySample
           ENTRY                   ADDRESS         REF BY
           =====                   =======         ======
           ADC_Element             F186 
               calls direct
    -------------------------------------------------------------------------
DATA16_Z
  Relative segment, address: 1CFC - 1CFF (0x4 bytes), align: 0
  Segment part 35.            Intra module refs:   HydrologySample
           ENTRY                   ADDRESS         REF BY
           =====                   =======         ======
           value                   1CFC 
    -------------------------------------------------------------------------
<CODE> 1 (was CODE)
  Relative segment, address: AE82 - AFCB (0x14a bytes), align: 1
  Segment part 45.
           ENTRY                   ADDRESS         REF BY
           =====                   =======         ======
           HydrologyUpdateElementTable
                                   AE82            main (main)
               calls direct
    -------------------------------------------------------------------------
<CODE> 1 (was CODE)
  Relative segment, address: E264 - E2E5 (0x82 bytes), align: 1
  Segment part 46.
           ENTRY                   ADDRESS         REF BY
           =====                   =======         ======
           HydrologyDataPacketInit
                                   E264            main (main)
               calls direct
    -------------------------------------------------------------------------
<CODE> 1 (was CODE)
  Relative segment, address: 9CE2 - 9FCB (0x2ea bytes), align: 1
  Segment part 47.            Intra module refs:   HydrologyTask
           ENTRY                   ADDRESS         REF BY
           =====                   =======         ======
           HydrologySample         9CE2 
               calls direct
    -------------------------------------------------------------------------
DATA16_Z
  Relative segment, address: 1D00 - 1D05 (0x6 bytes), align: 0
  Segment part 36.            Intra module refs:   HydrologySample
           LOCAL                   ADDRESS         
           =====                   =======         
           HydrologySample::sampletime
                                   1D00 
    -------------------------------------------------------------------------
<CODE> 1 (was CODE)
  Relative segment, address: 8DEE - 91D9 (0x3ec bytes), align: 1
  Segment part 50.            Intra module refs:   HydrologyTask
           ENTRY                   ADDRESS         REF BY
           =====                   =======         ======
           HydrologySaveData       8DEE 
               calls direct
    -------------------------------------------------------------------------
DATA16_Z
  Relative segment, address: 1D06 - 1D0B (0x6 bytes), align: 0
  Segment part 37.            Intra module refs:   HydrologySaveData
           LOCAL                   ADDRESS         
           =====                   =======         
           HydrologySaveData::storetime
                                   1D06 
    -------------------------------------------------------------------------
<CODE> 1 (was CODE)
  Relative segment, address: A768 - A989 (0x222 bytes), align: 1
  Segment part 51.            Intra module refs:   HydrologyTask
           ENTRY                   ADDRESS         REF BY
           =====                   =======         ======
           HydrologyInstantWaterLevel
                                   A768 
               calls direct
    -------------------------------------------------------------------------
DATA16_Z
  Relative segment, address: 1D0C - 1D11 (0x6 bytes), align: 0
  Segment part 38.            Intra module refs:   HydrologyInstantWaterLevel
           LOCAL                   ADDRESS         
           =====                   =======         
           HydrologyInstantWaterLevel::endtime
                                   1D0C 
    -------------------------------------------------------------------------
<CODE> 1 (was CODE)
  Relative segment, address: B382 - B4B1 (0x130 bytes), align: 1
  Segment part 53.            Intra module refs:   HydrologyTask
           ENTRY                   ADDRESS         REF BY
           =====                   =======         ======
           Hydrology_TimeCheck     B382 
               calls direct
    -------------------------------------------------------------------------
<CODE> 1 (was CODE)
  Relative segment, address: EF42 - EF97 (0x56 bytes), align: 1
  Segment part 54.
           ENTRY                   ADDRESS         REF BY
           =====                   =======         ======
           HydrologyTask           EF42            main (main)
               calls direct
    -------------------------------------------------------------------------
DATA16_ID
  Relative segment, address: 650A - 650B (0x2 bytes), align: 1
  Segment part 33.            Intra module refs:   time_1min
    -------------------------------------------------------------------------
DATA16_C
  Relative segment, address: 5C12 - 5C31 (0x20 bytes), align: 1
  Segment part 2.             Intra module refs:   ADC_Element
    -------------------------------------------------------------------------
DATA16_C
  Relative segment, address: 5ECA - 5EE5 (0x1c bytes), align: 0
  Segment part 3.             Intra module refs:   HydrologyUpdateElementTable
           LOCAL                   ADDRESS         
           =====                   =======         
           HydrologyUpdateElementTable::__FUNCTION__
                                   5ECA 
    -------------------------------------------------------------------------
DATA16_C
  Relative segment, address: 5EE6 - 5EF5 (0x10 bytes), align: 0
  Segment part 4.             Intra module refs:   HydrologySample
           LOCAL                   ADDRESS         
           =====                   =======         
           HydrologySample::__FUNCTION__
                                   5EE6 
    -------------------------------------------------------------------------
DATA16_C
  Relative segment, address: 5EF6 - 5F06 (0x11 bytes), align: 0
  Segment part 7.             Intra module refs:   HydrologySample
    -------------------------------------------------------------------------
DATA16_C
  Relative segment, address: 5F07 - 5F18 (0x12 bytes), align: 0
  Segment part 8.             Intra module refs:   HydrologySample
    -------------------------------------------------------------------------
DATA16_C
  Relative segment, address: 5F19 - 5F27 (0xf bytes), align: 0
  Segment part 9.             Intra module refs:   HydrologySample
    -------------------------------------------------------------------------
DATA16_C
  Relative segment, address: 5F28 - 5F39 (0x12 bytes), align: 0
  Segment part 10.            Intra module refs:   HydrologySaveData
           LOCAL                   ADDRESS         
           =====                   =======         
           HydrologySaveData::__FUNCTION__
                                   5F28 
    -------------------------------------------------------------------------
DATA16_C
  Relative segment, address: 5F3A - 5F48 (0xf bytes), align: 0
  Segment part 11.            Intra module refs:   HydrologySaveData
    -------------------------------------------------------------------------
DATA16_C
  Relative segment, address: 5F49 - 5F58 (0x10 bytes), align: 0
  Segment part 12.            Intra module refs:   HydrologySaveData
    -------------------------------------------------------------------------
DATA16_C
  Relative segment, address: 5F59 - 5F6A (0x12 bytes), align: 0
  Segment part 14.            Intra module refs:   HydrologySaveData
    -------------------------------------------------------------------------
DATA16_C
  Relative segment, address: 5F6B - 5F85 (0x1b bytes), align: 0
  Segment part 15.            Intra module refs:   HydrologyInstantWaterLevel
           LOCAL                   ADDRESS         
           =====                   =======         
           HydrologyInstantWaterLevel::__FUNCTION__
                                   5F6B 
    -------------------------------------------------------------------------
DATA16_C
  Relative segment, address: 5F86 - 5F95 (0x10 bytes), align: 0
  Segment part 16.            Intra module refs:   HydrologyInstantWaterLevel
    -------------------------------------------------------------------------
DATA16_C
  Relative segment, address: 5F96 - 5FA2 (0xd bytes), align: 0
  Segment part 17.            Intra module refs:   HydrologyInstantWaterLevel
    -------------------------------------------------------------------------
DATA16_C
  Relative segment, address: 5FA3 - 5FB1 (0xf bytes), align: 0
  Segment part 19.            Intra module refs:   HydrologyInstantWaterLevel
    -------------------------------------------------------------------------
DATA16_C
  Relative segment, address: 5FB2 - 5FC7 (0x16 bytes), align: 0
  Segment part 20.            Intra module refs:   HydrologyInstantWaterLevel
    -------------------------------------------------------------------------
DATA16_C
  Relative segment, address: 5FC8 - 5FE4 (0x1d bytes), align: 0
  Segment part 21.            Intra module refs:   HydrologyInstantWaterLevel
    -------------------------------------------------------------------------
DATA16_C
  Relative segment, address: 5FE5 - 5FF5 (0x11 bytes), align: 0
  Segment part 22.            Intra module refs:   HydrologyInstantWaterLevel
    -------------------------------------------------------------------------
DATA16_C
  Relative segment, address: 5FF6 - 6001 (0xc bytes), align: 0
  Segment part 23.            Intra module refs:   HydrologyInstantWaterLevel
    -------------------------------------------------------------------------
DATA16_C
  Relative segment, address: 6002 - 6015 (0x14 bytes), align: 0
  Segment part 24.            Intra module refs:   Hydrology_TimeCheck
           LOCAL                   ADDRESS         
           =====                   =======         
           Hydrology_TimeCheck::__FUNCTION__
                                   6002 
    -------------------------------------------------------------------------
DATA16_C
  Relative segment, address: 6016 - 6028 (0x13 bytes), align: 0
  Segment part 25.            Intra module refs:   Hydrology_TimeCheck
    -------------------------------------------------------------------------
DATA16_C
  Relative segment, address: 6029 - 603D (0x15 bytes), align: 0
  Segment part 26.            Intra module refs:   Hydrology_TimeCheck
    -------------------------------------------------------------------------
DATA16_C
  Relative segment, address: 603E - 6052 (0x15 bytes), align: 0
  Segment part 27.            Intra module refs:   Hydrology_TimeCheck
    -------------------------------------------------------------------------
DATA16_C
  Relative segment, address: 6053 - 6062 (0x10 bytes), align: 0
  Segment part 29.            Intra module refs:   Hydrology_TimeCheck

    *************************************************************************

  FILE NAME : C:\Users\Administrator\Desktop\师弟代码\RTUtest_GP\Debug\Obj\ioDev.r43
    *************************************************************************

  FILE NAME : C:\Users\Administrator\Desktop\师弟代码\RTUtest_GP\Debug\Obj\led.r43
  PROGRAM MODULE, NAME : led

  SEGMENTS IN THE MODULE
  ======================
DATA16_AN
  Relative segment, address: 0262 - 0263 (0x2 bytes), align: 0
  Segment part 4. ROOT        Intra module refs:   Led_Init
           ENTRY                   ADDRESS         REF BY
           =====                   =======         ======
           _A_PDOUT_L              0262 
           LOCAL                   ADDRESS         
           =====                   =======         
           PDOUT                   0262 
           PDOUT_H                 0263 
           PDOUT_L                 0262 
    -------------------------------------------------------------------------
DATA16_AN
  Relative segment, address: 0264 - 0265 (0x2 bytes), align: 0
  Segment part 5. ROOT        Intra module refs:   Led_Init
           ENTRY                   ADDRESS         REF BY
           =====                   =======         ======
           _A_PDDIR_L              0264 
           LOCAL                   ADDRESS         
           =====                   =======         
           PDDIR                   0264 
           PDDIR_H                 0265 
           PDDIR_L                 0264 
    -------------------------------------------------------------------------
<CODE> 1 (was CODE)
  Relative segment, address: F804 - F841 (0x3e bytes), align: 1
  Segment part 10.
           ENTRY                   ADDRESS         REF BY
           =====                   =======         ======
           Led_Init                F804            Restart_Init (main)
    -------------------------------------------------------------------------
<CODE> 2 (was CODE)
  Relative segment, address: 00010880 - 00010885 (0x6 bytes), align: 1
  Segment part 22.            Intra module refs:   Led1_WARN
           ENTRY                   ADDRESS         REF BY
           =====                   =======         ======
           Led1_On                 00010880 
    -------------------------------------------------------------------------
<CODE> 2 (was CODE)
  Relative segment, address: 00010868 - 0001086D (0x6 bytes), align: 1
  Segment part 21.            Intra module refs:   Led1_WARN
           ENTRY                   ADDRESS         REF BY
           =====                   =======         ======
           Led1_Off                00010868 
    -------------------------------------------------------------------------
<CODE> 1 (was CODE)
  Relative segment, address: F350 - F397 (0x48 bytes), align: 1
  Segment part 27.
           ENTRY                   ADDRESS         REF BY
           =====                   =======         ======
           Led1_WARN               F350            GSM_DealData (GSM)
               calls direct

    *************************************************************************

  FILE NAME : C:\Users\Administrator\Desktop\师弟代码\RTUtest_GP\Debug\Obj\main.r43
  PROGRAM MODULE, NAME : main

  SEGMENTS IN THE MODULE
  ======================
DATA16_AN
  Relative segment, address: 0204 - 0205 (0x2 bytes), align: 0
  Segment part 1. ROOT        Intra module refs:   Restart_Init
                                                   Sampler_Init (Sampler)
           ENTRY                   ADDRESS         REF BY
           =====                   =======         ======
           _A_PADIR_L              0204 
           LOCAL                   ADDRESS         
           =====                   =======         
           PADIR                   0204 
           PADIR_H                 0205 
           PADIR_L                 0204 
    -------------------------------------------------------------------------
DATA16_AN
  Relative segment, address: 020A - 020B (0x2 bytes), align: 0
  Segment part 2. ROOT        Intra module refs:   Restart_Init
                                                   Sampler_Init (Sampler)
           ENTRY                   ADDRESS         REF BY
           =====                   =======         ======
           _A_PASEL_L              020A 
           LOCAL                   ADDRESS         
           =====                   =======         
           PASEL                   020A 
           PASEL_H                 020B 
           PASEL_L                 020A 
    -------------------------------------------------------------------------
DATA16_AN
  Relative segment, address: 0100 - 0101 (0x2 bytes), align: 0
  Segment part 5. ROOT        Intra module refs:   Restart_Init
           ENTRY                   ADDRESS         REF BY
           =====                   =======         ======
           _A_SFRIE1_L             0100 
           LOCAL                   ADDRESS         
           =====                   =======         
           SFRIE1                  0100 
           SFRIE1_H                0101 
           SFRIE1_L                0100 
    -------------------------------------------------------------------------
DATA16_Z
  Relative segment, address: 1C84 - 1C85 (0x2 bytes), align: 1
  Segment part 17.
           ENTRY                   ADDRESS         REF BY
           =====                   =======         ======
           IsDebug                 1C84            HydrologyTask (hydrologytask)
                                                   Hydrology_SendData (message)
    -------------------------------------------------------------------------
<CODE> 1 (was CODE)
  Relative segment, address: F934 - F96F (0x3c bytes), align: 1
  Segment part 20.
           ENTRY                   ADDRESS         REF BY
           =====                   =======         ======
           main                    F934            Segment part 27 (?cstart)
               calls direct
    -------------------------------------------------------------------------
<CODE> 1 (was CODE)
  Relative segment, address: F1D6 - F223 (0x4e bytes), align: 1
  Segment part 19.            Intra module refs:   main
           ENTRY                   ADDRESS         REF BY
           =====                   =======         ======
           Restart_Init            F1D6 
               calls direct
    -------------------------------------------------------------------------
<CODE> 2 (was CODE)
  Relative segment, address: 00010590 - 000105A7 (0x18 bytes), align: 1
  Segment part 18.            Intra module refs:   main
           ENTRY                   ADDRESS         REF BY
           =====                   =======         ======
           Main_Init               00010590 
               calls direct
    -------------------------------------------------------------------------
DATA16_C
  Relative segment, address: 6063 - 6067 (0x5 bytes), align: 0
  Segment part 7.             Intra module refs:   main
           LOCAL                   ADDRESS         
           =====                   =======         
           main::__FUNCTION__      6063 
    -------------------------------------------------------------------------
DATA16_C
  Relative segment, address: 6068 - 6075 (0xe bytes), align: 0
  Segment part 8.             Intra module refs:   main

    *************************************************************************

  FILE NAME : C:\Users\Administrator\Desktop\师弟代码\RTUtest_GP\Debug\Obj\message.r43
  PROGRAM MODULE, NAME : message

  SEGMENTS IN THE MODULE
  ======================
DATA16_Z
  Relative segment, address: 1C86 - 1C87 (0x2 bytes), align: 1
  Segment part 15.            Intra module refs:   hydrologyMakeDownBody
           ENTRY                   ADDRESS         REF BY
           =====                   =======         ======
           Extend_Flag             1C86            hydrologySetPara (hydrologycommand)
    -------------------------------------------------------------------------
DATA16_Z
  Relative segment, address: 1D12 - 1D12 (0x1 bytes), align: 0
  Segment part 16.            Intra module refs:   hydrologyInitSend
           ENTRY                   ADDRESS         REF BY
           =====                   =======         ======
           ADCElementCount         1D12 
    -------------------------------------------------------------------------
DATA16_Z
  Relative segment, address: 1D13 - 1D13 (0x1 bytes), align: 0
  Segment part 17.            Intra module refs:   hydrologyInitSend
           ENTRY                   ADDRESS         REF BY
           =====                   =======         ======
           ISR_COUNTElementCount   1D13 
    -------------------------------------------------------------------------
DATA16_Z
  Relative segment, address: 1D14 - 1D14 (0x1 bytes), align: 0
  Segment part 18.            Intra module refs:   hydrologyInitSend
           ENTRY                   ADDRESS         REF BY
           =====                   =======         ======
           IO_STATUSElementCount   1D14 
    -------------------------------------------------------------------------
DATA16_Z
  Relative segment, address: 1D15 - 1D15 (0x1 bytes), align: 0
  Segment part 19.            Intra module refs:   hydrologyInitSend
           ENTRY                   ADDRESS         REF BY
           =====                   =======         ======
           RS485ElementCount       1D15 
    -------------------------------------------------------------------------
DATA16_Z
  Relative segment, address: 1C88 - 1C89 (0x2 bytes), align: 1
  Segment part 20.            Intra module refs:   hydrologyInitSend
           ENTRY                   ADDRESS         REF BY
           =====                   =======         ======
           UserElementCount        1C88            HydrologyUpdateElementTable (hydrologytask)
                                                   hydrologySetPara (hydrologycommand)
    -------------------------------------------------------------------------
DATA16_Z
  Relative segment, address: 1C8A - 1C8B (0x2 bytes), align: 1
  Segment part 21.
           ENTRY                   ADDRESS         REF BY
           =====                   =======         ======
           DataPacketLen           1C8A            HydrologyDataPacketInit (hydrologytask)
                                                   Store_CheckDataItemSended (store)
                                                   Store_MarkDataItemSended (store)
                                                   Store_ReadDataItem (store)
                                                   Store_WriteDataItem (store)
    -------------------------------------------------------------------------
DATA16_Z
  Relative segment, address: 1D16 - 1D26 (0x11 bytes), align: 0
  Segment part 22.            Intra module refs:   hydrologyInitSend
           ENTRY                   ADDRESS         REF BY
           =====                   =======         ======
           g_HydrologyUpHeader     1D16 
    -------------------------------------------------------------------------
DATA16_Z
  Relative segment, address: 1D27 - 1D37 (0x11 bytes), align: 0
  Segment part 23.            Intra module refs:   hydrologyInitReceieve
                                                   hydrologyMakeDownHeader
           ENTRY                   ADDRESS         REF BY
           =====                   =======         ======
           g_HydrologyDownHeader   1D27 
    -------------------------------------------------------------------------
DATA16_Z
  Relative segment, address: 1D38 - 1D42 (0xb bytes), align: 0
  Segment part 24.            Intra module refs:   Hydrology_CalElementInfo
                                                   hydrologyExitReceieve
                                                   hydrologyExitSend
                                                   hydrologyInitReceieve
                                                   hydrologyInitSend
                                                   hydrologyMakeDownBody
                                                   hydrologyMakeUpBody
                                                   hydrologyMakeUpBodyBasicInfo
                                                   hydrologyMakeUpHeader
                                                   hydrologyMakeUpTail
           ENTRY                   ADDRESS         REF BY
           =====                   =======         ======
           g_HydrologyMsg          1D38            Hydrology_SetPassword (hydrologycommand)
                                                   hydrologyBasicInfoConfig (hydrologycommand)
                                                   hydrologyBasicInfoRead (hydrologycommand)
                                                   hydrologyGate (hydrologycommand)
                                                   hydrologyPump (hydrologycommand)
                                                   hydrologyReadPara (hydrologycommand)
                                                   hydrologySetClock (hydrologycommand)
                                                   hydrologySetICCard (hydrologycommand)
                                                   hydrologySetPara (hydrologycommand)
                                                   hydrologyValve (hydrologycommand)
                                                   hydrologyWaterSetting (hydrologycommand)
    -------------------------------------------------------------------------
DATA16_Z
  Relative segment, address: 1D43 - 1D92 (0x50 bytes), align: 0
  Segment part 25.            Intra module refs:   Hydrology_CalElementInfo
                                                   hydrologyExitSend
                                                   hydrologyMakeUpBody
           ENTRY                   ADDRESS         REF BY
           =====                   =======         ======
           inputPara               1D43            HydrologyDataPacketInit (hydrologytask)
                                                   HydrologySaveData (hydrologytask)
    -------------------------------------------------------------------------
DATA16_Z
  Relative segment, address: 1D93 - 1DF8 (0x66 bytes), align: 0
  Segment part 28.            Intra module refs:   Hydrology_CalElementInfo
                                                   Hydrology_ReadObservationTime
                                                   Hydrology_SetObservationTime
                                                   hydrologyInitSend
           ENTRY                   ADDRESS         REF BY
           =====                   =======         ======
           Element_table           1D93            HydrologyDataPacketInit (hydrologytask)
                                                   HydrologySample (hydrologytask)
                                                   HydrologySaveData (hydrologytask)
                                                   HydrologyUpdateElementTable (hydrologytask)
                                                   hydrologySetPara (hydrologycommand)
    -------------------------------------------------------------------------
DATA16_Z
  Relative segment, address: 1C8C - 1C8D (0x2 bytes), align: 1
  Segment part 29.            Intra module refs:   Hydrology_CalElementInfo
                                                   Hydrology_ReadRom
           ENTRY                   ADDRESS         REF BY
           =====                   =======         ======
           SinglePacketSize        1C8C            HydrologySaveData (hydrologytask)
    -------------------------------------------------------------------------
DATA16_Z
  Relative segment, address: 1C8E - 1C8F (0x2 bytes), align: 1
  Segment part 30.            Intra module refs:   Hydrology_CalElementInfo
           ENTRY                   ADDRESS         REF BY
           =====                   =======         ======
           RomElementBeginAddr     1C8E 
    -------------------------------------------------------------------------
DATA16_Z
  Relative segment, address: 1C90 - 1C91 (0x2 bytes), align: 1
  Segment part 31.            Intra module refs:   Hydrology_CalElementInfo
                                                   hydrologyMakeUpBodyBasicInfo
                                                   hydrologyMakeUpHeader
                                                   hydrologyMakeUpTail
           ENTRY                   ADDRESS         REF BY
           =====                   =======         ======
           SinglePacketSendCount   1C90 
    -------------------------------------------------------------------------
DATA16_Z
  Relative segment, address: 1C92 - 1C93 (0x2 bytes), align: 1
  Segment part 32.            Intra module refs:   hydrologyMakeUpHeader
                                                   hydrologyMakeUpTail
           ENTRY                   ADDRESS         REF BY
           =====                   =======         ======
           PacketSendTimes         1C92 
    -------------------------------------------------------------------------
DATA16_I
  Relative segment, address: 1C08 - 1C08 (0x1 bytes), align: 0
  Segment part 33.            Intra module refs:   hydrologyMakeUpHeader
                                                   hydrologyMakeUpTail
           ENTRY                   ADDRESS         REF BY
           =====                   =======         ======
           HYDROLOGY_MODE          1C08 
    -------------------------------------------------------------------------
<CODE> 1 (was CODE)
  Relative segment, address: ECC6 - ED25 (0x60 bytes), align: 1
  Segment part 40.            Intra module refs:   Hydrology_ReadAnalog
                                                   Hydrology_ReadDataPacketCount
                                                   Hydrology_ReadEndIdx
                                                   Hydrology_ReadObservationTime
                                                   Hydrology_ReadPulse
                                                   Hydrology_ReadRom
                                                   Hydrology_ReadStartIdx
                                                   Hydrology_ReadSwitch
                                                   hydrologyMakeUpBodyBasicInfo
                                                   hydrologyMakeUpHeader
           ENTRY                   ADDRESS         REF BY
           =====                   =======         ======
           Hydrology_ReadStoreInfo
                                   ECC6            HydrologyRecord (hydrologycommand)
                                                   HydrologySample (hydrologytask)
                                                   HydrologySaveData (hydrologytask)
                                                   HydrologyUpdateElementTable (hydrologytask)
                                                   Hydrology_ReadRS485 (hydrologycommand)
                                                   PORT1_ISR (Sampler)
                                                   Store_ReadDataItem (store)
                                                   Utility_Is_A_ReportTime (common)
                                                   hydrologyReadParaSelect (hydrologycommand)
                                                   hydrologyReadSelect (hydrologycommand)
               calls direct
    -------------------------------------------------------------------------
<CODE> 1 (was CODE)
  Relative segment, address: EC66 - ECC5 (0x60 bytes), align: 1
  Segment part 41.            Intra module refs:   Hydrology_ReadEndIdx
                                                   Hydrology_ReadStartIdx
                                                   Hydrology_SetDataPacketCount
                                                   Hydrology_SetEndIdx
                                                   Hydrology_SetObservationTime
                                                   Hydrology_SetStartIdx
           ENTRY                   ADDRESS         REF BY
           =====                   =======         ======
           Hydrology_WriteStoreInfo
                                   EC66            HydrologyDataPacketInit (hydrologytask)
                                                   HydrologyRecord (hydrologycommand)
                                                   HydrologySample (hydrologytask)
                                                   Hydrology_Reset (hydrologycommand)
                                                   Hydrology_SetPassword (hydrologycommand)
                                                   PORT1_ISR (Sampler)
                                                   Store_WriteDataItem (store)
                                                   hydrologyConfigSelect (hydrologycommand)
                                                   hydrologyGate (hydrologycommand)
                                                   hydrologyInitializeSolidStorage (hydrologycommand)
                                                   hydrologyPump (hydrologycommand)
                                                   hydrologySetICCard (hydrologycommand)
                                                   hydrologySetPara (hydrologycommand)
                                                   hydrologySetParaSelect (hydrologycommand)
                                                   hydrologyValve (hydrologycommand)
                                                   hydrologyWaterSetting (hydrologycommand)
               calls direct
    -------------------------------------------------------------------------
<CODE> 2 (was CODE)
  Relative segment, address: 000103F4 - 00010411 (0x1e bytes), align: 1
  Segment part 42.            Intra module refs:   hydrologyMakeUpBodyBasicInfo
           ENTRY                   ADDRESS         REF BY
           =====                   =======         ======
           Hydrology_ReadTime      000103F4 
               calls direct
    -------------------------------------------------------------------------
<CODE> 2 (was CODE)
  Relative segment, address: 0001055E - 00010577 (0x1a bytes), align: 1
  Segment part 43.
           ENTRY                   ADDRESS         REF BY
           =====                   =======         ======
           Hydrology_SetTime       0001055E        hydrologySetClock (hydrologycommand)
               calls direct
    -------------------------------------------------------------------------
<CODE> 1 (was CODE)
  Relative segment, address: DC7A - DD0B (0x92 bytes), align: 1
  Segment part 44.            Intra module refs:   hydrologyProcessSend
           ENTRY                   ADDRESS         REF BY
           =====                   =======         ======
           Hydrology_SendData      DC7A 
               calls direct
    -------------------------------------------------------------------------
<CODE> 2 (was CODE)
  Relative segment, address: 00010726 - 00010733 (0xe bytes), align: 1
  Segment part 45.            Intra module refs:   hydrologyCheck
                                                   hydrologyInitReceieve
                                                   hydrologyInitSend
                                                   hydrologyMakeDownHeader
           ENTRY                   ADDRESS         REF BY
           =====                   =======         ======
           Hydrology_Printf        00010726        RS485_Read (hydrologycommand)
               calls direct
    -------------------------------------------------------------------------
<CODE> 1 (was CODE)
  Relative segment, address: D29C - D345 (0xaa bytes), align: 1
  Segment part 46.
           ENTRY                   ADDRESS         REF BY
           =====                   =======         ======
           Hydrology_ReadStartIdx
                                   D29C            FlowCheckSampleData (flow)
               calls direct
    -------------------------------------------------------------------------
<CODE> 2 (was CODE)
  Relative segment, address: 00010264 - 00010287 (0x24 bytes), align: 1
  Segment part 47.            Intra module refs:   Hydrology_RetrieveIndex
           ENTRY                   ADDRESS         REF BY
           =====                   =======         ======
           Hydrology_SetStartIdx   00010264        FlowCheckSampleData (flow)
                                                   HydrologyInstantWaterLevel (hydrologytask)
               calls direct
    -------------------------------------------------------------------------
<CODE> 1 (was CODE)
  Relative segment, address: D346 - D3EF (0xaa bytes), align: 1
  Segment part 48.
           ENTRY                   ADDRESS         REF BY
           =====                   =======         ======
           Hydrology_ReadEndIdx    D346            FlowCheckSampleData (flow)
                                                   Store_WriteDataItemAuto (store)
               calls direct
    -------------------------------------------------------------------------
<CODE> 2 (was CODE)
  Relative segment, address: 00010288 - 000102AB (0x24 bytes), align: 1
  Segment part 49.            Intra module refs:   Hydrology_RetrieveIndex
           ENTRY                   ADDRESS         REF BY
           =====                   =======         ======
           Hydrology_SetEndIdx     00010288        FlowCheckSampleData (flow)
                                                   Store_WriteDataItemAuto (store)
               calls direct
    -------------------------------------------------------------------------
<CODE> 1 (was CODE)
  Relative segment, address: E3E2 - E45D (0x7c bytes), align: 1
  Segment part 50.
           ENTRY                   ADDRESS         REF BY
           =====                   =======         ======
           Hydrology_ReadDataPacketCount
                                   E3E2            HydrologyInstantWaterLevel (hydrologytask)
                                                   HydrologySaveData (hydrologytask)
               calls direct
    -------------------------------------------------------------------------
<CODE> 2 (was CODE)
  Relative segment, address: 00010376 - 00010395 (0x20 bytes), align: 1
  Segment part 51.
           ENTRY                   ADDRESS         REF BY
           =====                   =======         ======
           Hydrology_SetDataPacketCount
                                   00010376        HydrologyInstantWaterLevel (hydrologytask)
                                                   HydrologySaveData (hydrologytask)
               calls direct
    -------------------------------------------------------------------------
<CODE> 1 (was CODE)
  Relative segment, address: CA52 - CB23 (0xd2 bytes), align: 1
  Segment part 52.
           ENTRY                   ADDRESS         REF BY
           =====                   =======         ======
           Hydrology_RetrieveIndex
                                   CA52            FlowCheckSampleData (flow)
                                                   Store_WriteDataItemAuto (store)
               calls direct
    -------------------------------------------------------------------------
<CODE> 1 (was CODE)
  Relative segment, address: DD9C - DE2B (0x90 bytes), align: 1
  Segment part 54.
           ENTRY                   ADDRESS         REF BY
           =====                   =======         ======
           Hydrology_ReadObservationTime
                                   DD9C            HydrologySaveData (hydrologytask)
               calls direct
    -------------------------------------------------------------------------
<CODE> 1 (was CODE)
  Relative segment, address: DD0C - DD9B (0x90 bytes), align: 1
  Segment part 55.
           ENTRY                   ADDRESS         REF BY
           =====                   =======         ======
           Hydrology_SetObservationTime
                                   DD0C            HydrologySample (hydrologytask)
               calls direct
    -------------------------------------------------------------------------
<CODE> 1 (was CODE)
  Relative segment, address: BB98 - BCB1 (0x11a bytes), align: 1
  Segment part 56.            Intra module refs:   converToHexElement
           ENTRY                   ADDRESS         REF BY
           =====                   =======         ======
           getBCDnums              BB98 
               calls direct
    -------------------------------------------------------------------------
<CODE> 2 (was CODE)
  Relative segment, address: 000104BE - 000104D9 (0x1c bytes), align: 1
  Segment part 57.            Intra module refs:   converToHexElement
                                                   getguideid
           ENTRY                   ADDRESS         REF BY
           =====                   =======         ======
           getEvenNum              000104BE 
               calls direct
    -------------------------------------------------------------------------
<CODE> 2 (was CODE)
  Relative segment, address: 00010000 - 0001002D (0x2e bytes), align: 1
  Segment part 58.            Intra module refs:   mallocElement
           ENTRY                   ADDRESS         REF BY
           =====                   =======         ======
           getguideid              00010000 
               calls direct
    -------------------------------------------------------------------------
<CODE> 1 (was CODE)
  Relative segment, address: AFCC - B10D (0x142 bytes), align: 1
  Segment part 59.            Intra module refs:   Hydrology_CalElementInfo
           ENTRY                   ADDRESS         REF BY
           =====                   =======         ======
           converToHexElement      AFCC            HydrologySaveData (hydrologytask)
               calls direct
    -------------------------------------------------------------------------
<CODE> 1 (was CODE)
  Relative segment, address: C314 - C40F (0xfc bytes), align: 1
  Segment part 60.            Intra module refs:   Hydrology_CalElementInfo
           ENTRY                   ADDRESS         REF BY
           =====                   =======         ======
           mallocElement           C314            HydrologyDataPacketInit (hydrologytask)
                                                   HydrologySaveData (hydrologytask)
               calls direct
    -------------------------------------------------------------------------
<CODE> 1 (was CODE)
  Relative segment, address: B836 - B95B (0x126 bytes), align: 1
  Segment part 61.            Intra module refs:   Hydrology_CalElementInfo
                                                   hydrologyMakeUpBodyBasicInfo
                                                   hydrologyMakeUpTail
                                                   hydrologyQueryRespond
           ENTRY                   ADDRESS         REF BY
           =====                   =======         ======
           hydrologyJudgeType      B836            HydrologySaveData (hydrologytask)
    -------------------------------------------------------------------------
<CODE> 1 (was CODE)
  Relative segment, address: FCE6 - FD17 (0x32 bytes), align: 1
  Segment part 62.            Intra module refs:   Hydrology_CalElementInfo
           ENTRY                   ADDRESS         REF BY
           =====                   =======         ======
           Hydrology_ReadAnalog    FCE6            HydrologySaveData (hydrologytask)
               calls direct
    -------------------------------------------------------------------------
<CODE> 1 (was CODE)
  Relative segment, address: FCB4 - FCE5 (0x32 bytes), align: 1
  Segment part 63.            Intra module refs:   Hydrology_CalElementInfo
           ENTRY                   ADDRESS         REF BY
           =====                   =======         ======
           Hydrology_ReadPulse     FCB4            HydrologySaveData (hydrologytask)
               calls direct
    -------------------------------------------------------------------------
<CODE> 2 (was CODE)
  Relative segment, address: 000102D0 - 000102F1 (0x22 bytes), align: 1
  Segment part 64.            Intra module refs:   Hydrology_CalElementInfo
           ENTRY                   ADDRESS         REF BY
           =====                   =======         ======
           Hydrology_ReadSwitch    000102D0        HydrologySaveData (hydrologytask)
               calls direct
    -------------------------------------------------------------------------
<CODE> 1 (was CODE)
  Relative segment, address: FD7C - FDAD (0x32 bytes), align: 1
  Segment part 65.            Intra module refs:   Hydrology_CalElementInfo
           ENTRY                   ADDRESS         REF BY
           =====                   =======         ======
           Hydrology_ReadRom       FD7C 
               calls direct
    -------------------------------------------------------------------------
<CODE> 1 (was CODE)
  Relative segment, address: 91DA - 95BD (0x3e4 bytes), align: 1
  Segment part 66.            Intra module refs:   hydrologyProcessSend
           ENTRY                   ADDRESS         REF BY
           =====                   =======         ======
           Hydrology_CalElementInfo
                                   91DA 
               calls direct
    -------------------------------------------------------------------------
<CODE> 1 (was CODE)
  Relative segment, address: D990 - DA29 (0x9a bytes), align: 1
  Segment part 67.            Intra module refs:   hydrologyProcessSend
           ENTRY                   ADDRESS         REF BY
           =====                   =======         ======
           hydrologyMakeUpHeader   D990 
               calls direct
    -------------------------------------------------------------------------
<CODE> 1 (was CODE)
  Relative segment, address: F2BC - F307 (0x4c bytes), align: 1
  Segment part 68.            Intra module refs:   hydrologyMakeUpBodyBasicInfo
           ENTRY                   ADDRESS         REF BY
           =====                   =======         ======
           getstreamid             F2BC 
               calls direct
    -------------------------------------------------------------------------
DATA16_Z
  Relative segment, address: 1C94 - 1C95 (0x2 bytes), align: 1
  Segment part 35.            Intra module refs:   getstreamid
           LOCAL                   ADDRESS         
           =====                   =======         
           getstreamid::id         1C94 
    -------------------------------------------------------------------------
<CODE> 1 (was CODE)
  Relative segment, address: 9FCC - A29D (0x2d2 bytes), align: 1
  Segment part 69.            Intra module refs:   hydrologyProcessSend
           ENTRY                   ADDRESS         REF BY
           =====                   =======         ======
           hydrologyMakeUpBodyBasicInfo
                                   9FCC 
               calls direct
    -------------------------------------------------------------------------
<CODE> 1 (was CODE)
  Relative segment, address: ABA2 - AD1D (0x17c bytes), align: 1
  Segment part 70.            Intra module refs:   hydrologyProcessSend
           ENTRY                   ADDRESS         REF BY
           =====                   =======         ======
           hydrologyMakeUpBody     ABA2 
               calls direct
    -------------------------------------------------------------------------
DATA16_C
  Relative segment, address: 6076 - 6088 (0x13 bytes), align: 0
  Segment part 2.             Intra module refs:   Hydrology_SendData
           LOCAL                   ADDRESS         
           =====                   =======         
           Hydrology_SendData::__FUNCTION__
                                   6076 
    -------------------------------------------------------------------------
DATA16_C
  Relative segment, address: 6089 - 6099 (0x11 bytes), align: 0
  Segment part 3.             Intra module refs:   Hydrology_Printf
           LOCAL                   ADDRESS         
           =====                   =======         
           Hydrology_Printf::__FUNCTION__
                                   6089 
    -------------------------------------------------------------------------
DATA16_C
  Relative segment, address: 609A - 609C (0x3 bytes), align: 0
  Segment part 4.             Intra module refs:   getBCDnums
    -------------------------------------------------------------------------
DATA16_C
  Relative segment, address: 609D - 609F (0x3 bytes), align: 0
  Segment part 5.             Intra module refs:   getBCDnums
    -------------------------------------------------------------------------
DATA16_C
  Relative segment, address: 60A0 - 60B0 (0x11 bytes), align: 0
  Segment part 8.             Intra module refs:   hydrologyCheck
    -------------------------------------------------------------------------
DATA16_C
  Relative segment, address: 60B1 - 60C8 (0x18 bytes), align: 0
  Segment part 9.             Intra module refs:   hydrologyCheck
    -------------------------------------------------------------------------
DATA16_C
  Relative segment, address: 60C9 - 60E5 (0x1d bytes), align: 0
  Segment part 10.            Intra module refs:   hydrologyCheck
    -------------------------------------------------------------------------
DATA16_C
  Relative segment, address: 60E6 - 60FC (0x17 bytes), align: 0
  Segment part 11.            Intra module refs:   hydrologyMakeDownHeader
    -------------------------------------------------------------------------
DATA16_C
  Relative segment, address: 60FD - 6120 (0x24 bytes), align: 0
  Segment part 12.            Intra module refs:   hydrologyInitSend
    -------------------------------------------------------------------------
DATA16_C
  Relative segment, address: 6121 - 6146 (0x26 bytes), align: 0
  Segment part 14.            Intra module refs:   hydrologyInitReceieve
    -------------------------------------------------------------------------
DATA16_C
  Relative segment, address: 6147 - 6246 (0x100 bytes), align: 0
  Segment part 36.            Intra module refs:   hydrologyCRC16
           ENTRY                   ADDRESS         REF BY
           =====                   =======         ======
           chCRCHTalbe             6147 
    -------------------------------------------------------------------------
DATA16_C
  Relative segment, address: 6247 - 6346 (0x100 bytes), align: 0
  Segment part 37.            Intra module refs:   hydrologyCRC16
           ENTRY                   ADDRESS         REF BY
           =====                   =======         ======
           chCRCLTalbe             6247 
    -------------------------------------------------------------------------
<CODE> 1 (was CODE)
  Relative segment, address: FDAE - FDDF (0x32 bytes), align: 1
  Segment part 71.            Intra module refs:   hydrologyCheck
                                                   hydrologyMakeUpTail
           ENTRY                   ADDRESS         REF BY
           =====                   =======         ======
           hydrologyCRC16          FDAE            RS485_Read (hydrologycommand)
                                                   RS485_Send (hydrologycommand)
    -------------------------------------------------------------------------
<CODE> 1 (was CODE)
  Relative segment, address: D8F6 - D98F (0x9a bytes), align: 1
  Segment part 72.            Intra module refs:   hydrologyMakeDownHeader
           ENTRY                   ADDRESS         REF BY
           =====                   =======         ======
           hydrologyCheck          D8F6 
               calls direct
    -------------------------------------------------------------------------
<CODE> 1 (was CODE)
  Relative segment, address: C216 - C313 (0xfe bytes), align: 1
  Segment part 73.            Intra module refs:   hydrologyProcessReceieve
           ENTRY                   ADDRESS         REF BY
           =====                   =======         ======
           hydrologyMakeDownHeader
                                   C216 
               calls direct
    -------------------------------------------------------------------------
<CODE> 1 (was CODE)
  Relative segment, address: BA7A - BB97 (0x11e bytes), align: 1
  Segment part 74.            Intra module refs:   hydrologyMakeDownBody
           ENTRY                   ADDRESS         REF BY
           =====                   =======         ======
           hydrologyNeedEditElement
                                   BA7A 
    -------------------------------------------------------------------------
<CODE> 1 (was CODE)
  Relative segment, address: A29E - A527 (0x28a bytes), align: 1
  Segment part 75.            Intra module refs:   hydrologyProcessReceieve
           ENTRY                   ADDRESS         REF BY
           =====                   =======         ======
           hydrologyMakeDownBody   A29E 
               calls direct
    -------------------------------------------------------------------------
<CODE> 1 (was CODE)
  Relative segment, address: 95BE - 995B (0x39e bytes), align: 1
  Segment part 76.            Intra module refs:   hydrologyProcessSend
           ENTRY                   ADDRESS         REF BY
           =====                   =======         ======
           hydrologyMakeUpTail     95BE 
               calls direct
    -------------------------------------------------------------------------
<CODE> 1 (was CODE)
  Relative segment, address: CF1A - CFD3 (0xba bytes), align: 1
  Segment part 77.            Intra module refs:   hydrologyProcessSend
           ENTRY                   ADDRESS         REF BY
           =====                   =======         ======
           hydrologyInitSend       CF1A 
               calls direct
    -------------------------------------------------------------------------
<CODE> 1 (was CODE)
  Relative segment, address: B10E - B247 (0x13a bytes), align: 1
  Segment part 78.            Intra module refs:   hydrologyProcessSend
           ENTRY                   ADDRESS         REF BY
           =====                   =======         ======
           hydrologyExitSend       B10E            HydrologyInstantWaterLevel (hydrologytask)
               calls direct
    -------------------------------------------------------------------------
<CODE> 1 (was CODE)
  Relative segment, address: E8D2 - E93B (0x6a bytes), align: 1
  Segment part 79.            Intra module refs:   hydrologyQueryRespond
           ENTRY                   ADDRESS         REF BY
           =====                   =======         ======
           hydrologyProcessSend    E8D2            HydrologyInstantWaterLevel (hydrologytask)
               calls direct
    -------------------------------------------------------------------------
<CODE> 1 (was CODE)
  Relative segment, address: B95C - BA79 (0x11e bytes), align: 1
  Segment part 80.            Intra module refs:   hydrologyQueryRespond
           ENTRY                   ADDRESS         REF BY
           =====                   =======         ======
           hydrologyNeedRespond    B95C 
    -------------------------------------------------------------------------
<CODE> 1 (was CODE)
  Relative segment, address: E5C6 - E639 (0x74 bytes), align: 1
  Segment part 81.            Intra module refs:   hydrologyProcessReceieve
           ENTRY                   ADDRESS         REF BY
           =====                   =======         ======
           hydrologyQueryRespond   E5C6 
               calls direct
    -------------------------------------------------------------------------
<CODE> 1 (was CODE)
  Relative segment, address: E93C - E9A5 (0x6a bytes), align: 1
  Segment part 82.            Intra module refs:   hydrologyProcessReceieve
           ENTRY                   ADDRESS         REF BY
           =====                   =======         ======
           hydrologyInitReceieve   E93C 
               calls direct
    -------------------------------------------------------------------------
<CODE> 1 (was CODE)
  Relative segment, address: CD8C - CE55 (0xca bytes), align: 1
  Segment part 83.            Intra module refs:   hydrologyProcessReceieve
           ENTRY                   ADDRESS         REF BY
           =====                   =======         ======
           hydrologyExitReceieve   CD8C 
               calls direct
    -------------------------------------------------------------------------
<CODE> 1 (was CODE)
  Relative segment, address: EC06 - EC65 (0x60 bytes), align: 1
  Segment part 84.
           ENTRY                   ADDRESS         REF BY
           =====                   =======         ======
           hydrologyProcessReceieve
                                   EC06            Hydrology_ProcessUARTReceieve (uart_config)
               calls direct
    -------------------------------------------------------------------------
DATA16_ID
  Relative segment, address: 6510 - 6510 (0x1 bytes), align: 0
  Segment part 34.            Intra module refs:   HYDROLOGY_MODE

    *************************************************************************

  FILE NAME : C:\Users\Administrator\Desktop\师弟代码\RTUtest_GP\Debug\Obj\packet.r43
    *************************************************************************

  FILE NAME : C:\Users\Administrator\Desktop\师弟代码\RTUtest_GP\Debug\Obj\rom.r43
  PROGRAM MODULE, NAME : rom

  SEGMENTS IN THE MODULE
  ======================
DATA16_AN
  Relative segment, address: 0220 - 0221 (0x2 bytes), align: 0
  Segment part 1. ROOT        Intra module refs:   I2C_GetACK
                                                   I2C_RxByte
           ENTRY                   ADDRESS         REF BY
           =====                   =======         ======
           _A_PBIN_L               0220 
           LOCAL                   ADDRESS         
           =====                   =======         
           PBIN                    0220 
           PBIN_H                  0221 
           PBIN_L                  0220 
    -------------------------------------------------------------------------
<CODE> 1 (was CODE)
  Relative segment, address: FEA8 - FED9 (0x32 bytes), align: 1
  Segment part 8.             Intra module refs:   ROM_WriteByte
                                                   _ROM_WriteBytes
           ENTRY                   ADDRESS         REF BY
           =====                   =======         ======
           ROM_WP_OFF              FEA8 
    -------------------------------------------------------------------------
<CODE> 1 (was CODE)
  Relative segment, address: FE76 - FEA7 (0x32 bytes), align: 1
  Segment part 9.             Intra module refs:   ROM_WriteByte
                                                   _ROM_WriteBytes
           ENTRY                   ADDRESS         REF BY
           =====                   =======         ======
           ROM_WP_ON               FE76 
    -------------------------------------------------------------------------
<CODE> 2 (was CODE)
  Relative segment, address: 00010800 - 0001080B (0xc bytes), align: 1
  Segment part 16.
           ENTRY                   ADDRESS         REF BY
           =====                   =======         ======
           ROM_Init                00010800        Store_Init (store)
               calls direct
    -------------------------------------------------------------------------
<CODE> 1 (was CODE)
  Relative segment, address: C8A0 - C97B (0xdc bytes), align: 1
  Segment part 20.
           ENTRY                   ADDRESS         REF BY
           =====                   =======         ======
           ROM_WriteByte           C8A0            Store_MarkDataItemSended (store)
                                                   Store_SetPulseRange (store)
               calls direct
    -------------------------------------------------------------------------
<CODE> 1 (was CODE)
  Relative segment, address: CBF2 - CCBF (0xce bytes), align: 1
  Segment part 21.            Intra module refs:   ROM_WriteBytes
           LOCAL                   ADDRESS         
           =====                   =======         
           _ROM_WriteBytes         CBF2 
               calls direct
    -------------------------------------------------------------------------
<CODE> 1 (was CODE)
  Relative segment, address: BDCA - BEE1 (0x118 bytes), align: 1
  Segment part 22.
           ENTRY                   ADDRESS         REF BY
           =====                   =======         ======
           ROM_WriteBytes          BDCA            Hydrology_WriteStoreInfo (message)
                                                   Store_SetWIFIConfigFlag (store)
               calls direct
    -------------------------------------------------------------------------
<CODE> 1 (was CODE)
  Relative segment, address: CE56 - CF19 (0xc4 bytes), align: 1
  Segment part 23.
           ENTRY                   ADDRESS         REF BY
           =====                   =======         ======
           ROM_ReadByte            CE56            Store_CheckDataItemSended (store)
                                                   Store_ReadIoDirConfig (store)
                                                   Store_ReadIoLevelConfig (store)
                                                   Store_ReadPulseRangeBytes (store)
                                                   Store_ReadPulseRate (store)
                                                   _RTC_ReadRAM (rtc)
               calls direct
    -------------------------------------------------------------------------
<CODE> 1 (was CODE)
  Relative segment, address: C410 - C503 (0xf4 bytes), align: 1
  Segment part 26.
           ENTRY                   ADDRESS         REF BY
           =====                   =======         ======
           ROM_ReadBytes           C410            Hydrology_ReadStoreInfo (message)
                                                   Store_ReadWIFIConfigFlag (store)
               calls direct
    -------------------------------------------------------------------------
<CODE> 2 (was CODE)
  Relative segment, address: 000107DC - 000107E7 (0xc bytes), align: 1
  Segment part 15.            Intra module refs:   ROM_Init
           ENTRY                   ADDRESS         REF BY
           =====                   =======         ======
           I2C_Initial             000107DC 
               calls direct
    -------------------------------------------------------------------------
<CODE> 2 (was CODE)
  Relative segment, address: 000107CE - 000107DB (0xe bytes), align: 1
  Segment part 11.            Intra module refs:   I2C_RxByte
                                                   I2C_START
                                                   I2C_STOP
                                                   I2C_SetNAK
                                                   I2C_TxByte
           ENTRY                   ADDRESS         REF BY
           =====                   =======         ======
           I2C_Set_sda_high        000107CE 
    -------------------------------------------------------------------------
<CODE> 2 (was CODE)
  Relative segment, address: 00010750 - 0001075D (0xe bytes), align: 1
  Segment part 13.            Intra module refs:   I2C_START
                                                   I2C_STOP
                                                   I2C_SetACK
                                                   I2C_TxByte
           ENTRY                   ADDRESS         REF BY
           =====                   =======         ======
           I2C_Set_sda_low         00010750 
    -------------------------------------------------------------------------
<CODE> 2 (was CODE)
  Relative segment, address: 00010796 - 000107A3 (0xe bytes), align: 1
  Segment part 12.            Intra module refs:   I2C_GetACK
                                                   I2C_RxByte
                                                   I2C_START
                                                   I2C_STOP
                                                   I2C_SetACK
                                                   I2C_SetNAK
                                                   I2C_TxByte
           ENTRY                   ADDRESS         REF BY
           =====                   =======         ======
           I2C_Set_sck_high        00010796 
    -------------------------------------------------------------------------
<CODE> 2 (was CODE)
  Relative segment, address: 0001070A - 00010717 (0xe bytes), align: 1
  Segment part 10.            Intra module refs:   I2C_GetACK
                                                   I2C_Initial
                                                   I2C_RxByte
                                                   I2C_START
                                                   I2C_STOP
                                                   I2C_SetACK
                                                   I2C_SetNAK
                                                   I2C_TxByte
           ENTRY                   ADDRESS         REF BY
           =====                   =======         ======
           I2C_Set_sck_low         0001070A 
    -------------------------------------------------------------------------
<CODE> 1 (was CODE)
  Relative segment, address: FA20 - FA59 (0x3a bytes), align: 1
  Segment part 27.            Intra module refs:   ROM_ReadByte
                                                   ROM_ReadBytes
                                                   ROM_WriteByte
                                                   _ROM_WriteBytes
           ENTRY                   ADDRESS         REF BY
           =====                   =======         ======
           I2C_GetACK              FA20 
               calls direct
    -------------------------------------------------------------------------
<CODE> 2 (was CODE)
  Relative segment, address: 0001069A - 000106A9 (0x10 bytes), align: 1
  Segment part 25.            Intra module refs:   ROM_ReadBytes
           ENTRY                   ADDRESS         REF BY
           =====                   =======         ======
           I2C_SetACK              0001069A 
               calls direct
    -------------------------------------------------------------------------
<CODE> 2 (was CODE)
  Relative segment, address: 000106EA - 000106F9 (0x10 bytes), align: 1
  Segment part 24.            Intra module refs:   ROM_ReadBytes
           ENTRY                   ADDRESS         REF BY
           =====                   =======         ======
           I2C_SetNAK              000106EA 
               calls direct
    -------------------------------------------------------------------------
<CODE> 1 (was CODE)
  Relative segment, address: FC4E - FC81 (0x34 bytes), align: 1
  Segment part 18.            Intra module refs:   ROM_ReadByte
                                                   ROM_ReadBytes
                                                   ROM_WriteByte
                                                   _ROM_WriteBytes
           ENTRY                   ADDRESS         REF BY
           =====                   =======         ======
           I2C_START               FC4E 
               calls direct
    -------------------------------------------------------------------------
<CODE> 1 (was CODE)
  Relative segment, address: F8F8 - F933 (0x3c bytes), align: 1
  Segment part 14.            Intra module refs:   I2C_Initial
                                                   ROM_ReadByte
                                                   ROM_ReadBytes
                                                   ROM_WriteByte
                                                   _ROM_WriteBytes
           ENTRY                   ADDRESS         REF BY
           =====                   =======         ======
           I2C_STOP                F8F8 
               calls direct
    -------------------------------------------------------------------------
<CODE> 1 (was CODE)
  Relative segment, address: F8BC - F8F7 (0x3c bytes), align: 1
  Segment part 17.            Intra module refs:   ROM_ReadByte
                                                   ROM_ReadBytes
                                                   ROM_WriteByte
                                                   _ROM_WriteBytes
           ENTRY                   ADDRESS         REF BY
           =====                   =======         ======
           I2C_TxByte              F8BC 
               calls direct
    -------------------------------------------------------------------------
<CODE> 1 (was CODE)
  Relative segment, address: F308 - F34F (0x48 bytes), align: 1
  Segment part 28.            Intra module refs:   ROM_ReadByte
                                                   ROM_ReadBytes
           ENTRY                   ADDRESS         REF BY
           =====                   =======         ======
           I2C_RxByte              F308 
               calls direct
    -------------------------------------------------------------------------
DATA16_C
  Relative segment, address: 6347 - 6352 (0xc bytes), align: 0
  Segment part 7.             Intra module refs:   ROM_WriteBytes

    *************************************************************************

  FILE NAME : C:\Users\Administrator\Desktop\师弟代码\RTUtest_GP\Debug\Obj\rtc.r43
  PROGRAM MODULE, NAME : rtc

  SEGMENTS IN THE MODULE
  ======================
DATA16_AN
  Relative segment, address: 0202 - 0203 (0x2 bytes), align: 0
  Segment part 2. ROOT 
           ENTRY                   ADDRESS         REF BY
           =====                   =======         ======
           _A_PAOUT_L              0202 
           LOCAL                   ADDRESS         
           =====                   =======         
           PAOUT                   0202 
           PAOUT_H                 0203 
           PAOUT_L                 0202 
    -------------------------------------------------------------------------
DATA16_AN
  Relative segment, address: 0280 - 0281 (0x2 bytes), align: 0
  Segment part 5. ROOT        Intra module refs:   READ_SDA
           ENTRY                   ADDRESS         REF BY
           =====                   =======         ======
           _A_PEIN_L               0280 
           LOCAL                   ADDRESS         
           =====                   =======         
           PEIN                    0280 
           PEIN_H                  0281 
           PEIN_L                  0280 
    -------------------------------------------------------------------------
DATA16_Z
  Relative segment, address: 1DF9 - 1DFD (0x5 bytes), align: 0
  Segment part 9.
           ENTRY                   ADDRESS         REF BY
           =====                   =======         ======
           g_rtc_nowTime           1DF9            HydrologySample (hydrologytask)
                                                   HydrologyTask (hydrologytask)
                                                   Hydrology_TimeCheck (hydrologytask)
    -------------------------------------------------------------------------
DATA16_Z
  Relative segment, address: 1DFE - 1E02 (0x5 bytes), align: 0
  Segment part 10.            Intra module refs:   RTC_IsBadTime
                                                   _RTC_SetTime
           ENTRY                   ADDRESS         REF BY
           =====                   =======         ======
           s_RTC_lastTime          1DFE 
    -------------------------------------------------------------------------
DATA16_I
  Relative segment, address: 1C09 - 1C14 (0xc bytes), align: 0
  Segment part 18.            Intra module refs:   RTC_RetrievePulseBytes
           ENTRY                   ADDRESS         REF BY
           =====                   =======         ======
           s_RTC_PulseBytes        1C09 
    -------------------------------------------------------------------------
<CODE> 1 (was CODE)
  Relative segment, address: D85A - D8F5 (0x9c bytes), align: 1
  Segment part 35.
           ENTRY                   ADDRESS         REF BY
           =====                   =======         ======
           RTC_RetrievePulseBytes
                                   D85A            Sampler_Init (Sampler)
               calls direct
    -------------------------------------------------------------------------
<CODE> 1 (was CODE)
  Relative segment, address: BEE2 - BFF7 (0x116 bytes), align: 1
  Segment part 39.
           ENTRY                   ADDRESS         REF BY
           =====                   =======         ======
           RTC_IsBadTime           BEE2            Hydrology_TimeCheck (hydrologytask)
    -------------------------------------------------------------------------
<CODE> 1 (was CODE)
  Relative segment, address: E2E6 - E363 (0x7e bytes), align: 1
  Segment part 63.
           ENTRY                   ADDRESS         REF BY
           =====                   =======         ======
           RTC_SetTimeStr6_B       E2E6            Hydrology_SetTime (message)
               calls direct
    -------------------------------------------------------------------------
<CODE> 1 (was CODE)
  Relative segment, address: F4B0 - F4F3 (0x44 bytes), align: 1
  Segment part 67.
           ENTRY                   ADDRESS         REF BY
           =====                   =======         ======
           RTC_ReadTimeBytes5      F4B0            HydrologyTask (hydrologytask)
                                                   Hydrology_TimeCheck (hydrologytask)
               calls direct
    -------------------------------------------------------------------------
<CODE> 1 (was CODE)
  Relative segment, address: F646 - F687 (0x42 bytes), align: 1
  Segment part 69.
           ENTRY                   ADDRESS         REF BY
           =====                   =======         ======
           RTC_ReadTimeBytes6      F646            HydrologyTask (hydrologytask)
                                                   Hydrology_ReadTime (message)
               calls direct
    -------------------------------------------------------------------------
<CODE> 1 (was CODE)
  Relative segment, address: C10E - C215 (0x108 bytes), align: 1
  Segment part 61.            Intra module refs:   RTC_SetTimeStr6_B
           ENTRY                   ADDRESS         REF BY
           =====                   =======         ======
           _RTC_SetTime            C10E            GPRS_Send (GTM900C)
                                                   Hydrology_TimeCheck (hydrologytask)
               calls direct
    -------------------------------------------------------------------------
<CODE> 1 (was CODE)
  Relative segment, address: C97C - CA51 (0xd6 bytes), align: 1
  Segment part 54.            Intra module refs:   RTC_ReadTimeBytes5
                                                   RTC_ReadTimeBytes6
           ENTRY                   ADDRESS         REF BY
           =====                   =======         ======
           _RTC_ReadTime           C97C 
               calls direct
    -------------------------------------------------------------------------
<CODE> 1 (was CODE)
  Relative segment, address: F880 - F8BB (0x3c bytes), align: 1
  Segment part 53.            Intra module refs:   _RTC_ReadTime
           ENTRY                   ADDRESS         REF BY
           =====                   =======         ======
           _RTC_Read_OneByte       F880 
               calls direct
    -------------------------------------------------------------------------
<CODE> 1 (was CODE)
  Relative segment, address: FE44 - FE75 (0x32 bytes), align: 1
  Segment part 59.            Intra module refs:   RTC_Open
                                                   _RTC_SetTime
           ENTRY                   ADDRESS         REF BY
           =====                   =======         ======
           _RTC_Write_OneByte      FE44 
               calls direct
    -------------------------------------------------------------------------
<CODE> 2 (was CODE)
  Relative segment, address: 000102AC - 000102CF (0x24 bytes), align: 1
  Segment part 20.            Intra module refs:   RTC_RetrievePulseBytes
           ENTRY                   ADDRESS         REF BY
           =====                   =======         ======
           _RTC_ReadRAM            000102AC 
               calls direct
    -------------------------------------------------------------------------
<CODE> 2 (was CODE)
  Relative segment, address: 000106FA - 00010709 (0x10 bytes), align: 1
  Segment part 41.            Intra module refs:   _RTC_ReadTime
           ENTRY                   ADDRESS         REF BY
           =====                   =======         ======
           _BCDtoDEC               000106FA        HydrologySample (hydrologytask)
                                                   HydrologySaveData (hydrologytask)
                                                   Utility_Is_A_ReportTime (common)
    -------------------------------------------------------------------------
<CODE> 1 (was CODE)
  Relative segment, address: F842 - F87F (0x3e bytes), align: 1
  Segment part 60.            Intra module refs:   _RTC_SetTime
           ENTRY                   ADDRESS         REF BY
           =====                   =======         ======
           _DECtoBCD               F842            convertSampleTimetoHydrology (hydrologytask)
                                                   convertSendTimetoHydrology (hydrologytask)
               calls direct
    -------------------------------------------------------------------------
<CODE> 1 (was CODE)
  Relative segment, address: F688 - F6C7 (0x40 bytes), align: 1
  Segment part 87.
           ENTRY                   ADDRESS         REF BY
           =====                   =======         ======
           RTC_Open                F688            Main_Init (main)
                                                   Restart_Init (main)
               calls direct
    -------------------------------------------------------------------------
<CODE> 2 (was CODE)
  Relative segment, address: 00010892 - 00010897 (0x6 bytes), align: 1
  Segment part 43.            Intra module refs:   IIC_Ack
                                                   IIC_NAck
                                                   IIC_Read_Byte
                                                   IIC_Send_Byte
                                                   IIC_Start
                                                   IIC_Stop
                                                   IIC_Wait_Ack
                                                   RTC_Open
           ENTRY                   ADDRESS         REF BY
           =====                   =======         ======
           IIC_SCL_HIGH            00010892 
    -------------------------------------------------------------------------
<CODE> 2 (was CODE)
  Relative segment, address: 0001087A - 0001087F (0x6 bytes), align: 1
  Segment part 45.            Intra module refs:   IIC_Ack
                                                   IIC_NAck
                                                   IIC_Read_Byte
                                                   IIC_Send_Byte
                                                   IIC_Start
                                                   IIC_Stop
                                                   IIC_Wait_Ack
           ENTRY                   ADDRESS         REF BY
           =====                   =======         ======
           IIC_SCL_LOW             0001087A 
    -------------------------------------------------------------------------
<CODE> 2 (was CODE)
  Relative segment, address: 0001088C - 00010891 (0x6 bytes), align: 1
  Segment part 42.            Intra module refs:   IIC_NAck
                                                   IIC_Send_Byte
                                                   IIC_Start
                                                   IIC_Stop
                                                   IIC_Wait_Ack
                                                   RTC_Open
           ENTRY                   ADDRESS         REF BY
           =====                   =======         ======
           IIC_SDA_HIGH            0001088C 
    -------------------------------------------------------------------------
<CODE> 2 (was CODE)
  Relative segment, address: 00010862 - 00010867 (0x6 bytes), align: 1
  Segment part 44.            Intra module refs:   IIC_Ack
                                                   IIC_Send_Byte
                                                   IIC_Start
                                                   IIC_Stop
           ENTRY                   ADDRESS         REF BY
           =====                   =======         ======
           IIC_SDA_LOW             00010862 
    -------------------------------------------------------------------------
<CODE> 2 (was CODE)
  Relative segment, address: 0001075E - 0001076B (0xe bytes), align: 1
  Segment part 91.            Intra module refs:   IIC_Read_Byte
                                                   IIC_Wait_Ack
           ENTRY                   ADDRESS         REF BY
           =====                   =======         ======
           READ_SDA                0001075E 
    -------------------------------------------------------------------------
<CODE> 2 (was CODE)
  Relative segment, address: 0001021C - 0001023F (0x24 bytes), align: 1
  Segment part 52.            Intra module refs:   _RTC_Read_OneByte
                                                   _RTC_Write_OneByte
           ENTRY                   ADDRESS         REF BY
           =====                   =======         ======
           IIC_Start               0001021C 
               calls direct
    -------------------------------------------------------------------------
<CODE> 2 (was CODE)
  Relative segment, address: 000101D0 - 000101F5 (0x26 bytes), align: 1
  Segment part 46.            Intra module refs:   IIC_Wait_Ack
                                                   _RTC_Read_OneByte
                                                   _RTC_Write_OneByte
           ENTRY                   ADDRESS         REF BY
           =====                   =======         ======
           IIC_Stop                000101D0 
               calls direct
    -------------------------------------------------------------------------
<CODE> 1 (was CODE)
  Relative segment, address: F9AC - F9E5 (0x3a bytes), align: 1
  Segment part 50.            Intra module refs:   _RTC_Read_OneByte
                                                   _RTC_Write_OneByte
           ENTRY                   ADDRESS         REF BY
           =====                   =======         ======
           IIC_Wait_Ack            F9AC 
               calls direct
    -------------------------------------------------------------------------
<CODE> 2 (was CODE)
  Relative segment, address: 0001044E - 00010469 (0x1c bytes), align: 1
  Segment part 47.            Intra module refs:   IIC_Read_Byte
           ENTRY                   ADDRESS         REF BY
           =====                   =======         ======
           IIC_Ack                 0001044E 
               calls direct
    -------------------------------------------------------------------------
<CODE> 2 (was CODE)
  Relative segment, address: 0001046A - 00010485 (0x1c bytes), align: 1
  Segment part 48.            Intra module refs:   IIC_Read_Byte
           ENTRY                   ADDRESS         REF BY
           =====                   =======         ======
           IIC_NAck                0001046A 
               calls direct
    -------------------------------------------------------------------------
<CODE> 1 (was CODE)
  Relative segment, address: FB02 - FB39 (0x38 bytes), align: 1
  Segment part 51.            Intra module refs:   _RTC_Read_OneByte
                                                   _RTC_Write_OneByte
           ENTRY                   ADDRESS         REF BY
           =====                   =======         ======
           IIC_Send_Byte           FB02 
               calls direct
    -------------------------------------------------------------------------
<CODE> 1 (was CODE)
  Relative segment, address: F4F4 - F537 (0x44 bytes), align: 1
  Segment part 49.            Intra module refs:   _RTC_Read_OneByte
           ENTRY                   ADDRESS         REF BY
           =====                   =======         ======
           IIC_Read_Byte           F4F4 
               calls direct
    -------------------------------------------------------------------------
DATA16_ID
  Relative segment, address: 6511 - 651C (0xc bytes), align: 0
  Segment part 19.            Intra module refs:   s_RTC_PulseBytes

    *************************************************************************

  FILE NAME : C:\Users\Administrator\Desktop\师弟代码\RTUtest_GP\Debug\Obj\Sampler.r43
  PROGRAM MODULE, NAME : Sampler

  SEGMENTS IN THE MODULE
  ======================
DATA16_AN
  Relative segment, address: 0218 - 0219 (0x2 bytes), align: 0
  Segment part 3. ROOT        Intra module refs:   Sampler_Init
           ENTRY                   ADDRESS         REF BY
           =====                   =======         ======
           _A_PAIES_L              0218 
           LOCAL                   ADDRESS         
           =====                   =======         
           PAIES                   0218 
           PAIES_H                 0219 
           PAIES_L                 0218 
    -------------------------------------------------------------------------
DATA16_AN
  Relative segment, address: 022A - 022B (0x2 bytes), align: 0
  Segment part 9. ROOT        Intra module refs:   Sampler_Init
           ENTRY                   ADDRESS         REF BY
           =====                   =======         ======
           _A_PBSEL_L              022A 
           LOCAL                   ADDRESS         
           =====                   =======         
           PBSEL                   022A 
           PBSEL_H                 022B 
           PBSEL_L                 022A 
    -------------------------------------------------------------------------
DATA16_Z
  Relative segment, address: 1E03 - 1E06 (0x4 bytes), align: 0
  Segment part 30.            Intra module refs:   Sampler_Init
           ENTRY                   ADDRESS         REF BY
           =====                   =======         ======
           g_pulse_rate            1E03 
    -------------------------------------------------------------------------
DATA16_Z
  Relative segment, address: 1E07 - 1E12 (0xc bytes), align: 0
  Segment part 31.            Intra module refs:   Sampler_Init
           ENTRY                   ADDRESS         REF BY
           =====                   =======         ======
           g_pulse_range           1E07 
    -------------------------------------------------------------------------
<CODE> 1 (was CODE)
  Relative segment, address: D71E - D7BD (0xa0 bytes), align: 1
  Segment part 47.
           ENTRY                   ADDRESS         REF BY
           =====                   =======         ======
           Sampler_Init            D71E            Main_Init (main)
                                                   Restart_Init (main)
               calls direct
    -------------------------------------------------------------------------
<CODE> 2 (was CODE)
  Relative segment, address: 000105C0 - 000105D7 (0x18 bytes), align: 1
  Segment part 49.
           ENTRY                   ADDRESS         REF BY
           =====                   =======         ======
           Sampler_Open            000105C0        main (main)
               calls direct
    -------------------------------------------------------------------------
DATA16_Z
  Relative segment, address: 1E13 - 1E17 (0x5 bytes), align: 0
  Segment part 45.            Intra module refs:   PORT1_ISR
           ENTRY                   ADDRESS         REF BY
           =====                   =======         ======
           ISR_Count_Temp          1E13 
    -------------------------------------------------------------------------
<CODE> 1 (was CODE)
  Relative segment, address: DA2A - DABF (0x96 bytes), align: 1
  Segment part 58.            Intra module refs:   PORT1_ISR
           ENTRY                   ADDRESS         REF BY
           =====                   =======         ======
           ISR_Count_Cal           DA2A 
    -------------------------------------------------------------------------
ISR_CODE
  Relative segment, address: 655A - 6883 (0x32a bytes), align: 1
  Segment part 59.            Intra module refs:   PORT1_ISR::??INTVEC 94
           ENTRY                   ADDRESS         REF BY
           =====                   =======         ======
           PORT1_ISR               655A 
               interrupt function
               calls direct
    -------------------------------------------------------------------------
DATA16_Z
  Relative segment, address: 1C96 - 1CA5 (0x10 bytes), align: 1
  Segment part 46.            Intra module refs:   PORT1_ISR
           LOCAL                   ADDRESS         
           =====                   =======         
           PORT1_ISR::a            1C96 
    -------------------------------------------------------------------------
INTVEC
  Common segment, address: FF80 - FFDF (0x60 bytes), align: 1
  Segment part 12. ROOT 
           ENTRY                   ADDRESS         REF BY
           =====                   =======         ======
           PORT1_ISR::??INTVEC 94
                                   FFDE 
    -------------------------------------------------------------------------
DATA16_C
  Relative segment, address: 6353 - 6353 (0x1 bytes), align: 0
  Segment part 14.            Intra module refs:   Sampler_Init
    -------------------------------------------------------------------------
DATA16_C
  Relative segment, address: 6354 - 635D (0xa bytes), align: 0
  Segment part 21.            Intra module refs:   PORT1_ISR
           LOCAL                   ADDRESS         
           =====                   =======         
           PORT1_ISR::__FUNCTION__
                                   6354 
    -------------------------------------------------------------------------
DATA16_C
  Relative segment, address: 635E - 6364 (0x7 bytes), align: 0
  Segment part 22.            Intra module refs:   PORT1_ISR
    -------------------------------------------------------------------------
DATA16_C
  Relative segment, address: 6365 - 636B (0x7 bytes), align: 0
  Segment part 23.            Intra module refs:   PORT1_ISR
    -------------------------------------------------------------------------
DATA16_C
  Relative segment, address: 636C - 6372 (0x7 bytes), align: 0
  Segment part 24.            Intra module refs:   PORT1_ISR
    -------------------------------------------------------------------------
DATA16_C
  Relative segment, address: 6373 - 6379 (0x7 bytes), align: 0
  Segment part 25.            Intra module refs:   PORT1_ISR
    -------------------------------------------------------------------------
DATA16_C
  Relative segment, address: 637A - 6380 (0x7 bytes), align: 0
  Segment part 26.            Intra module refs:   PORT1_ISR
    -------------------------------------------------------------------------
DATA16_C
  Relative segment, address: 6381 - 6387 (0x7 bytes), align: 0
  Segment part 27.            Intra module refs:   PORT1_ISR
    -------------------------------------------------------------------------
DATA16_C
  Relative segment, address: 6388 - 638E (0x7 bytes), align: 0
  Segment part 28.            Intra module refs:   PORT1_ISR
    -------------------------------------------------------------------------
DATA16_C
  Relative segment, address: 638F - 6395 (0x7 bytes), align: 0
  Segment part 29.            Intra module refs:   PORT1_ISR

    *************************************************************************

  FILE NAME : C:\Users\Administrator\Desktop\师弟代码\RTUtest_GP\Debug\Obj\store.r43
  PROGRAM MODULE, NAME : store

  SEGMENTS IN THE MODULE
  ======================
DATA16_I
  Relative segment, address: 1C04 - 1C05 (0x2 bytes), align: 1
  Segment part 5.
           ENTRY                   ADDRESS         REF BY
           =====                   =======         ======
           s_StartIdx              1C04            Hydrology_ReadStartIdx (message)
                                                   Hydrology_SetStartIdx (message)
    -------------------------------------------------------------------------
DATA16_I
  Relative segment, address: 1C06 - 1C07 (0x2 bytes), align: 1
  Segment part 7.
           ENTRY                   ADDRESS         REF BY
           =====                   =======         ======
           s_EndIdx                1C06            Hydrology_ReadEndIdx (message)
                                                   Hydrology_SetEndIdx (message)
    -------------------------------------------------------------------------
<CODE> 2 (was CODE)
  Relative segment, address: 000108C0 - 000108C3 (0x4 bytes), align: 1
  Segment part 9.
           ENTRY                   ADDRESS         REF BY
           =====                   =======         ======
           Store_Init              000108C0        Restart_Init (main)
               calls direct
    -------------------------------------------------------------------------
<CODE> 2 (was CODE)
  Relative segment, address: 0001002E - 00010059 (0x2c bytes), align: 1
  Segment part 22.
           ENTRY                   ADDRESS         REF BY
           =====                   =======         ======
           Store_SetWIFIConfigFlag
                                   0001002E        WIFI_Open (wifi_config)
               calls direct
    -------------------------------------------------------------------------
<CODE> 2 (was CODE)
  Relative segment, address: 00010086 - 000100B1 (0x2c bytes), align: 1
  Segment part 23.
           ENTRY                   ADDRESS         REF BY
           =====                   =======         ======
           Store_ReadWIFIConfigFlag
                                   00010086        WIFI_Open (wifi_config)
               calls direct
    -------------------------------------------------------------------------
<CODE> 1 (was CODE)
  Relative segment, address: F5C0 - F603 (0x44 bytes), align: 1
  Segment part 37.
           ENTRY                   ADDRESS         REF BY
           =====                   =======         ======
           Store_ReadPulseRate     F5C0            Sampler_Init (Sampler)
               calls direct
    -------------------------------------------------------------------------
<CODE> 1 (was CODE)
  Relative segment, address: F604 - F645 (0x42 bytes), align: 1
  Segment part 40.            Intra module refs:   Store_ReadPulseRangeBytes
           ENTRY                   ADDRESS         REF BY
           =====                   =======         ======
           Store_SetPulseRange     F604 
               calls direct
    -------------------------------------------------------------------------
<CODE> 1 (was CODE)
  Relative segment, address: BCB2 - BDC9 (0x118 bytes), align: 1
  Segment part 41.
           ENTRY                   ADDRESS         REF BY
           =====                   =======         ======
           Store_ReadPulseRangeBytes
                                   BCB2            Sampler_Init (Sampler)
               calls direct
    -------------------------------------------------------------------------
<CODE> 2 (was CODE)
  Relative segment, address: 000100DE - 00010107 (0x2a bytes), align: 1
  Segment part 43.
           ENTRY                   ADDRESS         REF BY
           =====                   =======         ======
           Store_ReadIoDirConfig   000100DE        Sampler_Init (Sampler)
               calls direct
    -------------------------------------------------------------------------
<CODE> 2 (was CODE)
  Relative segment, address: 00010132 - 0001015B (0x2a bytes), align: 1
  Segment part 47.
           ENTRY                   ADDRESS         REF BY
           =====                   =======         ======
           Store_ReadIoLevelConfig
                                   00010132        Sampler_Init (Sampler)
               calls direct
    -------------------------------------------------------------------------
<CODE> 1 (was CODE)
  Relative segment, address: E4D8 - E54F (0x78 bytes), align: 1
  Segment part 58.
           ENTRY                   ADDRESS         REF BY
           =====                   =======         ======
           Store_CheckDataItemSended
                                   E4D8            Hydrology_RetrieveIndex (message)
               calls direct
    -------------------------------------------------------------------------
<CODE> 1 (was CODE)
  Relative segment, address: EBA4 - EC05 (0x62 bytes), align: 1
  Segment part 60.
           ENTRY                   ADDRESS         REF BY
           =====                   =======         ======
           Store_MarkDataItemSended
                                   EBA4            HydrologyInstantWaterLevel (hydrologytask)
               calls direct
    -------------------------------------------------------------------------
<CODE> 1 (was CODE)
  Relative segment, address: F398 - F3DD (0x46 bytes), align: 1
  Segment part 61.            Intra module refs:   Store_WriteDataItemAuto
           ENTRY                   ADDRESS         REF BY
           =====                   =======         ======
           Store_WriteDataItem     F398 
               calls direct
    -------------------------------------------------------------------------
<CODE> 1 (was CODE)
  Relative segment, address: ED86 - EDE3 (0x5e bytes), align: 1
  Segment part 62.
           ENTRY                   ADDRESS         REF BY
           =====                   =======         ======
           Store_WriteDataItemAuto
                                   ED86            HydrologySaveData (hydrologytask)
               calls direct
    -------------------------------------------------------------------------
<CODE> 1 (was CODE)
  Relative segment, address: CFD4 - D089 (0xb6 bytes), align: 1
  Segment part 63.
           ENTRY                   ADDRESS         REF BY
           =====                   =======         ======
           Store_ReadDataItem      CFD4            HydrologyInstantWaterLevel (hydrologytask)
               calls direct
    -------------------------------------------------------------------------
DATA16_ID
  Relative segment, address: 650C - 650D (0x2 bytes), align: 1
  Segment part 6.             Intra module refs:   s_StartIdx
    -------------------------------------------------------------------------
DATA16_ID
  Relative segment, address: 650E - 650F (0x2 bytes), align: 1
  Segment part 8.             Intra module refs:   s_EndIdx
    -------------------------------------------------------------------------
DATA16_C
  Relative segment, address: 6396 - 63A8 (0x13 bytes), align: 0
  Segment part 2.             Intra module refs:   Store_ReadDataItem
           LOCAL                   ADDRESS         
           =====                   =======         
           Store_ReadDataItem::__FUNCTION__
                                   6396 
    -------------------------------------------------------------------------
DATA16_C
  Relative segment, address: 63A9 - 63C2 (0x1a bytes), align: 0
  Segment part 3.             Intra module refs:   Store_ReadDataItem

    *************************************************************************

  FILE NAME : C:\Users\Administrator\Desktop\师弟代码\RTUtest_GP\Debug\Obj\timer.r43
  PROGRAM MODULE, NAME : timer

  SEGMENTS IN THE MODULE
  ======================
DATA16_AN
  Relative segment, address: 0380 - 0381 (0x2 bytes), align: 0
  Segment part 3. ROOT        Intra module refs:   TimerA_Init
           ENTRY                   ADDRESS         REF BY
           =====                   =======         ======
           TA1CTL                  0380 
    -------------------------------------------------------------------------
DATA16_AN
  Relative segment, address: 0382 - 0383 (0x2 bytes), align: 0
  Segment part 4. ROOT        Intra module refs:   TimerA_Init
           ENTRY                   ADDRESS         REF BY
           =====                   =======         ======
           TA1CCTL0                0382 
    -------------------------------------------------------------------------
DATA16_AN
  Relative segment, address: 0392 - 0393 (0x2 bytes), align: 0
  Segment part 5. ROOT        Intra module refs:   TimerA_Init
           ENTRY                   ADDRESS         REF BY
           =====                   =======         ======
           TA1CCR0                 0392 
    -------------------------------------------------------------------------
DATA16_AN
  Relative segment, address: 03C0 - 03C1 (0x2 bytes), align: 0
  Segment part 6. ROOT        Intra module refs:   TimerB_Init
           ENTRY                   ADDRESS         REF BY
           =====                   =======         ======
           TB0CTL                  03C0 
    -------------------------------------------------------------------------
DATA16_AN
  Relative segment, address: 03C4 - 03C5 (0x2 bytes), align: 0
  Segment part 7. ROOT        Intra module refs:   TimerB_Init
           ENTRY                   ADDRESS         REF BY
           =====                   =======         ======
           TB0CCTL1                03C4 
    -------------------------------------------------------------------------
DATA16_AN
  Relative segment, address: 03C6 - 03C7 (0x2 bytes), align: 0
  Segment part 8. ROOT        Intra module refs:   TimerB_Init
           ENTRY                   ADDRESS         REF BY
           =====                   =======         ======
           TB0CCTL2                03C6 
    -------------------------------------------------------------------------
DATA16_AN
  Relative segment, address: 03D4 - 03D5 (0x2 bytes), align: 0
  Segment part 9. ROOT        Intra module refs:   TIMERB1_ISR
                                                   TimerB_Init
           ENTRY                   ADDRESS         REF BY
           =====                   =======         ======
           TB0CCR1                 03D4 
    -------------------------------------------------------------------------
DATA16_AN
  Relative segment, address: 03D6 - 03D7 (0x2 bytes), align: 0
  Segment part 10. ROOT       Intra module refs:   TIMERB1_ISR
                                                   TimerB_Init
           ENTRY                   ADDRESS         REF BY
           =====                   =======         ======
           TB0CCR2                 03D6 
    -------------------------------------------------------------------------
DATA16_AN
  Relative segment, address: 03EE - 03EF (0x2 bytes), align: 0
  Segment part 11. ROOT       Intra module refs:   TIMERB1_ISR
           ENTRY                   ADDRESS         REF BY
           =====                   =======         ======
           TB0IV                   03EE 
    -------------------------------------------------------------------------
DATA16_Z
  Relative segment, address: 1CA6 - 1CA7 (0x2 bytes), align: 1
  Segment part 17.            Intra module refs:   TIMERA0_ISR
           LOCAL                   ADDRESS         
           =====                   =======         
           s_ClockTicks            1CA6 
    -------------------------------------------------------------------------
DATA16_Z
  Relative segment, address: 1CA8 - 1CA9 (0x2 bytes), align: 1
  Segment part 18.            Intra module refs:   TIMERB1_ISR
                                                   TimerB_Clear
           LOCAL                   ADDRESS         
           =====                   =======         
           s_reset_count           1CA8 
    -------------------------------------------------------------------------
<CODE> 2 (was CODE)
  Relative segment, address: 000102F2 - 00010313 (0x22 bytes), align: 1
  Segment part 21.
           ENTRY                   ADDRESS         REF BY
           =====                   =======         ======
           TimerA_Init             000102F2        Restart_Init (main)
    -------------------------------------------------------------------------
<CODE> 2 (was CODE)
  Relative segment, address: 00010842 - 00010849 (0x8 bytes), align: 1
  Segment part 22.
           ENTRY                   ADDRESS         REF BY
           =====                   =======         ======
           WatchDog_Init           00010842        Restart_Init (main)
    -------------------------------------------------------------------------
<CODE> 2 (was CODE)
  Relative segment, address: 00010852 - 00010859 (0x8 bytes), align: 1
  Segment part 23.            Intra module refs:   TIMERB1_ISR
           ENTRY                   ADDRESS         REF BY
           =====                   =======         ======
           WatchDog_Clear          00010852        HydrologyTask (hydrologytask)
                                                   Main_Init (main)
    -------------------------------------------------------------------------
<CODE> 1 (was CODE)
  Relative segment, address: F970 - F9AB (0x3c bytes), align: 1
  Segment part 24.
           ENTRY                   ADDRESS         REF BY
           =====                   =======         ======
           TimerB_Init             F970            Restart_Init (main)
    -------------------------------------------------------------------------
<CODE> 2 (was CODE)
  Relative segment, address: 0001086E - 00010873 (0x6 bytes), align: 1
  Segment part 25.
           ENTRY                   ADDRESS         REF BY
           =====                   =======         ======
           TimerB_Clear            0001086E        HydrologyTask (hydrologytask)
                                                   Main_Init (main)
    -------------------------------------------------------------------------
ISR_CODE
  Relative segment, address: 6884 - 6897 (0x14 bytes), align: 1
  Segment part 26.            Intra module refs:   TIMERA0_ISR::??INTVEC 98
           ENTRY                   ADDRESS         REF BY
           =====                   =======         ======
           TIMERA0_ISR             6884 
               interrupt function
               calls direct
    -------------------------------------------------------------------------
ISR_CODE
  Relative segment, address: 6898 - 6899 (0x2 bytes), align: 1
  Segment part 27.            Intra module refs:   TIMERB0_ISR::??INTVEC 120
           ENTRY                   ADDRESS         REF BY
           =====                   =======         ======
           TIMERB0_ISR             6898 
               interrupt function
    -------------------------------------------------------------------------
ISR_CODE
  Relative segment, address: 689A - 68D7 (0x3e bytes), align: 1
  Segment part 28.            Intra module refs:   TIMERB1_ISR::??INTVEC 118
           ENTRY                   ADDRESS         REF BY
           =====                   =======         ======
           TIMERB1_ISR             689A 
               interrupt function
               calls direct
    -------------------------------------------------------------------------
INTVEC
  Common segment, address: FF80 - FFE3 (0x64 bytes), align: 1
  Segment part 13. ROOT 
           ENTRY                   ADDRESS         REF BY
           =====                   =======         ======
           TIMERA0_ISR::??INTVEC 98
                                   FFE2 
    -------------------------------------------------------------------------
INTVEC
  Common segment, address: FF80 - FFF7 (0x78 bytes), align: 1
  Segment part 14. ROOT 
           ENTRY                   ADDRESS         REF BY
           =====                   =======         ======
           TIMERB1_ISR::??INTVEC 118
                                   FFF6 
    -------------------------------------------------------------------------
INTVEC
  Common segment, address: FF80 - FFF9 (0x7a bytes), align: 1
  Segment part 15. ROOT 
           ENTRY                   ADDRESS         REF BY
           =====                   =======         ======
           TIMERB0_ISR::??INTVEC 120
                                   FFF8 

    *************************************************************************

  FILE NAME : C:\Users\Administrator\Desktop\师弟代码\RTUtest_GP\Debug\Obj\uart0.r43
  PROGRAM MODULE, NAME : uart0

  SEGMENTS IN THE MODULE
  ======================
DATA16_AN
  Relative segment, address: 05C0 - 05C1 (0x2 bytes), align: 0
  Segment part 4. ROOT 
           ENTRY                   ADDRESS         REF BY
           =====                   =======         ======
           _A_UCA0CTLW0_L          05C0 
           LOCAL                   ADDRESS         
           =====                   =======         
           UCA0CTLW0               05C0 
           UCA0CTLW0_H             05C1 
           UCA0CTLW0_L             05C0 
    -------------------------------------------------------------------------
DATA16_AN
  Relative segment, address: 05C6 - 05C7 (0x2 bytes), align: 0
  Segment part 5. ROOT 
           ENTRY                   ADDRESS         REF BY
           =====                   =======         ======
           _A_UCA0BRW_L            05C6 
           LOCAL                   ADDRESS         
           =====                   =======         
           UCA0BRW                 05C6 
           UCA0BRW_H               05C7 
           UCA0BRW_L               05C6 
    -------------------------------------------------------------------------
DATA16_AN
  Relative segment, address: 05C8 - 05C8 (0x1 bytes), align: 0
  Segment part 6. ROOT 
           ENTRY                   ADDRESS         REF BY
           =====                   =======         ======
           UCA0MCTL                05C8 
    -------------------------------------------------------------------------
DATA16_AN
  Relative segment, address: 05CC - 05CC (0x1 bytes), align: 0
  Segment part 7. ROOT        Intra module refs:   UART0_RX_ISR
           ENTRY                   ADDRESS         REF BY
           =====                   =======         ======
           UCA0RXBUF               05CC 
    -------------------------------------------------------------------------
DATA16_AN
  Relative segment, address: 05CE - 05CE (0x1 bytes), align: 0
  Segment part 8. ROOT        Intra module refs:   UART0_Send
           ENTRY                   ADDRESS         REF BY
           =====                   =======         ======
           UCA0TXBUF               05CE 
    -------------------------------------------------------------------------
DATA16_AN
  Relative segment, address: 05DC - 05DD (0x2 bytes), align: 0
  Segment part 9. ROOT        Intra module refs:   UART0_Close
                                                   UART0_Send
           ENTRY                   ADDRESS         REF BY
           =====                   =======         ======
           _A_UCA0ICTL_L           05DC 
           LOCAL                   ADDRESS         
           =====                   =======         
           UCA0ICTL                05DC 
           UCA0ICTL_H              05DD 
           UCA0ICTL_L              05DC 
    -------------------------------------------------------------------------
DATA16_Z
  Relative segment, address: 1CAA - 1CAB (0x2 bytes), align: 1
  Segment part 14.            Intra module refs:   UART0_ClearBuffer
                                                   UART0_RX_ISR
           ENTRY                   ADDRESS         REF BY
           =====                   =======         ======
           IsGetInput              1CAA 
    -------------------------------------------------------------------------
DATA16_Z
  Relative segment, address: 1CAC - 1CAD (0x2 bytes), align: 1
  Segment part 15.            Intra module refs:   UART0_ClearBuffer
                                                   UART0_Send
           ENTRY                   ADDRESS         REF BY
           =====                   =======         ======
           UART0_Tx_Buf            1CAC 
    -------------------------------------------------------------------------
DATA16_Z
  Relative segment, address: 1E18 - 209C (0x285 bytes), align: 0
  Segment part 16.            Intra module refs:   UART0_RX_ISR
                                                   UART0_RecvLineTry
                                                   UART0_RecvLineWait
           ENTRY                   ADDRESS         REF BY
           =====                   =======         ======
           UART0_Rx_Buffer         1E18 
    -------------------------------------------------------------------------
DATA16_Z
  Relative segment, address: 1CAE - 1CB3 (0x6 bytes), align: 1
  Segment part 17.            Intra module refs:   UART0_ClearBuffer
                                                   UART0_RX_ISR
                                                   UART0_RecvLineTry
                                                   UART0_RecvLineWait
           ENTRY                   ADDRESS         REF BY
           =====                   =======         ======
           UART0_Rx_BufLen         1CAE 
    -------------------------------------------------------------------------
DATA16_Z
  Relative segment, address: 1CB4 - 1CB5 (0x2 bytes), align: 1
  Segment part 18.            Intra module refs:   UART0_ClearBuffer
                                                   UART0_RX_ISR
           ENTRY                   ADDRESS         REF BY
           =====                   =======         ======
           UART0_Rx_INTIndex       1CB4 
    -------------------------------------------------------------------------
DATA16_Z
  Relative segment, address: 1CB6 - 1CB7 (0x2 bytes), align: 1
  Segment part 19.            Intra module refs:   UART0_ClearBuffer
                                                   UART0_RX_ISR
           ENTRY                   ADDRESS         REF BY
           =====                   =======         ======
           UART0_Rx_INTLen         1CB6 
    -------------------------------------------------------------------------
DATA16_Z
  Relative segment, address: 1CB8 - 1CB9 (0x2 bytes), align: 1
  Segment part 20.            Intra module refs:   UART0_ClearBuffer
                                                   UART0_RecvLineTry
                                                   UART0_RecvLineWait
           ENTRY                   ADDRESS         REF BY
           =====                   =======         ======
           UART0_Rx_RecvIndex      1CB8 
    -------------------------------------------------------------------------
DATA16_Z
  Relative segment, address: 1CBA - 1CBB (0x2 bytes), align: 1
  Segment part 21.            Intra module refs:   UART0_ClearBuffer
                                                   UART0_Send
           ENTRY                   ADDRESS         REF BY
           =====                   =======         ======
           UART0_Tx_Flag           1CBA 
    -------------------------------------------------------------------------
DATA16_Z
  Relative segment, address: 1CBC - 1CBD (0x2 bytes), align: 1
  Segment part 22.            Intra module refs:   UART0_ClearBuffer
                                                   UART0_Send
           ENTRY                   ADDRESS         REF BY
           =====                   =======         ======
           UART0_Tx_Len            1CBC 
    -------------------------------------------------------------------------
DATA16_Z
  Relative segment, address: 1CBE - 1CBF (0x2 bytes), align: 1
  Segment part 28.            Intra module refs:   UART0_RecvLineWait
                                                   UART0_Send
           LOCAL                   ADDRESS         
           =====                   =======         
           s_uart0_type            1CBE 
    -------------------------------------------------------------------------
<CODE> 2 (was CODE)
  Relative segment, address: 0001084A - 00010851 (0x8 bytes), align: 1
  Segment part 36.
           ENTRY                   ADDRESS         REF BY
           =====                   =======         ======
           UART0_Close             0001084A        GSM_Close (GSM)
               calls direct
    -------------------------------------------------------------------------
<CODE> 1 (was CODE)
  Relative segment, address: FBAA - FBE1 (0x38 bytes), align: 1
  Segment part 32.            Intra module refs:   UART0_Close
           ENTRY                   ADDRESS         REF BY
           =====                   =======         ======
           UART0_ClearBuffer       FBAA 
               calls direct
    -------------------------------------------------------------------------
<CODE> 1 (was CODE)
  Relative segment, address: D13E - D1ED (0xb0 bytes), align: 1
  Segment part 39.
           ENTRY                   ADDRESS         REF BY
           =====                   =======         ======
           UART0_Send              D13E            GSM_AT_CloseFeedback (GSM)
                                                   GSM_AT_OffCall (GSM)
                                                   GSM_AT_QuitInput (GSM)
                                                   GSM_AT_ShutDown (GSM)
               calls direct
    -------------------------------------------------------------------------
<CODE> 1 (was CODE)
  Relative segment, address: E364 - E3E1 (0x7e bytes), align: 1
  Segment part 42.
           ENTRY                   ADDRESS         REF BY
           =====                   =======         ======
           UART0_RecvLineTry       E364            GSM_DealAllData (GSM)
    -------------------------------------------------------------------------
<CODE> 1 (was CODE)
  Relative segment, address: D67C - D71D (0xa2 bytes), align: 1
  Segment part 43.
           ENTRY                   ADDRESS         REF BY
           =====                   =======         ======
           UART0_RecvLineWait      D67C            GSM_AT_CloseFeedback (GSM)
                                                   GSM_AT_OffCall (GSM)
                                                   GSM_AT_ShutDown (GSM)
               calls direct
    -------------------------------------------------------------------------
ISR_CODE
  Relative segment, address: 68D8 - 6A21 (0x14a bytes), align: 1
  Segment part 46.            Intra module refs:   UART0_RX_ISR::??INTVEC 114
           ENTRY                   ADDRESS         REF BY
           =====                   =======         ======
           UART0_RX_ISR            68D8 
               interrupt function
    -------------------------------------------------------------------------
INTVEC
  Common segment, address: FF80 - FFF3 (0x74 bytes), align: 1
  Segment part 10. ROOT 
           ENTRY                   ADDRESS         REF BY
           =====                   =======         ======
           UART0_RX_ISR::??INTVEC 114
                                   FFF2 

    *************************************************************************

  FILE NAME : C:\Users\Administrator\Desktop\师弟代码\RTUtest_GP\Debug\Obj\uart1.r43
  PROGRAM MODULE, NAME : uart1

  SEGMENTS IN THE MODULE
  ======================
DATA16_AN
  Relative segment, address: 0600 - 0601 (0x2 bytes), align: 0
  Segment part 3. ROOT        Intra module refs:   UART1_Open_9600
           ENTRY                   ADDRESS         REF BY
           =====                   =======         ======
           _A_UCA1CTLW0_L          0600 
           LOCAL                   ADDRESS         
           =====                   =======         
           UCA1CTLW0               0600 
           UCA1CTLW0_H             0601 
           UCA1CTLW0_L             0600 
    -------------------------------------------------------------------------
DATA16_AN
  Relative segment, address: 0606 - 0607 (0x2 bytes), align: 0
  Segment part 4. ROOT        Intra module refs:   UART1_Open_9600
           ENTRY                   ADDRESS         REF BY
           =====                   =======         ======
           _A_UCA1BRW_L            0606 
           LOCAL                   ADDRESS         
           =====                   =======         
           UCA1BRW                 0606 
           UCA1BRW_H               0607 
           UCA1BRW_L               0606 
    -------------------------------------------------------------------------
DATA16_AN
  Relative segment, address: 0608 - 0608 (0x1 bytes), align: 0
  Segment part 5. ROOT        Intra module refs:   UART1_Open_9600
           ENTRY                   ADDRESS         REF BY
           =====                   =======         ======
           UCA1MCTL                0608 
    -------------------------------------------------------------------------
DATA16_AN
  Relative segment, address: 060C - 060C (0x1 bytes), align: 0
  Segment part 6. ROOT        Intra module refs:   UART1_RX_ISR
           ENTRY                   ADDRESS         REF BY
           =====                   =======         ======
           UCA1RXBUF               060C 
    -------------------------------------------------------------------------
DATA16_AN
  Relative segment, address: 060E - 060E (0x1 bytes), align: 0
  Segment part 7. ROOT        Intra module refs:   UART1_Send
           ENTRY                   ADDRESS         REF BY
           =====                   =======         ======
           UCA1TXBUF               060E 
    -------------------------------------------------------------------------
DATA16_AN
  Relative segment, address: 061C - 061D (0x2 bytes), align: 0
  Segment part 8. ROOT        Intra module refs:   UART1_Open_9600
                                                   UART1_Send
           ENTRY                   ADDRESS         REF BY
           =====                   =======         ======
           _A_UCA1ICTL_L           061C 
           LOCAL                   ADDRESS         
           =====                   =======         
           UCA1ICTL                061C 
           UCA1ICTL_H              061D 
           UCA1ICTL_L              061C 
    -------------------------------------------------------------------------
DATA16_Z
  Relative segment, address: 1CC0 - 1CC1 (0x2 bytes), align: 1
  Segment part 12.            Intra module refs:   UART1_ClearBuffer
                                                   UART1_Send
           ENTRY                   ADDRESS         REF BY
           =====                   =======         ======
           UART1_Tx_Buf            1CC0 
    -------------------------------------------------------------------------
DATA16_Z
  Relative segment, address: 209D - 23BC (0x320 bytes), align: 0
  Segment part 13.            Intra module refs:   UART1_RX_ISR
                                                   UART1_RecvLineTry
           ENTRY                   ADDRESS         REF BY
           =====                   =======         ======
           UART1_Rx_Buffer         209D 
    -------------------------------------------------------------------------
DATA16_Z
  Relative segment, address: 1CC2 - 1CC5 (0x4 bytes), align: 1
  Segment part 14.            Intra module refs:   Judge_Watermeter
                                                   UART1_ClearBuffer
                                                   UART1_RX_ISR
                                                   UART1_RecvLineTry
           ENTRY                   ADDRESS         REF BY
           =====                   =======         ======
           UART1_Rx_BufLen         1CC2 
    -------------------------------------------------------------------------
DATA16_Z
  Relative segment, address: 1CC6 - 1CC7 (0x2 bytes), align: 1
  Segment part 15.            Intra module refs:   Judge_Watermeter
                                                   UART1_ClearBuffer
                                                   UART1_RX_ISR
           ENTRY                   ADDRESS         REF BY
           =====                   =======         ======
           UART1_Rx_INTIndex       1CC6 
    -------------------------------------------------------------------------
DATA16_Z
  Relative segment, address: 1CC8 - 1CC9 (0x2 bytes), align: 1
  Segment part 16.            Intra module refs:   Judge_Watermeter
                                                   UART1_ClearBuffer
                                                   UART1_RX_ISR
           ENTRY                   ADDRESS         REF BY
           =====                   =======         ======
           UART1_Rx_INTLen         1CC8 
    -------------------------------------------------------------------------
DATA16_Z
  Relative segment, address: 1CCA - 1CCB (0x2 bytes), align: 1
  Segment part 17.            Intra module refs:   UART1_ClearBuffer
                                                   UART1_RecvLineTry
           ENTRY                   ADDRESS         REF BY
           =====                   =======         ======
           UART1_Rx_RecvIndex      1CCA 
    -------------------------------------------------------------------------
DATA16_Z
  Relative segment, address: 1CCC - 1CCD (0x2 bytes), align: 1
  Segment part 18.            Intra module refs:   UART1_ClearBuffer
                                                   UART1_Send
           ENTRY                   ADDRESS         REF BY
           =====                   =======         ======
           UART1_Tx_Flag           1CCC 
    -------------------------------------------------------------------------
DATA16_Z
  Relative segment, address: 1CCE - 1CCF (0x2 bytes), align: 1
  Segment part 19.            Intra module refs:   UART1_ClearBuffer
                                                   UART1_Send
           ENTRY                   ADDRESS         REF BY
           =====                   =======         ======
           UART1_Tx_Len            1CCE 
    -------------------------------------------------------------------------
DATA16_Z
  Relative segment, address: 1CD0 - 1CD1 (0x2 bytes), align: 1
  Segment part 20.            Intra module refs:   UART1_Open_9600
                                                   UART1_RX_ISR
           LOCAL                   ADDRESS         
           =====                   =======         
           s_uart1_type            1CD0 
    -------------------------------------------------------------------------
<CODE> 1 (was CODE)
  Relative segment, address: FB72 - FBA9 (0x38 bytes), align: 1
  Segment part 23.
           ENTRY                   ADDRESS         REF BY
           =====                   =======         ======
           UART1_Open_9600         FB72            HydrologySample (hydrologytask)
               calls direct
    -------------------------------------------------------------------------
<CODE> 1 (was CODE)
  Relative segment, address: FD18 - FD49 (0x32 bytes), align: 1
  Segment part 21.            Intra module refs:   UART1_Open_9600
           ENTRY                   ADDRESS         REF BY
           =====                   =======         ======
           UART1_ClearBuffer       FD18 
               calls direct
    -------------------------------------------------------------------------
<CODE> 1 (was CODE)
  Relative segment, address: DB54 - DBE7 (0x94 bytes), align: 1
  Segment part 25.
           ENTRY                   ADDRESS         REF BY
           =====                   =======         ======
           UART1_Send              DB54            RS485_SerilWrite (hydrologycommand)
               calls direct
    -------------------------------------------------------------------------
<CODE> 1 (was CODE)
  Relative segment, address: D5DA - D67B (0xa2 bytes), align: 1
  Segment part 28.
           ENTRY                   ADDRESS         REF BY
           =====                   =======         ======
           UART1_RecvLineTry       D5DA            RS485_SerilRead (hydrologycommand)
               calls direct
    -------------------------------------------------------------------------
<CODE> 2 (was CODE)
  Relative segment, address: 00010108 - 00010131 (0x2a bytes), align: 1
  Segment part 31.            Intra module refs:   UART1_RX_ISR
           ENTRY                   ADDRESS         REF BY
           =====                   =======         ======
           Judge_Watermeter        00010108        UART2_RX_ISR (uart2)
                                                   UART3_RX_ISR (uart3)
    -------------------------------------------------------------------------
ISR_CODE
  Relative segment, address: 6A22 - 6B09 (0xe8 bytes), align: 1
  Segment part 32.            Intra module refs:   UART1_RX_ISR::??INTVEC 92
           ENTRY                   ADDRESS         REF BY
           =====                   =======         ======
           UART1_RX_ISR            6A22 
               interrupt function
               calls direct
    -------------------------------------------------------------------------
INTVEC
  Common segment, address: FF80 - FFDD (0x5e bytes), align: 1
  Segment part 9. ROOT 
           ENTRY                   ADDRESS         REF BY
           =====                   =======         ======
           UART1_RX_ISR::??INTVEC 92
                                   FFDC 
    -------------------------------------------------------------------------
DATA16_C
  Relative segment, address: 63C3 - 63D4 (0x12 bytes), align: 0
  Segment part 11.            Intra module refs:   UART1_RecvLineTry
           LOCAL                   ADDRESS         
           =====                   =======         
           UART1_RecvLineTry::__FUNCTION__
                                   63C3 

    *************************************************************************

  FILE NAME : C:\Users\Administrator\Desktop\师弟代码\RTUtest_GP\Debug\Obj\uart2.r43
  PROGRAM MODULE, NAME : uart2

  SEGMENTS IN THE MODULE
  ======================
DATA16_AN
  Relative segment, address: 028A - 028B (0x2 bytes), align: 0
  Segment part 2. ROOT        Intra module refs:   UART3_Open (uart3)
           ENTRY                   ADDRESS         REF BY
           =====                   =======         ======
           _A_PESEL_L              028A 
           LOCAL                   ADDRESS         
           =====                   =======         
           PESEL                   028A 
           PESEL_H                 028B 
           PESEL_L                 028A 
    -------------------------------------------------------------------------
DATA16_AN
  Relative segment, address: 0640 - 0641 (0x2 bytes), align: 0
  Segment part 3. ROOT 
           ENTRY                   ADDRESS         REF BY
           =====                   =======         ======
           _A_UCA2CTLW0_L          0640 
           LOCAL                   ADDRESS         
           =====                   =======         
           UCA2CTLW0               0640 
           UCA2CTLW0_H             0641 
           UCA2CTLW0_L             0640 
    -------------------------------------------------------------------------
DATA16_AN
  Relative segment, address: 0646 - 0647 (0x2 bytes), align: 0
  Segment part 4. ROOT 
           ENTRY                   ADDRESS         REF BY
           =====                   =======         ======
           _A_UCA2BRW_L            0646 
           LOCAL                   ADDRESS         
           =====                   =======         
           UCA2BRW                 0646 
           UCA2BRW_H               0647 
           UCA2BRW_L               0646 
    -------------------------------------------------------------------------
DATA16_AN
  Relative segment, address: 0648 - 0648 (0x1 bytes), align: 0
  Segment part 5. ROOT 
           ENTRY                   ADDRESS         REF BY
           =====                   =======         ======
           UCA2MCTL                0648 
    -------------------------------------------------------------------------
DATA16_AN
  Relative segment, address: 064C - 064C (0x1 bytes), align: 0
  Segment part 6. ROOT        Intra module refs:   UART2_RX_ISR
           ENTRY                   ADDRESS         REF BY
           =====                   =======         ======
           UCA2RXBUF               064C 
    -------------------------------------------------------------------------
DATA16_AN
  Relative segment, address: 064E - 064E (0x1 bytes), align: 0
  Segment part 7. ROOT 
           ENTRY                   ADDRESS         REF BY
           =====                   =======         ======
           UCA2TXBUF               064E 
    -------------------------------------------------------------------------
DATA16_AN
  Relative segment, address: 065C - 065D (0x2 bytes), align: 0
  Segment part 8. ROOT 
           ENTRY                   ADDRESS         REF BY
           =====                   =======         ======
           _A_UCA2ICTL_L           065C 
           LOCAL                   ADDRESS         
           =====                   =======         
           UCA2ICTL                065C 
           UCA2ICTL_H              065D 
           UCA2ICTL_L              065C 
    -------------------------------------------------------------------------
DATA16_Z
  Relative segment, address: 23BD - 26DC (0x320 bytes), align: 0
  Segment part 13.            Intra module refs:   UART2_RX_ISR
           ENTRY                   ADDRESS         REF BY
           =====                   =======         ======
           UART2_Rx_Buffer         23BD 
    -------------------------------------------------------------------------
DATA16_Z
  Relative segment, address: 1CD2 - 1CD5 (0x4 bytes), align: 1
  Segment part 14.            Intra module refs:   UART2_RX_ISR
           ENTRY                   ADDRESS         REF BY
           =====                   =======         ======
           UART2_Rx_BufLen         1CD2 
    -------------------------------------------------------------------------
DATA16_Z
  Relative segment, address: 1CD6 - 1CD7 (0x2 bytes), align: 1
  Segment part 15.            Intra module refs:   UART2_RX_ISR
           ENTRY                   ADDRESS         REF BY
           =====                   =======         ======
           UART2_Rx_INTIndex       1CD6 
    -------------------------------------------------------------------------
DATA16_Z
  Relative segment, address: 1CD8 - 1CD9 (0x2 bytes), align: 1
  Segment part 16.            Intra module refs:   UART2_RX_ISR
           ENTRY                   ADDRESS         REF BY
           =====                   =======         ======
           UART2_Rx_INTLen         1CD8 
    -------------------------------------------------------------------------
DATA16_Z
  Relative segment, address: 1CDA - 1CDB (0x2 bytes), align: 1
  Segment part 20.            Intra module refs:   UART2_RX_ISR
           LOCAL                   ADDRESS         
           =====                   =======         
           s_uart2_type            1CDA 
    -------------------------------------------------------------------------
ISR_CODE
  Relative segment, address: 6B0A - 6BF1 (0xe8 bytes), align: 1
  Segment part 31.            Intra module refs:   UART2_RX_ISR::??INTVEC 104
           ENTRY                   ADDRESS         REF BY
           =====                   =======         ======
           UART2_RX_ISR            6B0A 
               interrupt function
               calls direct
    -------------------------------------------------------------------------
INTVEC
  Common segment, address: FF80 - FFE9 (0x6a bytes), align: 1
  Segment part 9. ROOT 
           ENTRY                   ADDRESS         REF BY
           =====                   =======         ======
           UART2_RX_ISR::??INTVEC 104
                                   FFE8 

    *************************************************************************

  FILE NAME : C:\Users\Administrator\Desktop\师弟代码\RTUtest_GP\Debug\Obj\uart3.r43
  PROGRAM MODULE, NAME : uart3

  SEGMENTS IN THE MODULE
  ======================
DATA16_AN
  Relative segment, address: 0680 - 0681 (0x2 bytes), align: 0
  Segment part 3. ROOT        Intra module refs:   UART3_Open
           ENTRY                   ADDRESS         REF BY
           =====                   =======         ======
           _A_UCA3CTLW0_L          0680 
           LOCAL                   ADDRESS         
           =====                   =======         
           UCA3CTLW0               0680 
           UCA3CTLW0_H             0681 
           UCA3CTLW0_L             0680 
    -------------------------------------------------------------------------
DATA16_AN
  Relative segment, address: 0686 - 0687 (0x2 bytes), align: 0
  Segment part 4. ROOT        Intra module refs:   UART3_Open
           ENTRY                   ADDRESS         REF BY
           =====                   =======         ======
           _A_UCA3BRW_L            0686 
           LOCAL                   ADDRESS         
           =====                   =======         
           UCA3BRW                 0686 
           UCA3BRW_H               0687 
           UCA3BRW_L               0686 
    -------------------------------------------------------------------------
DATA16_AN
  Relative segment, address: 0688 - 0688 (0x1 bytes), align: 0
  Segment part 5. ROOT        Intra module refs:   UART3_Open
           ENTRY                   ADDRESS         REF BY
           =====                   =======         ======
           UCA3MCTL                0688 
    -------------------------------------------------------------------------
DATA16_AN
  Relative segment, address: 068C - 068C (0x1 bytes), align: 0
  Segment part 6. ROOT        Intra module refs:   UART3_RX_ISR
           ENTRY                   ADDRESS         REF BY
           =====                   =======         ======
           UCA3RXBUF               068C 
    -------------------------------------------------------------------------
DATA16_AN
  Relative segment, address: 068E - 068E (0x1 bytes), align: 0
  Segment part 7. ROOT        Intra module refs:   UART3_Send
                                                   putchar
           ENTRY                   ADDRESS         REF BY
           =====                   =======         ======
           UCA3TXBUF               068E 
    -------------------------------------------------------------------------
DATA16_AN
  Relative segment, address: 069C - 069D (0x2 bytes), align: 0
  Segment part 8. ROOT        Intra module refs:   UART3_Close
                                                   UART3_Open
                                                   UART3_Send
                                                   putchar
           ENTRY                   ADDRESS         REF BY
           =====                   =======         ======
           _A_UCA3ICTL_L           069C 
           LOCAL                   ADDRESS         
           =====                   =======         
           UCA3ICTL                069C 
           UCA3ICTL_H              069D 
           UCA3ICTL_L              069C 
    -------------------------------------------------------------------------
DATA16_Z
  Relative segment, address: 1CDC - 1CDD (0x2 bytes), align: 1
  Segment part 14.            Intra module refs:   UART3_ClearBuffer
                                                   UART3_Send
           ENTRY                   ADDRESS         REF BY
           =====                   =======         ======
           UART3_Tx_Buf            1CDC 
    -------------------------------------------------------------------------
DATA16_Z
  Relative segment, address: 26DD - 29FC (0x320 bytes), align: 0
  Segment part 15.            Intra module refs:   UART3_RX_ISR
                                                   UART3_RecvLineTry
           ENTRY                   ADDRESS         REF BY
           =====                   =======         ======
           UART3_Rx_Buffer         26DD 
    -------------------------------------------------------------------------
DATA16_Z
  Relative segment, address: 1CDE - 1CE1 (0x4 bytes), align: 1
  Segment part 16.            Intra module refs:   UART3_ClearBuffer
                                                   UART3_RX_ISR
                                                   UART3_RecvLineTry
           ENTRY                   ADDRESS         REF BY
           =====                   =======         ======
           UART3_Rx_BufLen         1CDE 
    -------------------------------------------------------------------------
DATA16_Z
  Relative segment, address: 1CE2 - 1CE3 (0x2 bytes), align: 1
  Segment part 17.            Intra module refs:   UART3_ClearBuffer
                                                   UART3_RX_ISR
           ENTRY                   ADDRESS         REF BY
           =====                   =======         ======
           UART3_Rx_INTIndex       1CE2 
    -------------------------------------------------------------------------
DATA16_Z
  Relative segment, address: 1CE4 - 1CE5 (0x2 bytes), align: 1
  Segment part 18.            Intra module refs:   UART3_ClearBuffer
                                                   UART3_RX_ISR
           ENTRY                   ADDRESS         REF BY
           =====                   =======         ======
           UART3_Rx_INTLen         1CE4 
    -------------------------------------------------------------------------
DATA16_Z
  Relative segment, address: 1CE6 - 1CE7 (0x2 bytes), align: 1
  Segment part 19.            Intra module refs:   UART3_ClearBuffer
                                                   UART3_RecvLineTry
           ENTRY                   ADDRESS         REF BY
           =====                   =======         ======
           UART3_Rx_RecvIndex      1CE6 
    -------------------------------------------------------------------------
DATA16_Z
  Relative segment, address: 1CE8 - 1CE9 (0x2 bytes), align: 1
  Segment part 20.            Intra module refs:   UART3_ClearBuffer
                                                   UART3_Send
           ENTRY                   ADDRESS         REF BY
           =====                   =======         ======
           UART3_Tx_Flag           1CE8 
    -------------------------------------------------------------------------
DATA16_Z
  Relative segment, address: 1CEA - 1CEB (0x2 bytes), align: 1
  Segment part 21.            Intra module refs:   UART3_ClearBuffer
                                                   UART3_Send
           ENTRY                   ADDRESS         REF BY
           =====                   =======         ======
           UART3_Tx_Len            1CEA 
    -------------------------------------------------------------------------
DATA16_Z
  Relative segment, address: 1CEC - 1CED (0x2 bytes), align: 1
  Segment part 22.            Intra module refs:   UART3_Open
                                                   UART3_RX_ISR
           LOCAL                   ADDRESS         
           =====                   =======         
           s_uart3_type            1CEC 
    -------------------------------------------------------------------------
<CODE> 1 (was CODE)
  Relative segment, address: FB3A - FB71 (0x38 bytes), align: 1
  Segment part 24.
           ENTRY                   ADDRESS         REF BY
           =====                   =======         ======
           UART3_Open              FB3A            Console_Open (Console)
                                                   HydrologySample (hydrologytask)
               calls direct
    -------------------------------------------------------------------------
<CODE> 2 (was CODE)
  Relative segment, address: 00010838 - 00010841 (0xa bytes), align: 1
  Segment part 26.
           ENTRY                   ADDRESS         REF BY
           =====                   =======         ======
           UART3_Close             00010838        Console_Close (Console)
               calls direct
    -------------------------------------------------------------------------
<CODE> 1 (was CODE)
  Relative segment, address: FE12 - FE43 (0x32 bytes), align: 1
  Segment part 23.            Intra module refs:   UART3_Close
                                                   UART3_Open
           ENTRY                   ADDRESS         REF BY
           =====                   =======         ======
           UART3_ClearBuffer       FE12            WIFI_ClearBuffer (wifi_config)
                                                   WIFI_Write (wifi_config)
               calls direct
    -------------------------------------------------------------------------
<CODE> 1 (was CODE)
  Relative segment, address: DAC0 - DB53 (0x94 bytes), align: 1
  Segment part 27.
           ENTRY                   ADDRESS         REF BY
           =====                   =======         ======
           UART3_Send              DAC0            Console_WriteBytes (Console)
                                                   Console_WriteBytesln (Console)
                                                   Console_WriteString (Console)
                                                   Console_WriteStringln (Console)
                                                   WIFI_Write (wifi_config)
               calls direct
    -------------------------------------------------------------------------
<CODE> 1 (was CODE)
  Relative segment, address: D496 - D537 (0xa2 bytes), align: 1
  Segment part 30.
           ENTRY                   ADDRESS         REF BY
           =====                   =======         ======
           UART3_RecvLineTry       D496            Hydrology_ProcessUARTReceieve (uart_config)
                                                   WIFI_RecvLineTry (wifi_config)
               calls direct
    -------------------------------------------------------------------------
ISR_CODE
  Relative segment, address: 6BF2 - 6CD9 (0xe8 bytes), align: 1
  Segment part 34.            Intra module refs:   UART3_RX_ISR::??INTVEC 88
           ENTRY                   ADDRESS         REF BY
           =====                   =======         ======
           UART3_RX_ISR            6BF2 
               interrupt function
               calls direct
    -------------------------------------------------------------------------
<CODE> 2 (was CODE)
  Relative segment, address: 000107E8 - 000107F3 (0xc bytes), align: 1
  Segment part 33.
           ENTRY                   ADDRESS         REF BY
           =====                   =======         ======
           putchar                 000107E8        _Prout (?xprout)
    -------------------------------------------------------------------------
INTVEC
  Common segment, address: FF80 - FFD9 (0x5a bytes), align: 1
  Segment part 9. ROOT 
           ENTRY                   ADDRESS         REF BY
           =====                   =======         ======
           UART3_RX_ISR::??INTVEC 88
                                   FFD8 
    -------------------------------------------------------------------------
DATA16_C
  Relative segment, address: 63D5 - 63E6 (0x12 bytes), align: 0
  Segment part 11.            Intra module refs:   UART3_RecvLineTry
           LOCAL                   ADDRESS         
           =====                   =======         
           UART3_RecvLineTry::__FUNCTION__
                                   63D5 

    *************************************************************************

  FILE NAME : C:\Users\Administrator\Desktop\师弟代码\RTUtest_GP\Debug\Obj\uart_config.r43
  PROGRAM MODULE, NAME : uart_config

  SEGMENTS IN THE MODULE
  ======================
DATA16_Z
  Relative segment, address: 29FD - 29FD (0x1 bytes), align: 0
  Segment part 5.             Intra module refs:   Hydrology_ProcessUARTReceieve
           ENTRY                   ADDRESS         REF BY
           =====                   =======         ======
           isUARTConfig            29FD            Hydrology_SendData (message)
    -------------------------------------------------------------------------
<CODE> 1 (was CODE)
  Relative segment, address: F092 - F0E3 (0x52 bytes), align: 1
  Segment part 6.             Intra module refs:   Hydrology_InitWaitConfig
           ENTRY                   ADDRESS         REF BY
           =====                   =======         ======
           Hydrology_ProcessUARTReceieve
                                   F092            HydrologyTask (hydrologytask)
               calls direct
    -------------------------------------------------------------------------
<CODE> 1 (was CODE)
  Relative segment, address: FDE0 - FE11 (0x32 bytes), align: 1
  Segment part 7.
           ENTRY                   ADDRESS         REF BY
           =====                   =======         ======
           Hydrology_InitWaitConfig
                                   FDE0            main (main)
               calls direct
    -------------------------------------------------------------------------
DATA16_C
  Relative segment, address: 63E7 - 6404 (0x1e bytes), align: 0
  Segment part 2.             Intra module refs:   Hydrology_ProcessUARTReceieve
           LOCAL                   ADDRESS         
           =====                   =======         
           Hydrology_ProcessUARTReceieve::__FUNCTION__
                                   63E7 
    -------------------------------------------------------------------------
DATA16_C
  Relative segment, address: 6405 - 641D (0x19 bytes), align: 0
  Segment part 3.             Intra module refs:   Hydrology_InitWaitConfig
           LOCAL                   ADDRESS         
           =====                   =======         
           Hydrology_InitWaitConfig::__FUNCTION__
                                   6405 
    -------------------------------------------------------------------------
DATA16_C
  Relative segment, address: 641E - 6448 (0x2b bytes), align: 0
  Segment part 4.             Intra module refs:   Hydrology_InitWaitConfig

    *************************************************************************

  FILE NAME : C:\Users\Administrator\Desktop\师弟代码\RTUtest_GP\Debug\Obj\wifi_config.r43
  PROGRAM MODULE, NAME : wifi_config

  SEGMENTS IN THE MODULE
  ======================
DATA16_Z
  Relative segment, address: 1CEE - 1CEF (0x2 bytes), align: 1
  Segment part 69.            Intra module refs:   WIFI_Close
                                                   WIFI_Open
           ENTRY                   ADDRESS         REF BY
           =====                   =======         ======
           WIFI_Inited_Flag        1CEE            Console_WriteBytes (Console)
                                                   Console_WriteBytesln (Console)
                                                   Console_WriteString (Console)
                                                   Console_WriteStringln (Console)
    -------------------------------------------------------------------------
DATA16_Z
  Relative segment, address: 1CF0 - 1CF1 (0x2 bytes), align: 1
  Segment part 70.
           ENTRY                   ADDRESS         REF BY
           =====                   =======         ======
           g_wifi_connetflag       1CF0            Console_WriteBytes (Console)
                                                   Console_WriteBytesln (Console)
                                                   Console_WriteString (Console)
                                                   Console_WriteStringln (Console)
    -------------------------------------------------------------------------
DATA16_Z
  Relative segment, address: 1CF2 - 1CF3 (0x2 bytes), align: 1
  Segment part 71.            Intra module refs:   //WIFI_SendData
           ENTRY                   ADDRESS         REF BY
           =====                   =======         ======
           g_wifi_index            1CF2 
    -------------------------------------------------------------------------
DATA16_I
  Relative segment, address: 1C15 - 1C1E (0xa bytes), align: 0
  Segment part 72.            Intra module refs:   WIFI_InitCmd
           ENTRY                   ADDRESS         REF BY
           =====                   =======         ======
           g_ssidname              1C15 
    -------------------------------------------------------------------------
DATA16_I
  Relative segment, address: 1C1F - 1C28 (0xa bytes), align: 0
  Segment part 74.            Intra module refs:   WIFI_InitCmd
           ENTRY                   ADDRESS         REF BY
           =====                   =======         ======
           g_wifipwd               1C1F 
    -------------------------------------------------------------------------
<CODE> 2 (was CODE)
  Relative segment, address: 000104F6 - 0001050F (0x1a bytes), align: 1
  Segment part 80.            Intra module refs:   WIFI_InitCmd
                                                   //WIFI_SendData
                                                   WIFI_Server_Start
           ENTRY                   ADDRESS         REF BY
           =====                   =======         ======
           WIFI_Write              000104F6 
               calls direct
    -------------------------------------------------------------------------
<CODE> 1 (was CODE)
  Relative segment, address: E15C - E1DF (0x84 bytes), align: 1
  Segment part 81.            Intra module refs:   WIFI_Open
           ENTRY                   ADDRESS         REF BY
           =====                   =======         ======
           WIFI_InitCmd            E15C 
               calls direct
    -------------------------------------------------------------------------
<CODE> 1 (was CODE)
  Relative segment, address: F040 - F091 (0x52 bytes), align: 1
  Segment part 82.            Intra module refs:   WIFI_Open
           ENTRY                   ADDRESS         REF BY
           =====                   =======         ======
           WIFI_Server_Start       F040 
               calls direct
    -------------------------------------------------------------------------
<CODE> 1 (was CODE)
  Relative segment, address: E1E0 - E263 (0x84 bytes), align: 1
  Segment part 84.            Intra module refs:   //WIFI_SendData
           ENTRY                   ADDRESS         REF BY
           =====                   =======         ======
           WIFI_WaitSendResult     E1E0 
               calls direct
    -------------------------------------------------------------------------
<CODE> 1 (was CODE)
  Relative segment, address: E45E - E4D7 (0x7a bytes), align: 1
  Segment part 86.
           ENTRY                   ADDRESS         REF BY
           =====                   =======         ======
           WIFI_Open               E45E            Select_Debug_Mode (common)
               calls direct
    -------------------------------------------------------------------------
<CODE> 1 (was CODE)
  Relative segment, address: D1EE - D29B (0xae bytes), align: 1
  Segment part 87.
           ENTRY                   ADDRESS         REF BY
           =====                   =======         ======
           //WIFI_SendData           D1EE            Console_WriteBytes (Console)
                                                   Console_WriteBytesln (Console)
                                                   Console_WriteString (Console)
                                                   Console_WriteStringln (Console)
               calls direct
    -------------------------------------------------------------------------
<CODE> 2 (was CODE)
  Relative segment, address: 0001077A - 00010787 (0xe bytes), align: 1
  Segment part 91.
           ENTRY                   ADDRESS         REF BY
           =====                   =======         ======
           WIFI_Close              0001077A        Select_Debug_Mode (common)
    -------------------------------------------------------------------------
<CODE> 2 (was CODE)
  Relative segment, address: 000108A4 - 000108A7 (0x4 bytes), align: 1
  Segment part 85.            Intra module refs:   WIFI_Open
                                                   //WIFI_SendData
           ENTRY                   ADDRESS         REF BY
           =====                   =======         ======
           WIFI_ClearBuffer        000108A4 
               calls direct
    -------------------------------------------------------------------------
<CODE> 2 (was CODE)
  Relative segment, address: 0001089C - 0001089F (0x4 bytes), align: 1
  Segment part 96.            Intra module refs:   WIFI_WaitSendResult
           ENTRY                   ADDRESS         REF BY
           =====                   =======         ======
           WIFI_RecvLineTry        0001089C 
               calls direct
    -------------------------------------------------------------------------
DATA16_ID
  Relative segment, address: 651D - 6526 (0xa bytes), align: 0
  Segment part 73.            Intra module refs:   g_ssidname
    -------------------------------------------------------------------------
DATA16_ID
  Relative segment, address: 6527 - 6530 (0xa bytes), align: 0
  Segment part 75.            Intra module refs:   g_wifipwd
    -------------------------------------------------------------------------
DATA16_C
  Relative segment, address: 6449 - 6454 (0xc bytes), align: 0
  Segment part 6.             Intra module refs:   WIFI_InitCmd
    -------------------------------------------------------------------------
DATA16_C
  Relative segment, address: 6455 - 646B (0x17 bytes), align: 0
  Segment part 7.             Intra module refs:   WIFI_InitCmd
    -------------------------------------------------------------------------
DATA16_C
  Relative segment, address: 646C - 6472 (0x7 bytes), align: 0
  Segment part 8.             Intra module refs:   WIFI_InitCmd
    -------------------------------------------------------------------------
DATA16_C
  Relative segment, address: 6473 - 6477 (0x5 bytes), align: 0
  Segment part 9.             Intra module refs:   WIFI_Server_Start
    -------------------------------------------------------------------------
DATA16_C
  Relative segment, address: 6478 - 6483 (0xc bytes), align: 0
  Segment part 10.            Intra module refs:   WIFI_Server_Start
    -------------------------------------------------------------------------
DATA16_C
  Relative segment, address: 6484 - 6497 (0x14 bytes), align: 0
  Segment part 11.            Intra module refs:   WIFI_Server_Start
    -------------------------------------------------------------------------
DATA16_C
  Relative segment, address: 6498 - 649A (0x3 bytes), align: 0
  Segment part 21.            Intra module refs:   WIFI_WaitSendResult
    -------------------------------------------------------------------------
DATA16_C
  Relative segment, address: 649B - 64A0 (0x6 bytes), align: 0
  Segment part 22.            Intra module refs:   WIFI_WaitSendResult
    -------------------------------------------------------------------------
DATA16_C
  Relative segment, address: 64A1 - 64AA (0xa bytes), align: 0
  Segment part 23.            Intra module refs:   WIFI_Open
           LOCAL                   ADDRESS         
           =====                   =======         
           WIFI_Open::__FUNCTION__
                                   64A1 
    -------------------------------------------------------------------------
DATA16_C
  Relative segment, address: 64AB - 64B5 (0xb bytes), align: 0
  Segment part 24.            Intra module refs:   WIFI_Open
    -------------------------------------------------------------------------
DATA16_C
  Relative segment, address: 64B6 - 64C9 (0x14 bytes), align: 0
  Segment part 25.            Intra module refs:   WIFI_Open
    -------------------------------------------------------------------------
DATA16_C
  Relative segment, address: 64CA - 64DD (0x14 bytes), align: 0
  Segment part 26.            Intra module refs:   WIFI_Open
    -------------------------------------------------------------------------
DATA16_C
  Relative segment, address: 64DE - 64EE (0x11 bytes), align: 0
  Segment part 28.            Intra module refs:   //WIFI_SendData

    *************************************************************************

  FILE NAME : D:\Program Files (x86)\IAR Systems\Embedded Workbench 8.0\430\lib\dlib\dl430xlsfn.r43
  LIBRARY MODULE, NAME : ?__dbg_break

  SEGMENTS IN THE MODULE
  ======================
<CODE> 2 (was CODE)
  Relative segment, address: 000108C4 - 000108C5 (0x2 bytes), align: 1
  Segment part 2.
           ENTRY                   ADDRESS         REF BY
           =====                   =======         ======
           __DebugBreak            000108C4        __exit (?__exit)

    -------------------------------------------------------------------------
  LIBRARY MODULE, NAME : ?__exit

  SEGMENTS IN THE MODULE
  ======================
<CODE> 2 (was CODE)
  Relative segment, address: 0001061A - 0001062D (0x14 bytes), align: 1
  Segment part 2.
           ENTRY                   ADDRESS         REF BY
           =====                   =======         ======
           __exit                  0001061A        Segment part 6 (?_exit)
                                                   _exit (?_exit)
               calls direct

    -------------------------------------------------------------------------
  LIBRARY MODULE, NAME : ?_exit

  SEGMENTS IN THE MODULE
  ======================
<CODE> 2 (was CODE)
  Relative segment, address: 000108AC, align: 1
  Segment part 0.
           ENTRY                   ADDRESS         REF BY
           =====                   =======         ======
           _exit                   000108AC        exit (?exit)
    -------------------------------------------------------------------------
<CODE> 2 (was CODE)
  Relative segment, address: 000108AC - 000108AF (0x4 bytes), align: 1
  Segment part 6.             Intra module refs:   _exit

    -------------------------------------------------------------------------
  LIBRARY MODULE, NAME : ?cstart

  SEGMENTS IN THE MODULE
  ======================
CSTACK
  Relative segment, address: 5400, align: 1
  Segment part 1.
    -------------------------------------------------------------------------
DATA16_Z
  Relative segment, address: 1CF4, align: 1
  Segment part 2.
    -------------------------------------------------------------------------
DATA16_I
  Relative segment, address: 1C08, align: 1
  Segment part 3.
    -------------------------------------------------------------------------
DATA16_ID
  Relative segment, address: 6510, align: 1
  Segment part 4.
    -------------------------------------------------------------------------
CODE_I
  Relative segment, address: 33C2, align: 1
  Segment part 5.
    -------------------------------------------------------------------------
CODE_ID
  Relative segment, address: 000108C8, align: 1
  Segment part 6.
    -------------------------------------------------------------------------
DATA20_Z
  Relative segment, address: 33C2, align: 1
  Segment part 7.
    -------------------------------------------------------------------------
DATA20_I
  Relative segment, address: 33C2, align: 1
  Segment part 8.
    -------------------------------------------------------------------------
DATA20_ID
  Relative segment, address: 000108C8, align: 1
  Segment part 9.
    -------------------------------------------------------------------------
DATA20_C
  Relative segment, address: 000108C8, align: 1
  Segment part 10.
    -------------------------------------------------------------------------
DATA20_N
  Relative segment, address: 33C2, align: 1
  Segment part 12.
    -------------------------------------------------------------------------
CSTART
  Relative segment, address: 6532 - 6535 (0x4 bytes), align: 1
  Segment part 15.
           ENTRY                   ADDRESS         REF BY
           =====                   =======         ======
           __program_start         6532            ?reset_vector (?reset_vector)
                                                   Absolute parts (?ABS_ENTRY_MOD)
           ?cstart_begin           6532 
    -------------------------------------------------------------------------
CSTART
  Relative segment, address: 6536 - 6541 (0xc bytes), align: 1
  Segment part 20.
           ENTRY                   ADDRESS         REF BY
           =====                   =======         ======
           ?cstart_init_zero       6536            A (adc)
                                                   ADCElementCount (message)
                                                   DataPacketLen (message)
                                                   Element_table (message)
                                                   Extend_Flag (message)
                                                   HydrologyInstantWaterLevel::endtime (hydrologytask)
                                                   HydrologySample::sampletime (hydrologytask)
                                                   HydrologySaveData::storetime (hydrologytask)
                                                   Hydrology_ReadRS485::rs485_count (hydrologycommand)
                                                   IO_STATUSElementCount (message)
                                                   ISR_COUNTElementCount (message)
                                                   ISR_Count_Temp (Sampler)
                                                   IsDebug (main)
                                                   IsGetInput (uart0)
                                                   IsQuery (hydrologycommand)
                                                   Opened (Console)
                                                   PORT1_ISR::a (Sampler)
                                                   PacketSendTimes (message)
                                                   RS485ElementCount (message)
                                                   RS485RegisterCount (hydrologycommand)
                                                   RomElementBeginAddr (message)
                                                   Segment part 2 (?xgetmemchunk)
                                                   SinglePacketSendCount (message)
                                                   SinglePacketSize (message)
                                                   UART0_Rx_BufLen (uart0)
                                                   UART0_Rx_Buffer (uart0)
                                                   UART0_Rx_INTIndex (uart0)
                                                   UART0_Rx_INTLen (uart0)
                                                   UART0_Rx_RecvIndex (uart0)
                                                   UART0_Tx_Buf (uart0)
                                                   UART0_Tx_Flag (uart0)
                                                   UART0_Tx_Len (uart0)
                                                   UART1_Rx_BufLen (uart1)
                                                   UART1_Rx_Buffer (uart1)
                                                   UART1_Rx_INTIndex (uart1)
                                                   UART1_Rx_INTLen (uart1)
                                                   UART1_Rx_RecvIndex (uart1)
                                                   UART1_Tx_Buf (uart1)
                                                   UART1_Tx_Flag (uart1)
                                                   UART1_Tx_Len (uart1)
                                                   UART2_Rx_BufLen (uart2)
                                                   UART2_Rx_Buffer (uart2)
                                                   UART2_Rx_INTIndex (uart2)
                                                   UART2_Rx_INTLen (uart2)
                                                   UART3_Rx_BufLen (uart3)
                                                   UART3_Rx_Buffer (uart3)
                                                   UART3_Rx_INTIndex (uart3)
                                                   UART3_Rx_INTLen (uart3)
                                                   UART3_Rx_RecvIndex (uart3)
                                                   UART3_Tx_Buf (uart3)
                                                   UART3_Tx_Flag (uart3)
                                                   UART3_Tx_Len (uart3)
                                                   UserElementCount (message)
                                                   WIFI_Inited_Flag (wifi_config)
                                                   __data16_Aldata (?xxmemxmalloc)
                                                   _int (common)
                                                   g_HydrologyDownHeader (message)
                                                   g_HydrologyMsg (message)
                                                   g_HydrologyUpHeader (message)
                                                   g_pulse_range (Sampler)
                                                   g_pulse_rate (Sampler)
                                                   g_rtc_nowTime (rtc)
                                                   g_wifi_connetflag (wifi_config)
                                                   g_wifi_index (wifi_config)
                                                   getstreamid::id (message)
                                                   inputPara (message)
                                                   isUARTConfig (uart_config)
                                                   s_ClockTicks (timer)
                                                   s_MsgArray (GSM)
                                                   s_MsgLeft (GSM)
                                                   s_MsgNum (GSM)
                                                   s_ProcIdx (GSM)
                                                   s_RING (GSM)
                                                   s_RTC_lastTime (rtc)
                                                   s_RecvIdx (GSM)
                                                   s_TimeOut (GSM)
                                                   s_clock (common)
                                                   s_reset_count (timer)
                                                   s_reset_pin (common)
                                                   s_uart0_type (uart0)
                                                   s_uart1_type (uart1)
                                                   s_uart2_type (uart2)
                                                   s_uart3_type (uart3)
                                                   time_10min (hydrologytask)
                                                   time_5min (hydrologytask)
                                                   trace_open (common)
                                                   value (hydrologytask)
    -------------------------------------------------------------------------
CSTART
  Relative segment, address: 6542 - 6551 (0x10 bytes), align: 1
  Segment part 21.
           ENTRY                   ADDRESS         REF BY
           =====                   =======         ======
           ?cstart_init_copy       6542            HYDROLOGY_MODE (message)
                                                   g_ssidname (wifi_config)
                                                   g_wifipwd (wifi_config)
                                                   gprsConfigSuccess (GTM900C)
                                                   s_EndIdx (store)
                                                   s_RTC_PulseBytes (rtc)
                                                   s_StartIdx (store)
                                                   time_1min (hydrologytask)
    -------------------------------------------------------------------------
CSTART
  Relative segment, address: 6552 - 6559 (0x8 bytes), align: 1
  Segment part 27.            Intra module refs:   Segment part 15
           ENTRY                   ADDRESS         REF BY
           =====                   =======         ======
           ?cstart_call_main       6552 
           ?cstart_end             655A 
    -------------------------------------------------------------------------
CODE_ID
  Relative segment, address: 000108C8, align: 1
  Segment part 28.            Intra module refs:   Segment part 5

    -------------------------------------------------------------------------
  LIBRARY MODULE, NAME : ?reset_vector

  SEGMENTS IN THE MODULE
  ======================
RESET
  Relative segment, address: FFFE - FFFF (0x2 bytes), align: 1
  Segment part 0.
           ENTRY                   ADDRESS         REF BY
           =====                   =======         ======
           ?reset_vector           FFFE            Segment part 15 (?cstart)

    -------------------------------------------------------------------------
  LIBRARY MODULE, NAME : ?div64i

  SEGMENTS IN THE MODULE
  ======================
<CODE> 1 (was CODE)
  Relative segment, address: D538 - D5D9 (0xa2 bytes), align: 1
  Segment part 2.
           ENTRY                   ADDRESS         REF BY
           =====                   =======         ======
           _Div64u                 D538            _LitobFullNoMb (?xprintffull_nomb)
    -------------------------------------------------------------------------
<CODE> 2 (was CODE)
  Relative segment, address: 00010510 - 00010529 (0x1a bytes), align: 1
  Segment part 4.             Intra module refs:   _Div64u

    -------------------------------------------------------------------------
  LIBRARY MODULE, NAME : ?div

  SEGMENTS IN THE MODULE
  ======================
<CODE> 1 (was CODE)
  Relative segment, address: FF6A - FF7F (0x16 bytes), align: 1
  Segment part 0.
           ENTRY                   ADDRESS         REF BY
           =====                   =======         ======
           div                     FF6A            _GenldFullNoMb (?xprintffull_nomb)

    -------------------------------------------------------------------------
  LIBRARY MODULE, NAME : ?exit

  SEGMENTS IN THE MODULE
  ======================
<CODE> 2 (was CODE)
  Relative segment, address: 000108BC - 000108BF (0x4 bytes), align: 1
  Segment part 2.
           ENTRY                   ADDRESS         REF BY
           =====                   =======         ======
           exit                    000108BC        Segment part 27 (?cstart)
               calls direct

    -------------------------------------------------------------------------
  LIBRARY MODULE, NAME : ?Mul32fHw32

  SEGMENTS IN THE MODULE
  ======================
<CODE> 1 (was CODE)
  Relative segment, address: BFF8 - C10D (0x116 bytes), align: 1
  Segment part 0.
           ENTRY                   ADDRESS         REF BY
           =====                   =======         ======
           ?Mul32fHw32             BFF8            ConvertAnalog (hydrologytask)
                                                   _LdtobFullNoMb (?xprintffull_nomb)
                                                   scale (?xprintffull_nomb)

    -------------------------------------------------------------------------
  LIBRARY MODULE, NAME : ?Cast32f32i

  SEGMENTS IN THE MODULE
  ======================
<CODE> 1 (was CODE)
  Relative segment, address: DBE8 - DBFB (0x14 bytes), align: 1
  Segment part 0.
           ENTRY                   ADDRESS         REF BY
           =====                   =======         ======
           _Cast32sto32f           DBE8            ConvertAnalog (hydrologytask)
                                                   HydrologySaveData (hydrologytask)
                                                   Hydrology_CalElementInfo (message)
                                                   _LdtobFullNoMb (?xprintffull_nomb)
    -------------------------------------------------------------------------
<CODE> 1 (was CODE)
  Relative segment, address: DBFC - DC79 (0x7e bytes), align: 1
  Segment part 1.             Intra module refs:   _Cast32sto32f
           ENTRY                   ADDRESS         REF BY
           =====                   =======         ======
           _Cast32uto32f           DBFC            _LdtobFullNoMb (?xprintffull_nomb)

    -------------------------------------------------------------------------
  LIBRARY MODULE, NAME : _Cast32fto32u

  SEGMENTS IN THE MODULE
  ======================
<CODE> 2 (was CODE)
  Relative segment, address: 0001080C - 00010817 (0xc bytes), align: 1
  Segment part 0.
           ENTRY                   ADDRESS         REF BY
           =====                   =======         ======
           _Cast32fto32u           0001080C        _LdtobFullNoMb (?xprintffull_nomb)

    -------------------------------------------------------------------------
  LIBRARY MODULE, NAME : _Cast32fto32s

  SEGMENTS IN THE MODULE
  ======================
<CODE> 1 (was CODE)
  Relative segment, address: FC82 - FCB3 (0x32 bytes), align: 1
  Segment part 0.
           ENTRY                   ADDRESS         REF BY
           =====                   =======         ======
           _Cast32fto32s           FC82            _LdtobFullNoMb (?xprintffull_nomb)
                                                   getBCDnums (message)

    -------------------------------------------------------------------------
  LIBRARY MODULE, NAME : ?FLT_Extract

  SEGMENTS IN THE MODULE
  ======================
<CODE> 1 (was CODE)
  Relative segment, address: F270 - F2BB (0x4c bytes), align: 1
  Segment part 0.
           ENTRY                   ADDRESS         REF BY
           =====                   =======         ======
           ?FLT_Extract            F270            _Cast32fto32s (_Cast32fto32s)
                                                   _Cast32fto32u (_Cast32fto32u)

    -------------------------------------------------------------------------
  LIBRARY MODULE, NAME : ?FLT_GE

  SEGMENTS IN THE MODULE
  ======================
<CODE> 1 (was CODE)
  Relative segment, address: EE40 - EE95 (0x56 bytes), align: 1
  Segment part 0.
           ENTRY                   ADDRESS         REF BY
           =====                   =======         ======
           ?FLT_GE                 EE40            _LdtobFullNoMb (?xprintffull_nomb)

    -------------------------------------------------------------------------
  LIBRARY MODULE, NAME : ?FLT_LT

  SEGMENTS IN THE MODULE
  ======================
<CODE> 1 (was CODE)
  Relative segment, address: F0E4 - F135 (0x52 bytes), align: 1
  Segment part 0.
           ENTRY                   ADDRESS         REF BY
           =====                   =======         ======
           ?FLT_LT                 F0E4            Segment part 19 (?xprintffull_nomb)

    -------------------------------------------------------------------------
  LIBRARY MODULE, NAME : _Div32f

  SEGMENTS IN THE MODULE
  ======================
<CODE> 1 (was CODE)
  Relative segment, address: B4B2 - B5E1 (0x130 bytes), align: 1
  Segment part 0.
           ENTRY                   ADDRESS         REF BY
           =====                   =======         ======
           _Div32f                 B4B2            ConvertAnalog (hydrologytask)
                                                   _LdtobFullNoMb (?xprintffull_nomb)

    -------------------------------------------------------------------------
  LIBRARY MODULE, NAME : _Add32f

  SEGMENTS IN THE MODULE
  ======================
<CODE> 1 (was CODE)
  Relative segment, address: AD1E - AD21 (0x4 bytes), align: 1
  Segment part 0.
           ENTRY                   ADDRESS         REF BY
           =====                   =======         ======
           _Sub32f                 AD1E            _LdtobFullNoMb (?xprintffull_nomb)
    -------------------------------------------------------------------------
<CODE> 1 (was CODE)
  Relative segment, address: AD22 - AE81 (0x160 bytes), align: 1
  Segment part 1.             Intra module refs:   _Sub32f
           ENTRY                   ADDRESS         REF BY
           =====                   =======         ======
           _Add32f                 AD22            ConvertAnalog (hydrologytask)

    -------------------------------------------------------------------------
  LIBRARY MODULE, NAME : ?DivMod816u

  SEGMENTS IN THE MODULE
  ======================
<CODE> 2 (was CODE)
  Relative segment, address: 000104DA - 000104DD (0x4 bytes), align: 1
  Segment part 0.
           ENTRY                   ADDRESS         REF BY
           =====                   =======         ======
           ?DivMod8u               000104DA        HydrologySaveData (hydrologytask)
                                                   _DECtoBCD (rtc)
                                                   getguideid (message)
                                                   mallocElement (message)
    -------------------------------------------------------------------------
<CODE> 2 (was CODE)
  Relative segment, address: 000104DE - 000104F5 (0x18 bytes), align: 1
  Segment part 1.             Intra module refs:   ?DivMod8u
           ENTRY                   ADDRESS         REF BY
           =====                   =======         ======
           ?DivMod16u              000104DE        ?DivMod16s (?DivMod816s)
                                                   Utility_UintToStr4 (common)

    -------------------------------------------------------------------------
  LIBRARY MODULE, NAME : ?DivMod816s

  SEGMENTS IN THE MODULE
  ======================
<CODE> 1 (was CODE)
  Relative segment, address: FF3A - FF69 (0x30 bytes), align: 1
  Segment part 1.
           ENTRY                   ADDRESS         REF BY
           =====                   =======         ======
           ?DivMod16s              FF3A            HydrologySample (hydrologytask)
                                                   RS485_Send (hydrologycommand)
                                                   Utility_Is_A_ReportTime (common)
                                                   _DECtoBCD (rtc)
                                                   div (?div)
                                                   getEvenNum (message)
                                                   hydrologyGate (hydrologycommand)
                                                   mallocElement (message)

    -------------------------------------------------------------------------
  LIBRARY MODULE, NAME : ?DivMod32u

  SEGMENTS IN THE MODULE
  ======================
<CODE> 1 (was CODE)
  Relative segment, address: FF0A - FF39 (0x30 bytes), align: 1
  Segment part 0.
           ENTRY                   ADDRESS         REF BY
           =====                   =======         ======
           ?DivMod32u              FF0A            ?DivMod32s (?DivMod32s)
                                                   _LdtobFullNoMb (?xprintffull_nomb)

    -------------------------------------------------------------------------
  LIBRARY MODULE, NAME : ?DivMod32s

  SEGMENTS IN THE MODULE
  ======================
<CODE> 1 (was CODE)
  Relative segment, address: F6C8 - F707 (0x40 bytes), align: 1
  Segment part 0.
           ENTRY                   ADDRESS         REF BY
           =====                   =======         ======
           ?DivMod32s              F6C8            ROM_ReadByte (rom)
                                                   ROM_ReadBytes (rom)
                                                   ROM_WriteByte (rom)
                                                   ROM_WriteBytes (rom)
                                                   _LdtobFullNoMb (?xprintffull_nomb)
                                                   _ROM_WriteBytes (rom)
                                                   getstreamid (message)

    -------------------------------------------------------------------------
  LIBRARY MODULE, NAME : ?ShiftRight32s

  SEGMENTS IN THE MODULE
  ======================
<CODE> 2 (was CODE)
  Relative segment, address: 00010652 - 00010655 (0x4 bytes), align: 1
  Segment part 4.
           ENTRY                   ADDRESS         REF BY
           =====                   =======         ======
           ?ShiftRight32s_4        00010652        _LdtobFullNoMb (?xprintffull_nomb)
    -------------------------------------------------------------------------
<CODE> 2 (was CODE)
  Relative segment, address: 00010656 - 00010659 (0x4 bytes), align: 1
  Segment part 5.             Intra module refs:   ?ShiftRight32s_4
           ENTRY                   ADDRESS         REF BY
           =====                   =======         ======
           ?ShiftRight32s_3        00010656 
    -------------------------------------------------------------------------
<CODE> 2 (was CODE)
  Relative segment, address: 0001065A - 00010663 (0xa bytes), align: 1
  Segment part 6.             Intra module refs:   ?ShiftRight32s_3
           ENTRY                   ADDRESS         REF BY
           =====                   =======         ======
           ?ShiftRight32s_2        0001065A 

    -------------------------------------------------------------------------
  LIBRARY MODULE, NAME : ?memchr

  SEGMENTS IN THE MODULE
  ======================
<CODE> 2 (was CODE)
  Relative segment, address: 00010606 - 00010619 (0x14 bytes), align: 1
  Segment part 2.
           ENTRY                   ADDRESS         REF BY
           =====                   =======         ======
           __iar_Memchr            00010606        _PrintfFullNoMb (?xprintffull_nomb)

    -------------------------------------------------------------------------
  LIBRARY MODULE, NAME : ?memcpy

  SEGMENTS IN THE MODULE
  ======================
<CODE> 2 (was CODE)
  Relative segment, address: 00010676 - 00010687 (0x12 bytes), align: 1
  Segment part 2.
           ENTRY                   ADDRESS         REF BY
           =====                   =======         ======
           memcpy                  00010676        ADC_Element (hydrologytask)
                                                   HydrologySample (hydrologytask)
                                                   HydrologySaveData (hydrologytask)
                                                   Hydrology_CalElementInfo (message)
                                                   Hydrology_Reset (hydrologycommand)
                                                   RS485_Read (hydrologycommand)
                                                   RS485_ValueDefine (hydrologycommand)
                                                   Segment part 12 (?xprintffull_nomb)
                                                   _GenldFullNoMb (?xprintffull_nomb)
                                                   _LdtobFullNoMb (?xprintffull_nomb)
                                                   __data16_memcpy (?memzero)
                                                   converToHexElement (message)
                                                   hydrologyMakeDownBody (message)
                                                   hydrologyMakeDownHeader (message)
                                                   hydrologyMakeUpBody (message)
                                                   hydrologyMakeUpBodyBasicInfo (message)
                                                   hydrologyMakeUpTail (message)
                                                   hydrologySetPara (hydrologycommand)

    -------------------------------------------------------------------------
  LIBRARY MODULE, NAME : ?CopyMemoryBytes

  SEGMENTS IN THE MODULE
  ======================
<CODE> 2 (was CODE)
  Relative segment, address: 000106DA - 000106E9 (0x10 bytes), align: 1
  Segment part 0.
           ENTRY                   ADDRESS         REF BY
           =====                   =======         ======
           ?CopyMemoryBytes        000106DA        GSM_AT_CloseFeedback (GSM)
                                                   GSM_AT_ShutDown (GSM)

    -------------------------------------------------------------------------
  LIBRARY MODULE, NAME : ?CopyMemoryWords

  SEGMENTS IN THE MODULE
  ======================
<CODE> 2 (was CODE)
  Relative segment, address: 000106CA - 000106D9 (0x10 bytes), align: 1
  Segment part 0.
           ENTRY                   ADDRESS         REF BY
           =====                   =======         ======
           ?CopyMemoryWords        000106CA        ADC_Element (hydrologytask)
                                                   hex_2_ascii (common)

    -------------------------------------------------------------------------
  LIBRARY MODULE, NAME : ?ClearMemoryWords

  SEGMENTS IN THE MODULE
  ======================
<CODE> 2 (was CODE)
  Relative segment, address: 000106BA - 000106C9 (0x10 bytes), align: 1
  Segment part 0.
           ENTRY                   ADDRESS         REF BY
           =====                   =======         ======
           ?ClearMemoryWords       000106BA        HydrologyInstantWaterLevel (hydrologytask)
                                                   HydrologySaveData (hydrologytask)
                                                   WIFI_InitCmd (wifi_config)
                                                   WIFI_WaitSendResult (wifi_config)

    -------------------------------------------------------------------------
  LIBRARY MODULE, NAME : ?memset

  SEGMENTS IN THE MODULE
  ======================
<CODE> 2 (was CODE)
  Relative segment, address: 00010664 - 00010675 (0x12 bytes), align: 1
  Segment part 2.
           ENTRY                   ADDRESS         REF BY
           =====                   =======         ======
           memset                  00010664        Console_WriteHexCharln (Console)
                                                   HydrologySample (hydrologytask)
                                                   Hydrology_ProcessUARTReceieve (uart_config)
                                                   WIFI_InitCmd (wifi_config)
                                                   WIFI_WaitSendResult (wifi_config)
                                                   hydrologyInitReceieve (message)
                                                   hydrologyInitSend (message)
                                                   hydrologyProcessSend (message)
                                                   mallocElement (message)

    -------------------------------------------------------------------------
  LIBRARY MODULE, NAME : ?memzero

  SEGMENTS IN THE MODULE
  ======================
<CODE> 2 (was CODE)
  Relative segment, address: 000106AA - 000106B9 (0x10 bytes), align: 1
  Segment part 2.
           ENTRY                   ADDRESS         REF BY
           =====                   =======         ======
           __data16_memzero        000106AA        ?cstart_init_zero (?cstart)
    -------------------------------------------------------------------------
<CODE> 2 (was CODE)
  Relative segment, address: 000108B4 - 000108B7 (0x4 bytes), align: 1
  Segment part 3.
           ENTRY                   ADDRESS         REF BY
           =====                   =======         ======
           __data16_memcpy         000108B4        ?cstart_init_copy (?cstart)
               calls direct

    -------------------------------------------------------------------------
  LIBRARY MODULE, NAME : ?Mul8Hw

  SEGMENTS IN THE MODULE
  ======================
<CODE> 2 (was CODE)
  Relative segment, address: 00010356 - 00010359 (0x4 bytes), align: 1
  Segment part 0.
           ENTRY                   ADDRESS         REF BY
           =====                   =======         ======
           ?Mul8Hw                 00010356        _LitobFullNoMb (?xprintffull_nomb)
    -------------------------------------------------------------------------
<CODE> 2 (was CODE)
  Relative segment, address: 0001035A - 00010375 (0x1c bytes), align: 1
  Segment part 1.             Intra module refs:   ?Mul8Hw
           ENTRY                   ADDRESS         REF BY
           =====                   =======         ======
           ?Mul16Hw                0001035A 
           ?Mul16to32uHw           0001035A 

    -------------------------------------------------------------------------
  LIBRARY MODULE, NAME : ?Mul16to32sHw

  SEGMENTS IN THE MODULE
  ======================
<CODE> 2 (was CODE)
  Relative segment, address: 000104A2 - 000104BD (0x1c bytes), align: 1
  Segment part 0.
           ENTRY                   ADDRESS         REF BY
           =====                   =======         ======
           ?Mul16to32sHw           000104A2        _LdtobFullNoMb (?xprintffull_nomb)

    -------------------------------------------------------------------------
  LIBRARY MODULE, NAME : ?printf

  SEGMENTS IN THE MODULE
  ======================
<CODE> 2 (was CODE)
  Relative segment, address: 000101F6 - 0001021B (0x26 bytes), align: 1
  Segment part 2.
           ENTRY                   ADDRESS         REF BY
           =====                   =======         ======
           printf                  000101F6        ROM_WriteBytes (rom)
                                                   Sampler_Init (Sampler)
               calls direct

    -------------------------------------------------------------------------
  LIBRARY MODULE, NAME : ?IndCallR11

  SEGMENTS IN THE MODULE
  ======================
<CODE> 2 (was CODE)
  Relative segment, address: 000108A0 - 000108A3 (0x4 bytes), align: 1
  Segment part 0.
           ENTRY                   ADDRESS         REF BY
           =====                   =======         ======
           ?IndCallR11             000108A0        _PutcharFullNoMb (?xprintffull_nomb)

    -------------------------------------------------------------------------
  LIBRARY MODULE, NAME : ?sprintf

  SEGMENTS IN THE MODULE
  ======================
<CODE> 1 (was CODE)
  Relative segment, address: F46A - F4AF (0x46 bytes), align: 1
  Segment part 2.
           ENTRY                   ADDRESS         REF BY
           =====                   =======         ======
           sprintf                 F46A            WIFI_InitCmd (wifi_config)
                                                   //WIFI_SendData (wifi_config)
                                                   getBCDnums (message)
               calls direct

    -------------------------------------------------------------------------
  LIBRARY MODULE, NAME : ?strchr

  SEGMENTS IN THE MODULE
  ======================
<CODE> 2 (was CODE)
  Relative segment, address: 00010742 - 0001074F (0xe bytes), align: 1
  Segment part 2.
           ENTRY                   ADDRESS         REF BY
           =====                   =======         ======
           __iar_Strchr            00010742        _PrintfFullNoMb (?xprintffull_nomb)

    -------------------------------------------------------------------------
  LIBRARY MODULE, NAME : ?strlen

  SEGMENTS IN THE MODULE
  ======================
<CODE> 2 (was CODE)
  Relative segment, address: 00010640 - 00010651 (0x12 bytes), align: 1
  Segment part 2.
           ENTRY                   ADDRESS         REF BY
           =====                   =======         ======
           strlen                  00010640        _PrintfFullNoMb (?xprintffull_nomb)

    -------------------------------------------------------------------------
  LIBRARY MODULE, NAME : ?xdscale

  SEGMENTS IN THE MODULE
  ======================
<CODE> 1 (was CODE)
  Relative segment, address: DE2C - DEB9 (0x8e bytes), align: 1
  Segment part 2.
           ENTRY                   ADDRESS         REF BY
           =====                   =======         ======
           __iar_Dscale            DE2C            _LdtobFullNoMb (?xprintffull_nomb)

    -------------------------------------------------------------------------
  LIBRARY MODULE, NAME : ?xdunscal

  SEGMENTS IN THE MODULE
  ======================
<CODE> 1 (was CODE)
  Relative segment, address: F424 - F469 (0x46 bytes), align: 1
  Segment part 2.
           ENTRY                   ADDRESS         REF BY
           =====                   =======         ======
           __iar_Dunscale          F424            _LdtobFullNoMb (?xprintffull_nomb)

    -------------------------------------------------------------------------
  LIBRARY MODULE, NAME : ?xgetmemchunk

  SEGMENTS IN THE MODULE
  ======================
<CODE> 2 (was CODE)
  Relative segment, address: 000103D6 - 000103F3 (0x1e bytes), align: 1
  Segment part 3.
           ENTRY                   ADDRESS         REF BY
           =====                   =======         ======
           __data16_GetMemChunk    000103D6        __data16_findmem (?xxmemxmalloc)
    -------------------------------------------------------------------------
DATA16_Z
  Relative segment, address: 1CF4 - 1CF5 (0x2 bytes), align: 1
  Segment part 2.             Intra module refs:   __data16_GetMemChunk
    -------------------------------------------------------------------------
DATA16_HEAP
  Relative segment, address: 29FE, align: 1
  Segment part 4.

    -------------------------------------------------------------------------
  LIBRARY MODULE, NAME : ?xprintffull_nomb

  SEGMENTS IN THE MODULE
  ======================
<CODE> 1 (was CODE)
  Relative segment, address: 894E - 8DED (0x4a0 bytes), align: 1
  Segment part 23.
           ENTRY                   ADDRESS         REF BY
           =====                   =======         ======
           _PrintfFullNoMb         894E            printf (?printf)
                                                   sprintf (?sprintf)
               calls direct
    -------------------------------------------------------------------------
<CODE> 2 (was CODE)
  Relative segment, address: 00010314 - 0001031B (0x8 bytes), align: 1
  Segment part 27.            Intra module refs:   Segment part 30
                                                   _PrintfFullNoMb
    -------------------------------------------------------------------------
<CODE> 2 (was CODE)
  Relative segment, address: 0001031C - 00010323 (0x8 bytes), align: 1
  Segment part 28.            Intra module refs:   _PrintfFullNoMb
    -------------------------------------------------------------------------
<CODE> 2 (was CODE)
  Relative segment, address: 00010324 - 0001032F (0xc bytes), align: 1
  Segment part 29.            Intra module refs:   Segment part 27
                                                   Segment part 28
    -------------------------------------------------------------------------
<CODE> 2 (was CODE)
  Relative segment, address: 00010330 - 00010335 (0x6 bytes), align: 1
  Segment part 30.            Intra module refs:   _PrintfFullNoMb
    -------------------------------------------------------------------------
<CODE> 1 (was CODE)
  Relative segment, address: 6CDA - 6D5D (0x84 bytes), align: 1
  Segment part 8.             Intra module refs:   _PrintfFullNoMb
           LOCAL                   ADDRESS         
           =====                   =======         
           LoadInt                 6CDA 
    -------------------------------------------------------------------------
<CODE> 1 (was CODE)
  Relative segment, address: 6D5E - 6D6B (0xe bytes), align: 1
  Segment part 9.             Intra module refs:   LoadInt
    -------------------------------------------------------------------------
<CODE> 1 (was CODE)
  Relative segment, address: 6D6C - 6FC5 (0x25a bytes), align: 1
  Segment part 10.            Intra module refs:   _LdtobFullNoMb
           LOCAL                   ADDRESS         
           =====                   =======         
           _GenldFullNoMb          6D6C 
               calls direct
    -------------------------------------------------------------------------
<CODE> 1 (was CODE)
  Relative segment, address: 6FC6 - 6FD5 (0x10 bytes), align: 1
  Segment part 11.            Intra module refs:   _GenldFullNoMb
    -------------------------------------------------------------------------
<CODE> 1 (was CODE)
  Relative segment, address: 6FD6 - 6FE3 (0xe bytes), align: 1
  Segment part 12.            Intra module refs:   Segment part 11
                                                   _GenldFullNoMb
    -------------------------------------------------------------------------
<CODE> 1 (was CODE)
  Relative segment, address: 6FE4 - 7001 (0x1e bytes), align: 1
  Segment part 13.            Intra module refs:   _GenldFullNoMb
    -------------------------------------------------------------------------
<CODE> 1 (was CODE)
  Relative segment, address: 7002 - 7043 (0x42 bytes), align: 1
  Segment part 14.            Intra module refs:   _LdtobFullNoMb
           LOCAL                   ADDRESS         
           =====                   =======         
           scale                   7002 
               calls direct
    -------------------------------------------------------------------------
<CODE> 1 (was CODE)
  Relative segment, address: 7044 - 7429 (0x3e6 bytes), align: 1
  Segment part 15.            Intra module refs:   _PrintfFullNoMb
           LOCAL                   ADDRESS         
           =====                   =======         
           _LdtobFullNoMb          7044 
               calls direct
    -------------------------------------------------------------------------
<CODE> 1 (was CODE)
  Relative segment, address: 742A - 742F (0x6 bytes), align: 1
  Segment part 16.            Intra module refs:   _LdtobFullNoMb
    -------------------------------------------------------------------------
<CODE> 1 (was CODE)
  Relative segment, address: 7430 - 7439 (0xa bytes), align: 1
  Segment part 17.            Intra module refs:   Segment part 16
                                                   _LdtobFullNoMb
    -------------------------------------------------------------------------
<CODE> 1 (was CODE)
  Relative segment, address: 743A - 7443 (0xa bytes), align: 1
  Segment part 18.            Intra module refs:   _LdtobFullNoMb
    -------------------------------------------------------------------------
<CODE> 1 (was CODE)
  Relative segment, address: 7444 - 7453 (0x10 bytes), align: 1
  Segment part 19.            Intra module refs:   _LdtobFullNoMb
    -------------------------------------------------------------------------
<CODE> 1 (was CODE)
  Relative segment, address: 7454 - 75F9 (0x1a6 bytes), align: 1
  Segment part 20.            Intra module refs:   _PrintfFullNoMb
           LOCAL                   ADDRESS         
           =====                   =======         
           _LitobFullNoMb          7454 
               calls direct
    -------------------------------------------------------------------------
<CODE> 1 (was CODE)
  Relative segment, address: 75FA - 760B (0x12 bytes), align: 1
  Segment part 21.            Intra module refs:   _LitobFullNoMb
    -------------------------------------------------------------------------
<CODE> 1 (was CODE)
  Relative segment, address: 760C - 7615 (0xa bytes), align: 1
  Segment part 22.            Intra module refs:   LoadInt
                                                   _LitobFullNoMb
                                                   _PrintfFullNoMb
    -------------------------------------------------------------------------
<CODE> 1 (was CODE)
  Relative segment, address: FBE2 - FC17 (0x36 bytes), align: 1
  Segment part 32.            Intra module refs:   Segment part 27
           LOCAL                   ADDRESS         
           =====                   =======         
           pad                     FBE2 
               calls direct
    -------------------------------------------------------------------------
<CODE> 2 (was CODE)
  Relative segment, address: 0001015C - 00010183 (0x28 bytes), align: 1
  Segment part 33.            Intra module refs:   _PrintfFullNoMb
                                                   _PutcharsFullNoMb
           LOCAL                   ADDRESS         
           =====                   =======         
           _PutcharFullNoMb        0001015C 
               calls indirect
    -------------------------------------------------------------------------
<CODE> 2 (was CODE)
  Relative segment, address: 0001005A - 00010085 (0x2c bytes), align: 1
  Segment part 34.            Intra module refs:   Segment part 28
                                                   pad
           LOCAL                   ADDRESS         
           =====                   =======         
           _PutcharsFullNoMb       0001005A 
               calls direct
    -------------------------------------------------------------------------
<CODE> 2 (was CODE)
  Relative segment, address: 00010824 - 0001082D (0xa bytes), align: 1
  Segment part 24.            Intra module refs:   _PrintfFullNoMb
    -------------------------------------------------------------------------
<CODE> 2 (was CODE)
  Relative segment, address: 00010734 - 00010741 (0xe bytes), align: 1
  Segment part 25.            Intra module refs:   _PrintfFullNoMb
    -------------------------------------------------------------------------
<CODE> 2 (was CODE)
  Relative segment, address: 0001062E - 0001063F (0x12 bytes), align: 1
  Segment part 26.            Intra module refs:   _PrintfFullNoMb
    -------------------------------------------------------------------------
<CODE> 1 (was CODE)
  Relative segment, address: F7C6 - F803 (0x3e bytes), align: 1
  Segment part 31.            Intra module refs:   _PrintfFullNoMb
    -------------------------------------------------------------------------
DATA16_C
  Relative segment, address: 64EF - 64F5 (0x7 bytes), align: 0
  Segment part 2.             Intra module refs:   _PrintfFullNoMb
    -------------------------------------------------------------------------
DATA16_C
  Relative segment, address: 64F6 - 64F9 (0x4 bytes), align: 0
  Segment part 3.             Intra module refs:   _LdtobFullNoMb
    -------------------------------------------------------------------------
DATA16_C
  Relative segment, address: 64FA - 64FD (0x4 bytes), align: 0
  Segment part 4.             Intra module refs:   _LdtobFullNoMb
    -------------------------------------------------------------------------
DATA16_C
  Relative segment, address: 64FE - 6501 (0x4 bytes), align: 0
  Segment part 5.             Intra module refs:   _LdtobFullNoMb
    -------------------------------------------------------------------------
DATA16_C
  Relative segment, address: 6502 - 6505 (0x4 bytes), align: 0
  Segment part 6.             Intra module refs:   _LdtobFullNoMb
    -------------------------------------------------------------------------
DATA16_C
  Relative segment, address: 6506 - 6507 (0x2 bytes), align: 0
  Segment part 7.             Intra module refs:   _GenldFullNoMb

    -------------------------------------------------------------------------
  LIBRARY MODULE, NAME : ?xprout

  SEGMENTS IN THE MODULE
  ======================
<CODE> 2 (was CODE)
  Relative segment, address: 000105A8 - 000105BF (0x18 bytes), align: 1
  Segment part 2.
           ENTRY                   ADDRESS         REF BY
           =====                   =======         ======
           _Prout                  000105A8        printf (?printf)
               calls direct

    -------------------------------------------------------------------------
  LIBRARY MODULE, NAME : ?xsprout

  SEGMENTS IN THE MODULE
  ======================
<CODE> 2 (was CODE)
  Relative segment, address: 00010818 - 00010823 (0xc bytes), align: 1
  Segment part 2.
           ENTRY                   ADDRESS         REF BY
           =====                   =======         ======
           _SProut                 00010818        sprintf (?sprintf)

    -------------------------------------------------------------------------
  LIBRARY MODULE, NAME : ?xxmemxfree

  SEGMENTS IN THE MODULE
  ======================
<CODE> 1 (was CODE)
  Relative segment, address: DFCA - E04F (0x86 bytes), align: 1
  Segment part 2.
           ENTRY                   ADDRESS         REF BY
           =====                   =======         ======
           __data16_free           DFCA            __data16_findmem (?xxmemxmalloc)
                                                   free (Console)

    -------------------------------------------------------------------------
  LIBRARY MODULE, NAME : ?xxmemxmalloc

  SEGMENTS IN THE MODULE
  ======================
DATA16_Z
  Relative segment, address: 1CF6 - 1CF9 (0x4 bytes), align: 1
  Segment part 2.             Intra module refs:   __data16_findmem
                                                   __data16_malloc
           ENTRY                   ADDRESS         REF BY
           =====                   =======         ======
           __data16_Aldata         1CF6            __data16_free (?xxmemxfree)
    -------------------------------------------------------------------------
<CODE> 1 (was CODE)
  Relative segment, address: EB40 - EBA3 (0x64 bytes), align: 1
  Segment part 3.             Intra module refs:   __data16_malloc
           LOCAL                   ADDRESS         
           =====                   =======         
           __data16_findmem        EB40 
               calls direct
    -------------------------------------------------------------------------
<CODE> 1 (was CODE)
  Relative segment, address: E78C - E7F9 (0x6e bytes), align: 1
  Segment part 4.
           ENTRY                   ADDRESS         REF BY
           =====                   =======         ======
           __data16_malloc         E78C            malloc (Console)
               calls direct




                ****************************************
                *                                      *
                *      SEGMENTS IN ADDRESS ORDER       *
                *                                      *
                ****************************************


SEGMENT              SPACE    START ADDRESS   END ADDRESS     SIZE  TYPE  ALIGN
=======              =====    =============   ===========     ====  ====  =====
DATA16_AN                              0100 - 0103               4   rel    0
                                       0120 - 0121               2 
                                       0124 - 0127               4 
                                       012C - 012D               2 
                                       015C - 015D               2 
                                       0168 - 016F               8 
                                       0200 - 0205               6 
                                       020A - 020B               2 
                                       0218 - 021D               6 
                                       0220 - 0225               6 
                                       022A - 022B               2 
                                       0242 - 0245               4 
                                       024A - 024B               2 
                                       0260 - 0265               6 
                                       026A - 026B               2 
                                       0280 - 0285               6 
                                       028A - 028B               2 
                                       02A2 - 02A5               4 
                                       0380 - 0383               4 
                                       0392 - 0393               2 
                                       03C0 - 03C1               2 
                                       03C4 - 03C7               4 
                                       03D4 - 03D7               4 
                                       03EE - 03EF               2 
                                       05C0 - 05C1               2 
                                       05C6 - 05C8               3 
                                       05CC - 05CC               1 
                                       05CE - 05CE               1 
                                       05DC - 05DD               2 
                                       0600 - 0601               2 
                                       0606 - 0608               3 
                                       060C - 060C               1 
                                       060E - 060E               1 
                                       061C - 061D               2 
                                       0640 - 0641               2 
                                       0646 - 0648               3 
                                       064C - 064C               1 
                                       064E - 064E               1 
                                       065C - 065D               2 
                                       0680 - 0681               2 
                                       0686 - 0688               3 
                                       068C - 068C               1 
                                       068E - 068E               1 
                                       069C - 069D               2 
                                       0700 - 0703               4 
                                       0710 - 073F              30 
DATA16_I                               1C00 - 1C28              29   rel    1
DATA16_Z                               1C2A - 29FD             DD4   rel    1
DATA16_HEAP                            29FE - 33C1             9C4   rel    1
CODE_I                                    33C2                       rel    1
DATA20_I                                  33C2                       rel    1
DATA20_Z                                  33C2                       rel    1
DATA20_N                                  33C2                       rel    1
CSTACK                                 5400 - 5BFF             800   rel    1
DATA16_C                               5C00 - 6507             908   rel    1
DATA16_ID                              6508 - 6530              29   rel    1
CSTART                                 6532 - 6559              28   rel    1
ISR_CODE                               655A - 6CD9             780   rel    1
<CODE> 1                               6CDA - FF7F            92A6   rel    1
INTVEC                                 FF80 - FFF9              7A   com    1
RESET                                  FFFE - FFFF               2   rel    1
<CODE> 2                           00010000 - 000108C7         8C8   rel    1
DATA20_ID                               000108C8                     rel    1
CODE_ID                                 000108C8                     rel    1
DATA20_C                                000108C8                     rel    1

                ****************************************
                *                                      *
                *        END OF CROSS REFERENCE        *
                *                                      *
                ****************************************

 41 874 bytes of CODE  memory
  8 129 bytes of DATA  memory (+ 176 absolute )
  2 353 bytes of CONST memory

Errors: 9
Warnings: 6

